BL51 BANKED LINKER/LOCATER V6.22                                                        06/13/2013  10:29:17  PAGE 1


BL51 BANKED LINKER/LOCATER V6.22, INVOKED BY:
C:\KEIL\C51\BIN\BL51.EXE .\obj\STARTUP.obj, .\obj\AdcDrv.obj, .\obj\AngApp.obj, .\obj\Calibration.obj, .\obj\CmdSub.obj,
>>  .\obj\Comm.obj, .\obj\Delay.obj, .\obj\Filter.obj, .\obj\Flash.obj, .\obj\Init.obj, .\obj\Key.obj, .\obj\Main.obj, .
>> \obj\ModBusCrc.obj, .\obj\ModBusRtu.obj, .\obj\Send.obj, .\obj\Sensor.obj, .\obj\Sub.obj, .\obj\Timer.obj TO .\obj\16
>> 4-0001-20130607 PRINT (.\lst\164-0001-20130607.m51) RAMSIZE (256)


MEMORY MODEL: SMALL WITH FLOATING POINT ARITHMETIC


INPUT MODULES INCLUDED:
  .\obj\STARTUP.obj (?C_STARTUP)
  .\obj\AdcDrv.obj (ADCDRV)
  .\obj\AngApp.obj (ANGAPP)
  .\obj\Calibration.obj (CALIBRATION)
  .\obj\CmdSub.obj (CMDSUB)
  .\obj\Comm.obj (COMM)
  .\obj\Delay.obj (DELAY)
  .\obj\Filter.obj (FILTER)
  .\obj\Flash.obj (FLASH)
  .\obj\Init.obj (INIT)
  .\obj\Key.obj (KEY)
  .\obj\Main.obj (MAIN)
  .\obj\ModBusCrc.obj (MODBUSCRC)
  .\obj\ModBusRtu.obj (MODBUSRTU)
  .\obj\Send.obj (SEND)
  .\obj\Sensor.obj (SENSOR)
  .\obj\Sub.obj (SUB)
  .\obj\Timer.obj (TIMER)
  C:\KEIL\C51\LIB\C51FPS.LIB (?C?FPADD)
  C:\KEIL\C51\LIB\C51FPS.LIB (?C?FPMUL)
  C:\KEIL\C51\LIB\C51FPS.LIB (?C?FPDIV)
  C:\KEIL\C51\LIB\C51FPS.LIB (?C?FPCMP)
  C:\KEIL\C51\LIB\C51FPS.LIB (?C?FCAST)
  C:\KEIL\C51\LIB\C51FPS.LIB (?C?CASTF)
  C:\KEIL\C51\LIB\C51FPS.LIB (SQRT)
  C:\KEIL\C51\LIB\C51FPS.LIB (SIN)
  C:\KEIL\C51\LIB\C51FPS.LIB (ASIN)
  C:\KEIL\C51\LIB\C51FPS.LIB (?C?FPGETOPN)
  C:\KEIL\C51\LIB\C51FPS.LIB (?C?FPSERIES)
  C:\KEIL\C51\LIB\C51FPS.LIB (ATAN)
  C:\KEIL\C51\LIB\C51S.LIB (?C_INIT)
  C:\KEIL\C51\LIB\C51S.LIB (?C?CLDPTR)
  C:\KEIL\C51\LIB\C51S.LIB (?C?CLDOPTR)
  C:\KEIL\C51\LIB\C51S.LIB (?C?CILDPTR)
  C:\KEIL\C51\LIB\C51S.LIB (?C?CSTPTR)
  C:\KEIL\C51\LIB\C51S.LIB (?C?CSTOPTR)
  C:\KEIL\C51\LIB\C51S.LIB (?C?IMUL)
  C:\KEIL\C51\LIB\C51S.LIB (?C?UIDIV)
  C:\KEIL\C51\LIB\C51S.LIB (?C?SIDIV)
  C:\KEIL\C51\LIB\C51S.LIB (?C?IILDX)
  C:\KEIL\C51\LIB\C51S.LIB (?C?ILDPTR)
  C:\KEIL\C51\LIB\C51S.LIB (?C?ILDOPTR)
  C:\KEIL\C51\LIB\C51S.LIB (?C?IILDPTR)
  C:\KEIL\C51\LIB\C51S.LIB (?C?IILDOPTR)
  C:\KEIL\C51\LIB\C51S.LIB (?C?ISTPTR)
  C:\KEIL\C51\LIB\C51S.LIB (?C?ISTOPTR)
  C:\KEIL\C51\LIB\C51S.LIB (?C?LMUL)
BL51 BANKED LINKER/LOCATER V6.22                                                      06/13/2013  10:29:17  PAGE 2


  C:\KEIL\C51\LIB\C51S.LIB (?C?ULDIV)
  C:\KEIL\C51\LIB\C51S.LIB (?C?SLDIV)
  C:\KEIL\C51\LIB\C51S.LIB (?C?LNEG)
  C:\KEIL\C51\LIB\C51S.LIB (?C?SLCMP)
  C:\KEIL\C51\LIB\C51S.LIB (?C?ULCMP)
  C:\KEIL\C51\LIB\C51S.LIB (?C?ULSHR)
  C:\KEIL\C51\LIB\C51S.LIB (?C?LSHL)
  C:\KEIL\C51\LIB\C51S.LIB (?C?LLDPTR)
  C:\KEIL\C51\LIB\C51S.LIB (?C?LLDOPTR)
  C:\KEIL\C51\LIB\C51S.LIB (?C?LSTPTR)
  C:\KEIL\C51\LIB\C51S.LIB (?C?LSTOPTR)
  C:\KEIL\C51\LIB\C51S.LIB (?C?LLDCODE)
  C:\KEIL\C51\LIB\C51S.LIB (?C?LLDCODE0)
  C:\KEIL\C51\LIB\C51S.LIB (?C?LLDOPTR0)
  C:\KEIL\C51\LIB\C51S.LIB (?C?LSTXDATA)
  C:\KEIL\C51\LIB\C51S.LIB (?C?LSTKXDATA)
  C:\KEIL\C51\LIB\C51S.LIB (?C?LSTKOPTR)
  C:\KEIL\C51\LIB\C51S.LIB (?C?OFFXADD)
  C:\KEIL\C51\LIB\C51S.LIB (?C?PLDOPTR)
  C:\KEIL\C51\LIB\C51S.LIB (?C?PLDIOPTR)
  C:\KEIL\C51\LIB\C51S.LIB (?C?PSTOPTR)
  C:\KEIL\C51\LIB\C51S.LIB (?C?ICASE)
  C:\KEIL\C51\LIB\C51S.LIB (?C?ICALL)
  C:\KEIL\C51\LIB\C51S.LIB (STRNCMP)
  C:\KEIL\C51\LIB\C51S.LIB (STRNCPY)
  C:\KEIL\C51\LIB\C51S.LIB (?C?LLDIDATA)
  C:\KEIL\C51\LIB\C51S.LIB (?C?LLDXDATA)
  C:\KEIL\C51\LIB\C51S.LIB (?C?LLDPDATA)
  C:\KEIL\C51\LIB\C51S.LIB (?C?LLDIDATA0)
  C:\KEIL\C51\LIB\C51S.LIB (?C?LLDXDATA0)
  C:\KEIL\C51\LIB\C51S.LIB (?C?LLDPDATA0)
  C:\KEIL\C51\LIB\C51S.LIB (?C?LSTIDATA)
  C:\KEIL\C51\LIB\C51S.LIB (?C?LSTPDATA)
  C:\KEIL\C51\LIB\C51S.LIB (?C?LSTKIDATA)
  C:\KEIL\C51\LIB\C51S.LIB (?C?LSTKPDATA)
  C:\KEIL\C51\LIB\C51S.LIB (?C?PLDIDATA)
  C:\KEIL\C51\LIB\C51S.LIB (?C?PLDIIDATA)
  C:\KEIL\C51\LIB\C51S.LIB (?C?PSTIDATA)
  C:\KEIL\C51\LIB\C51S.LIB (?C?PLDXDATA)
  C:\KEIL\C51\LIB\C51S.LIB (?C?PLDIXDATA)
  C:\KEIL\C51\LIB\C51S.LIB (?C?PSTXDATA)
  C:\KEIL\C51\LIB\C51S.LIB (?C?PLDPDATA)
  C:\KEIL\C51\LIB\C51S.LIB (?C?PLDIPDATA)
  C:\KEIL\C51\LIB\C51S.LIB (?C?PSTPDATA)
  C:\KEIL\C51\LIB\C51S.LIB (?C?PLDCODE)


LINK MAP OF MODULE:  .\obj\164-0001-20130607 (?C_STARTUP)


            TYPE    BASE      LENGTH    RELOCATION   SEGMENT NAME
            -----------------------------------------------------

            * * * * * * *   D A T A   M E M O R Y   * * * * * * *
            REG     0000H     0008H     ABSOLUTE     "REG BANK 0"
            DATA    0008H     000AH     UNIT         ?DT?SEND
            DATA    0012H     0004H     UNIT         ?DT?CMDSUB
BL51 BANKED LINKER/LOCATER V6.22                                                      06/13/2013  10:29:17  PAGE 3


            DATA    0016H     0001H     UNIT         ?DT?KEY
            DATA    0017H     0001H     UNIT         ?DT?TIMER
            IDATA   0018H     0003H     UNIT         ?ID?ADCDRV
                    001BH     0005H                  *** GAP ***
            BIT     0020H.0   0000H.2   UNIT         ?BI?COMM
            BIT     0020H.2   0000H.2   UNIT         _BIT_GROUP_
                    0020H.4   0000H.4                *** GAP ***
            DATA    0021H     0051H     UNIT         _DATA_GROUP_
            IDATA   0072H     0001H     UNIT         ?STACK

            * * * * * * *  X D A T A   M E M O R Y  * * * * * * *
            XDATA   0000H     04B0H     UNIT         ?XD?CALIBRATION
            XDATA   04B0H     0200H     UNIT         ?XD?FLASH
            XDATA   06B0H     01A2H     UNIT         ?XD?COMM
            XDATA   0852H     019EH     UNIT         ?XD?ADCDRV
            XDATA   09F0H     00C9H     UNIT         ?XD?SEND
            XDATA   0AB9H     0041H     UNIT         ?XD?SENSOR
            XDATA   0AFAH     0038H     UNIT         ?XD?ANGAPP
            XDATA   0B32H     0018H     UNIT         ?XD?CMDSUB
            XDATA   0B4AH     000DH     UNIT         ?XD?MODBUSRTU
            XDATA   0B57H     0008H     UNIT         _XDATA_GROUP_
            XDATA   0B5FH     0005H     UNIT         ?XD?MAIN
            XDATA   0B64H     0002H     UNIT         ?XD?KEY
            XDATA   0B66H     0002H     UNIT         ?XD?TIMER

            * * * * * * *   C O D E   M E M O R Y   * * * * * * *
            CODE    0000H     0003H     ABSOLUTE     
            CODE    0003H     0020H     UNIT         ?PR?_SEND_TDEAL?SEND
            CODE    0023H     0003H     ABSOLUTE     
            CODE    0026H     0004H     UNIT         ?PR?ADC_ENABLE?ADCDRV
                    002AH     0001H                  *** GAP ***
            CODE    002BH     0003H     ABSOLUTE     
            CODE    002EH     001DH     UNIT         ?PR?COMM_TIMERPROC?COMM
            CODE    004BH     0003H     ABSOLUTE     
            CODE    004EH     0B82H     UNIT         ?PR?_MODRTU_RDVAL?MODBUSRTU
            CODE    0BD0H     0B58H     UNIT         ?C?LIB_CODE
            CODE    1728H     09DFH     UNIT         ?PR?_MODRTU_WRVAL?MODBUSRTU
            CODE    2107H     096BH     UNIT         ?PR?_SEND_SDEAL?SEND
            CODE    2A72H     02A1H     UNIT         ?PR?_RAM_CALDATA2BUF?FLASH
            CODE    2D13H     0298H     UNIT         ?PR?_RAM_BUF2CALDATA?FLASH
            CODE    2FABH     027AH     UNIT         ?PR?ANGPROC?ANGAPP
            CODE    3225H     0258H     UNIT         ?CO?SEND
            CODE    347DH     0219H     UNIT         ?PR?_SEND_RDEAL?SEND
            CODE    3696H     0203H     UNIT         ?PR?_SEND_CDEAL?SEND
            CODE    3899H     0200H     UNIT         ?CO?MODBUSCRC
            CODE    3A99H     01B6H     UNIT         ?PR?_SUB_STR2INT32S?SUB
            CODE    3C4FH     0184H     UNIT         ?PR?_ANG_CALCPRM?CALIBRATION
            CODE    3DD3H     016EH     UNIT         ?PR?SIN?SIN
            CODE    3F41H     015FH     UNIT         ?PR?_SUB_INT32S2STR?SUB
            CODE    40A0H     0130H     UNIT         ?PR?_TEMP_CALCPRM?CALIBRATION
            CODE    41D0H     0128H     UNIT         ?PR?ATAN?ATAN
            CODE    42F8H     011FH     UNIT         ?PR?ANGCALDATAINIT?CALIBRATION
            CODE    4417H     011DH     UNIT         ?PR?SEND_TIMEPROC?SEND
            CODE    4534H     0115H     UNIT         ?PR?CALIBINIT?CALIBRATION
            CODE    4649H     010CH     UNIT         ?PR?FLASH_CALDATAINIT?FLASH
            CODE    4755H     0107H     UNIT         ?PR?_TEMP_CALTREFSET?CMDSUB
            CODE    485CH     0100H     UNIT         ?PR?_SEND_WDEAL?SEND
BL51 BANKED LINKER/LOCATER V6.22                                                      06/13/2013  10:29:17  PAGE 4


            CODE    495CH     00FFH     UNIT         ?PR?_SUB_SENDTEMPCAL?SUB
            CODE    4A5BH     00F8H     UNIT         ?PR?_MODRTU_WRREG?MODBUSRTU
            CODE    4B53H     00E8H     UNIT         ?PR?_ADC_XCALPROC?CMDSUB
            CODE    4C3BH     00E8H     UNIT         ?PR?_ADC_YCALPROC?CMDSUB
            CODE    4D23H     00E2H     UNIT         ?PR?_MODRTU_RDREG?MODBUSRTU
            CODE    4E05H     00D8H     UNIT         ?PR?_PANGCALC?ANGAPP
            CODE    4EDDH     00D4H     UNIT         ?PR?_SLIDEWINFILTER?FILTER
            CODE    4FB1H     00BFH     UNIT         ?PR?_SUB_STR2INT16U?SUB
            CODE    5070H     00B7H     UNIT         ?PR?_GETOFFSET?SENSOR
            CODE    5127H     00B0H     UNIT         ?PR?_SUB_INT16U2STR?SUB
            CODE    51D7H     00AAH     UNIT         ?PR?SQRT?SQRT
            CODE    5281H     00A7H     UNIT         ?PR?_ANG_CALC?SENSOR
            CODE    5328H     00A5H     UNIT         ?PR?_COMM_GETTXCHAR?COMM
            CODE    53CDH     00A5H     UNIT         ?PR?_GETANGCALCVAL?SENSOR
            CODE    5472H     00A4H     UNIT         ?PR?ADC_ISR?ADCDRV
            CODE    5516H     00A4H     UNIT         ?PR?_COMM_GETCHAR?COMM
            CODE    55BAH     0099H     UNIT         ?PR?ANGINIT?ANGAPP
            CODE    5653H     0097H     UNIT         ?PR?ADC_XCALSTOP?CMDSUB
            CODE    56EAH     0097H     UNIT         ?PR?ADC_YCALSTOP?CMDSUB
            CODE    5781H     0092H     UNIT         ?PR?SNPROC?SENSOR
            CODE    5813H     008FH     UNIT         ?PR?COMM_SOFTWAREINIT?COMM
            CODE    58A2H     008DH     UNIT         ?PR?_FLOATTOINT?MODBUSRTU
            CODE    592FH     008CH     UNIT         ?C_C51STARTUP
            CODE    59BBH     008CH     UNIT         ?PR?_COMM_PUTCHAR?COMM
            CODE    5A47H     0085H     UNIT         ?PR?_ADCFILTER?ADCDRV
            CODE    5ACCH     0085H     UNIT         ?PR?_TEMP_CALVALWR?CMDSUB
            CODE    5B51H     0084H     UNIT         ?PR?_COMM_PUTRXCHAR?COMM
            CODE    5BD5H     0084H     UNIT         ?PR?SNINIT?SENSOR
            CODE    5C59H     0080H     UNIT         ?PR?TEMPSORTANDCALCPRM?CMDSUB
            CODE    5CD9H     0080H     UNIT         ?PR?_SNFILTER?SENSOR
            CODE    5D59H     0075H     UNIT         ?PR?_SUB_BUFBUBBLE2?SUB
            CODE    5DCEH     0072H     UNIT         ?PR?COMM_ISR?COMM
            CODE    5E40H     006FH     UNIT         ?PR?_STRNCMP?STRNCMP
            CODE    5EAFH     006BH     UNIT         ?PR?_ANGCHKDIFF?CMDSUB
            CODE    5F1AH     006AH     UNIT         ?PR?_FLASH_BUFWR?FLASH
            CODE    5F84H     0069H     UNIT         ?PR?_SN_DATAINIT?SENSOR
            CODE    5FEDH     0069H     UNIT         ?PR?_SUB_BUFBUBBLE?SUB
            CODE    6056H     0068H     UNIT         ?PR?_ADC_SAVEANDSWITCH?ADCDRV
            CODE    60BEH     0066H     UNIT         ?PR?_TEMP_CALSAMP?CMDSUB
            CODE    6124H     0065H     UNIT         ?PR?_SEND_UDEAL?SEND
            CODE    6189H     0065H     UNIT         ?PR?SUB_SENDPRMTALL?SUB
            CODE    61EEH     0064H     UNIT         ?PR?SUB_SENDTCALTEST?SUB
            CODE    6252H     0063H     UNIT         ?PR?_SUB_SENDANGXCAL?SUB
            CODE    62B5H     0061H     UNIT         ?PR?TEMPCALDATAINIT?CALIBRATION
            CODE    6316H     005DH     UNIT         ?PR?_FILTER_1ST?FILTER
            CODE    6373H     005CH     UNIT         ?PR?_FLASH_BUFRD?FLASH
            CODE    63CFH     005AH     UNIT         ?PR?_SUB_STR2INT16S?SUB
            CODE    6429H     0056H     UNIT         ?PR?FLASHAREA_USER?FLASH
            CODE    647FH     0056H     UNIT         ?PR?_SUB_SBUFSWITCH?SUB
            CODE    64D5H     0054H     UNIT         ?PR?INIT_SYSTEMPARA?INIT
            CODE    6529H     0052H     UNIT         ?PR?_STRNCPY?STRNCPY
            CODE    657BH     0050H     UNIT         ?PR?RAM_CALDATAINIT_USER?FLASH
            CODE    65CBH     004FH     UNIT         ?PR?_FLASH_CALDATAUPDATE_USER?FLASH
            CODE    661AH     004FH     UNIT         ?CO?SUB
            CODE    6669H     004DH     UNIT         ?PR?ADCENTITYINIT?ADCDRV
            CODE    66B6H     004CH     UNIT         ?PR?_SUB_16SBUFSWITCH?SUB
            CODE    6702H     004CH     UNIT         ?PR?_SUB_UBUFSWITCH?SUB
BL51 BANKED LINKER/LOCATER V6.22                                                      06/13/2013  10:29:17  PAGE 5


            CODE    674EH     0048H     UNIT         ?PR?_SUB_SENDADCTXY?SUB
            CODE    6796H     0048H     UNIT         ?PR?_SUB_SENDANGYCAL?SUB
            CODE    67DEH     0047H     UNIT         ?PR?KEY_DOWN?KEY
            CODE    6825H     0046H     UNIT         ?PR?GETXANGALLSETVAL?ANGAPP
            CODE    686BH     0046H     UNIT         ?PR?GETYANGALLSETVAL?ANGAPP
            CODE    68B1H     0044H     UNIT         ?PR?_MODRTU_RLYERROR?MODBUSRTU
            CODE    68F5H     0044H     UNIT         ?C?LDIV
            CODE    6939H     0043H     UNIT         ?PR?FLASH_CALDATAUPDATE?FLASH
            CODE    697CH     0041H     UNIT         ?PR?_COMM_PUTINT16S?SUB
            CODE    69BDH     003FH     UNIT         ?PR?SUB_SENDANGXYP?SUB
            CODE    69FCH     003DH     UNIT         ?PR?TIMER2_INIT?TIMER
            CODE    6A39H     003DH     UNIT         ?PR?TIMER2_ISR?TIMER
            CODE    6A76H     003CH     UNIT         ?PR?_FLASH_CHECKSUM?FLASH
            CODE    6AB2H     003CH     UNIT         ?PR?SUB_SENDID?SUB
            CODE    6AEEH     003CH     UNIT         ?PR?_SUB_STR2INT8U?SUB
            CODE    6B2AH     003CH     UNIT         ?PR?TIMER2_TASKINISR?TIMER
            CODE    6B66H     003BH     UNIT         ?PR?ASIN?ASIN
            CODE    6BA1H     003AH     UNIT         ?PR?_MODBUSCRCCNT?MODBUSCRC
            CODE    6BDBH     003AH     UNIT         ?PR?_MODRTU_RXPROC?MODBUSRTU
            CODE    6C15H     0036H     UNIT         ?PR?GETANGP?ANGAPP
            CODE    6C4BH     0034H     UNIT         ?PR?MAIN?MAIN
            CODE    6C7FH     0033H     UNIT         ?PR?_MODRTU_SETZERO?MODBUSRTU
            CODE    6CB2H     0032H     UNIT         ?PR?_FLASHUPDATE?FLASH
            CODE    6CE4H     002FH     UNIT         ?C_INITSEG
            CODE    6D13H     002FH     UNIT         ?PR?_SUB_STRALARMCHECK?SUB
            CODE    6D42H     002EH     UNIT         ?PR?ADC_SETINIT?ADCDRV
            CODE    6D70H     002CH     UNIT         ?PR?_SETANGZERO?ANGAPP
            CODE    6D9CH     002BH     UNIT         ?PR?SUB_SENDANGXY?SUB
            CODE    6DC7H     0029H     UNIT         ?PR?_SETANGZEROADD?ANGAPP
            CODE    6DF0H     0029H     UNIT         ?PR?_FLASH_PAGEERASE?FLASH
            CODE    6E19H     0028H     UNIT         ?PR?KEY_PROC?KEY
            CODE    6E41H     0028H     UNIT         ?PR?_MODRTU_WRADDR?MODBUSRTU
            CODE    6E69H     0026H     UNIT         ?PR?_COMM_PUTSTR?COMM
            CODE    6E8FH     0025H     UNIT         ?PR?_MODRTU_WRBAUD?MODBUSRTU
            CODE    6EB4H     0024H     UNIT         ?PR?_VALINRANGE?FILTER
            CODE    6ED8H     0023H     UNIT         ?PR?SYS_PORTINIT?INIT
            CODE    6EFBH     0022H     UNIT         ?PR?_SUB_INT16S2STR?SUB
            CODE    6F1DH     0021H     UNIT         ?PR?_MODRTU_WR16U?MODBUSRTU
            CODE    6F3EH     0020H     UNIT         ?PR?_SUB_INT8U2STR?SUB
            CODE    6F5EH     001EH     UNIT         ?PR?_ALARMX?ANGAPP
            CODE    6F7CH     001EH     UNIT         ?PR?_ALARMY?ANGAPP
            CODE    6F9AH     001EH     UNIT         ?PR?_ALARMS?ANGAPP
            CODE    6FB8H     001EH     UNIT         ?PR?COMM_HARDWAREINIT?COMM
            CODE    6FD6H     001CH     UNIT         ?PR?_COMM_PUTINT16U?SUB
            CODE    6FF2H     001CH     UNIT         ?PR?SUB_SENDSYSNUM?SUB
            CODE    700EH     001BH     UNIT         ?PR?INIT_ALL?INIT
            CODE    7029H     001BH     UNIT         ?PR?SNXDATAINIT?SENSOR
            CODE    7044H     001BH     UNIT         ?PR?SNYDATAINIT?SENSOR
            CODE    705FH     001AH     UNIT         ?CO?ADCDRV
            CODE    7079H     0019H     UNIT         ?PR?SYS_CLKINIT?INIT
            CODE    7092H     0018H     UNIT         ?PR?FLASH_USERDATAUPDATE?FLASH
            CODE    70AAH     0017H     UNIT         ?PR?_TEMP_RDTEMPVAL?CALIBRATION
            CODE    70C1H     0017H     UNIT         ?PR?_TEMP_WRTEMPVAL?CALIBRATION
            CODE    70D8H     0017H     UNIT         ?PR?ADC_XCALSTA?CMDSUB
            CODE    70EFH     0017H     UNIT         ?PR?ADC_YCALSTA?CMDSUB
            CODE    7106H     0017H     UNIT         ?PR?_DELAY_MS?DELAY
            CODE    711DH     0016H     UNIT         ?PR?TEMP_CALSTOP?CMDSUB
BL51 BANKED LINKER/LOCATER V6.22                                                      06/13/2013  10:29:17  PAGE 6


            CODE    7133H     0016H     UNIT         ?PR?_MODRTU_CHKCRC?MODBUSRTU
            CODE    7149H     0016H     UNIT         ?PR?_COMM_PUTINT8U?SUB
            CODE    715FH     0015H     UNIT         ?PR?_SETTEMPXCALTEMPVAL?CALIBRATION
            CODE    7174H     0015H     UNIT         ?PR?_SETTEMPYCALTEMPVAL?CALIBRATION
            CODE    7189H     0015H     UNIT         ?PR?_SETTEMPXCALADCVAL?CALIBRATION
            CODE    719EH     0015H     UNIT         ?PR?_SETANGXCALADCVAL?CALIBRATION
            CODE    71B3H     0015H     UNIT         ?PR?_SETTEMPYCALADCVAL?CALIBRATION
            CODE    71C8H     0015H     UNIT         ?PR?_SETANGYCALADCVAL?CALIBRATION
            CODE    71DDH     0014H     UNIT         ?PR?_COMM_PUTINT32S?SUB
            CODE    71F1H     0012H     UNIT         ?PR?TEMP_CALSTA?CMDSUB
            CODE    7203H     0012H     UNIT         ?PR?_SNXFILTER?SENSOR
            CODE    7215H     0012H     UNIT         ?PR?_SNYFILTER?SENSOR
            CODE    7227H     0012H     UNIT         ?PR?TIMER2_TASKINMAIN?TIMER
            CODE    7239H     0011H     UNIT         ?PR?_TEMP_RDADCVAL?CALIBRATION
            CODE    724AH     0011H     UNIT         ?PR?_TEMP_WRADCVAL?CALIBRATION
            CODE    725BH     0011H     UNIT         ?PR?_ANG_RDADCVAL?CALIBRATION
            CODE    726CH     0011H     UNIT         ?PR?_ANG_WRADCVAL?CALIBRATION
            CODE    727DH     0011H     UNIT         ?PR?GET_MCUTEMP?SENSOR
            CODE    728EH     0011H     UNIT         ?PR?SUB_SENDOK?SUB
            CODE    729FH     0011H     UNIT         ?PR?SUB_SENDERR?SUB
            CODE    72B0H     0011H     UNIT         ?PR?SUB_SENDSOFTVER?SUB
            CODE    72C1H     000FH     UNIT         ?PR?GETANGXSYSZERO?ANGAPP
            CODE    72D0H     000FH     UNIT         ?PR?GETANGYSYSZERO?ANGAPP
            CODE    72DFH     000FH     UNIT         ?PR?GETANGXUSRZERO?ANGAPP
            CODE    72EEH     000FH     UNIT         ?PR?GETANGYUSRZERO?ANGAPP
            CODE    72FDH     000FH     UNIT         ?PR?GETANGXINST?ANGAPP
            CODE    730CH     000FH     UNIT         ?PR?GETANGYINST?ANGAPP
            CODE    731BH     000FH     UNIT         ?PR?GETANGXSET?ANGAPP
            CODE    732AH     000FH     UNIT         ?PR?GETANGYSET?ANGAPP
            CODE    7339H     000FH     UNIT         ?PR?GETANGPSET?ANGAPP
            CODE    7348H     000FH     UNIT         ?PR?GETANGXZEROUSR?ANGAPP
            CODE    7357H     000FH     UNIT         ?PR?GETANGYZEROUSR?ANGAPP
            CODE    7366H     000FH     UNIT         ?PR?GETANGXRELSYS?ANGAPP
            CODE    7375H     000FH     UNIT         ?PR?GETANGYRELSYS?ANGAPP
            CODE    7384H     000FH     UNIT         ?PR?DELAY_100US?DELAY
            CODE    7393H     000FH     UNIT         ?PR?GETXANG?SENSOR
            CODE    73A2H     000FH     UNIT         ?PR?GETYANG?SENSOR
            CODE    73B1H     000EH     UNIT         ?PR?_ANG_RDANGVAL?CALIBRATION
            CODE    73BFH     000EH     UNIT         ?PR?_ANG_WRANGVAL?CALIBRATION
            CODE    73CDH     000EH     UNIT         ?PR?FLASHCHK?FLASH
            CODE    73DBH     000DH     UNIT         ?PR?_MODRTU_RD16U?MODBUSRTU
            CODE    73E8H     000CH     UNIT         ?PR?ADC_INIT?ADCDRV
            CODE    73F4H     000CH     UNIT         ?PR?_GETTEMPXCALTEMPVAL?CALIBRATION
            CODE    7400H     000CH     UNIT         ?PR?_GETANGXCALANGVAL?CALIBRATION
            CODE    740CH     000CH     UNIT         ?PR?_GETTEMPYCALTEMPVAL?CALIBRATION
            CODE    7418H     000CH     UNIT         ?PR?_GETANGYCALANGVAL?CALIBRATION
            CODE    7424H     000CH     UNIT         ?PR?_GETTEMPXCALADCVAL?CALIBRATION
            CODE    7430H     000CH     UNIT         ?PR?_GETANGXCALADCVAL?CALIBRATION
            CODE    743CH     000CH     UNIT         ?PR?_GETTEMPYCALADCVAL?CALIBRATION
            CODE    7448H     000CH     UNIT         ?PR?_GETANGYCALADCVAL?CALIBRATION
            CODE    7454H     000CH     UNIT         ?PR?_SETANGXCALANGVAL?CALIBRATION
            CODE    7460H     000CH     UNIT         ?PR?_SETANGYCALANGVAL?CALIBRATION
            CODE    746CH     000CH     UNIT         ?PR?_MODRTU_8TO16?MODBUSRTU
            CODE    7478H     000BH     UNIT         ?PR?_SETTEMPXCALCNT?CALIBRATION
            CODE    7483H     000BH     UNIT         ?PR?_SETANGXCALCNT?CALIBRATION
            CODE    748EH     000BH     UNIT         ?PR?_SETTEMPYCALCNT?CALIBRATION
            CODE    7499H     000BH     UNIT         ?PR?_SETANGYCALCNT?CALIBRATION
BL51 BANKED LINKER/LOCATER V6.22                                                      06/13/2013  10:29:17  PAGE 7


            CODE    74A4H     000BH     UNIT         ?PR?_DELAY_CYC?DELAY
            CODE    74AFH     000BH     UNIT         ?PR?_MODRTU_WRCRC?MODBUSRTU
            CODE    74BAH     000BH     UNIT         ?PR?SUB_SYSRST?SUB
            CODE    74C5H     000AH     UNIT         ?PR?COMM_TIMERINIT?COMM
            CODE    74CFH     000AH     UNIT         ?PR?DELAY_MS_?DELAY
            CODE    74D9H     000AH     UNIT         ?PR?COMM_PUTNEWLINE?SUB
            CODE    74E3H     0009H     UNIT         ?PR?ADC_GETXVAL?ADCDRV
            CODE    74ECH     0009H     UNIT         ?PR?ADC_GETYVAL?ADCDRV
            CODE    74F5H     0009H     UNIT         ?PR?ADC_GETTEMP?ADCDRV
            CODE    74FEH     0009H     UNIT         ?PR?TEMPXCALCPRM?CALIBRATION
            CODE    7507H     0009H     UNIT         ?PR?TEMPYCALCPRM?CALIBRATION
            CODE    7510H     0009H     UNIT         ?PR?ANGXCALCPRM?CALIBRATION
            CODE    7519H     0009H     UNIT         ?PR?ANGYCALCPRM?CALIBRATION
            CODE    7522H     0009H     UNIT         ?CO?KEY
            CODE    752BH     0009H     UNIT         ?PR?ANGXCALC?SENSOR
            CODE    7534H     0009H     UNIT         ?PR?ANGYCALC?SENSOR
            CODE    753DH     0009H     UNIT         ?PR?GETXFTVAL?SENSOR
            CODE    7546H     0009H     UNIT         ?PR?GETYFTVAL?SENSOR
            CODE    754FH     0009H     UNIT         ?PR?GETXOFTVAL?SENSOR
            CODE    7558H     0009H     UNIT         ?PR?GETYOFTVAL?SENSOR
            CODE    7561H     0009H     UNIT         ?PR?_SUB_SENDOFFSET?SUB
            CODE    756AH     0008H     UNIT         ?PR?_SETTEMPCALCNT?CALIBRATION
            CODE    7572H     0008H     UNIT         ?PR?_SETANGCALCNT?CALIBRATION
            CODE    757AH     0008H     UNIT         ?PR?_GETXOFFSET?SENSOR
            CODE    7582H     0008H     UNIT         ?PR?_GETYOFFSET?SENSOR
            CODE    758AH     0007H     UNIT         ?PR?MAIN_TEMP?MAIN
            CODE    7591H     0006H     UNIT         ?PR?_SETANGXSYSZERO?ANGAPP
            CODE    7597H     0006H     UNIT         ?PR?_SETANGYSYSZERO?ANGAPP
            CODE    759DH     0006H     UNIT         ?PR?_SETANGXUSRZERO?ANGAPP
            CODE    75A3H     0006H     UNIT         ?PR?_SETANGYUSRZERO?ANGAPP
            CODE    75A9H     0006H     UNIT         ?PR?_SETANGXINST?ANGAPP
            CODE    75AFH     0006H     UNIT         ?PR?_SETANGYINST?ANGAPP
            CODE    75B5H     0006H     UNIT         ?PR?_SETANGXSET?ANGAPP
            CODE    75BBH     0006H     UNIT         ?PR?_SETANGYSET?ANGAPP
            CODE    75C1H     0006H     UNIT         ?PR?_SETANGPSET?ANGAPP
            CODE    75C7H     0006H     UNIT         ?PR?GETTEMPXCALCNT?CALIBRATION
            CODE    75CDH     0006H     UNIT         ?PR?GETANGXCALCNT?CALIBRATION
            CODE    75D3H     0006H     UNIT         ?PR?GETANGYCALCNT?CALIBRATION
            CODE    75D9H     0006H     UNIT         ?PR?COMM_SENDSTA?COMM
            CODE    75DFH     0006H     UNIT         ?PR?RAM_CALDATAINIT?FLASH
            CODE    75E5H     0006H     UNIT         ?PR?GETFILTERCNT?SENSOR
            CODE    75EBH     0006H     UNIT         ?PR?_SETFILTERCNT?SENSOR
            CODE    75F1H     0004H     UNIT         ?PR?ADC_VREFINIT?ADCDRV
            CODE    75F5H     0004H     UNIT         ?PR?ADC_ISRINIT?ADCDRV
            CODE    75F9H     0004H     UNIT         ?PR?_TEMP_SETCALCNT?CALIBRATION
            CODE    75FDH     0004H     UNIT         ?PR?_ANG_SETCALCNT?CALIBRATION
            CODE    7601H     0004H     UNIT         ?PR?COMM_SENDSTOP?COMM



OVERLAY MAP OF MODULE:   .\obj\164-0001-20130607 (?C_STARTUP)


SEGMENT                                        BIT_GROUP          DATA_GROUP          XDATA_GROUP
  +--> CALLED SEGMENT                       START    LENGTH     START    LENGTH     START    LENGTH
---------------------------------------------------------------------------------------------------
?C_C51STARTUP                               -----    -----      -----    -----      -----    -----
BL51 BANKED LINKER/LOCATER V6.22                                                      06/13/2013  10:29:17  PAGE 8


  +--> ?PR?MAIN?MAIN
  +--> ?C_INITSEG

?PR?MAIN?MAIN                               -----    -----      -----    -----      -----    -----
  +--> ?PR?INIT_ALL?INIT
  +--> ?PR?FLASH_CALDATAINIT?FLASH
  +--> ?PR?MAIN_TEMP?MAIN
  +--> ?PR?_DELAY_MS?DELAY
  +--> ?PR?SNPROC?SENSOR
  +--> ?PR?TIMER2_TASKINMAIN?TIMER
  +--> ?PR?SEND_TIMEPROC?SEND
  +--> ?PR?KEY_PROC?KEY
  +--> ?PR?ANGPROC?ANGAPP

?PR?INIT_ALL?INIT                           -----    -----      -----    -----      -----    -----
  +--> ?PR?SYS_PORTINIT?INIT
  +--> ?PR?SYS_CLKINIT?INIT
  +--> ?PR?COMM_HARDWAREINIT?COMM
  +--> ?PR?COMM_SOFTWAREINIT?COMM
  +--> ?PR?TIMER2_INIT?TIMER
  +--> ?PR?INIT_SYSTEMPARA?INIT
  +--> ?PR?ANGINIT?ANGAPP
  +--> ?PR?ADC_INIT?ADCDRV
  +--> ?PR?ADC_ENABLE?ADCDRV

?PR?COMM_SOFTWAREINIT?COMM                  -----    -----      0021H    0003H      -----    -----

?PR?TIMER2_INIT?TIMER                       -----    -----      -----    -----      -----    -----
  +--> ?CO?SEND

?PR?INIT_SYSTEMPARA?INIT                    -----    -----      -----    -----      -----    -----
  +--> ?CO?SEND

?PR?ANGINIT?ANGAPP                          -----    -----      -----    -----      -----    -----
  +--> ?PR?SNINIT?SENSOR
  +--> ?PR?_SETANGXINST?ANGAPP
  +--> ?PR?_SETANGYINST?ANGAPP
  +--> ?PR?_SETANGXSYSZERO?ANGAPP
  +--> ?PR?_SETANGYSYSZERO?ANGAPP
  +--> ?PR?_SETANGXUSRZERO?ANGAPP
  +--> ?PR?_SETANGYUSRZERO?ANGAPP
  +--> ?PR?_SETANGXSET?ANGAPP
  +--> ?PR?_SETANGYSET?ANGAPP
  +--> ?PR?_SETANGPSET?ANGAPP

?PR?SNINIT?SENSOR                           -----    -----      -----    -----      -----    -----
  +--> ?PR?CALIBINIT?CALIBRATION
  +--> ?PR?_SETFILTERCNT?SENSOR
  +--> ?PR?SNXDATAINIT?SENSOR
  +--> ?PR?_SNXFILTER?SENSOR
  +--> ?PR?_GETXOFFSET?SENSOR
  +--> ?PR?ANGXCALC?SENSOR
  +--> ?PR?SNYDATAINIT?SENSOR
  +--> ?PR?_SNYFILTER?SENSOR
  +--> ?PR?_GETYOFFSET?SENSOR
  +--> ?PR?ANGYCALC?SENSOR

BL51 BANKED LINKER/LOCATER V6.22                                                      06/13/2013  10:29:17  PAGE 9


?PR?CALIBINIT?CALIBRATION                   -----    -----      -----    -----      -----    -----
  +--> ?PR?_SETTEMPXCALCNT?CALIBRATION
  +--> ?PR?_GETTEMPXCALTEMPVAL?CALIBRATION
  +--> ?PR?_GETTEMPXCALADCVAL?CALIBRATION
  +--> ?PR?_SETTEMPXCALTEMPVAL?CALIBRATION
  +--> ?PR?_SETTEMPXCALADCVAL?CALIBRATION
  +--> ?PR?_SETTEMPYCALCNT?CALIBRATION
  +--> ?PR?_GETTEMPYCALTEMPVAL?CALIBRATION
  +--> ?PR?_GETTEMPYCALADCVAL?CALIBRATION
  +--> ?PR?_SETTEMPYCALTEMPVAL?CALIBRATION
  +--> ?PR?_SETTEMPYCALADCVAL?CALIBRATION
  +--> ?PR?_SETANGXCALCNT?CALIBRATION
  +--> ?PR?_GETANGXCALANGVAL?CALIBRATION
  +--> ?PR?_GETANGXCALADCVAL?CALIBRATION
  +--> ?PR?_SETANGXCALANGVAL?CALIBRATION
  +--> ?PR?_SETANGXCALADCVAL?CALIBRATION
  +--> ?PR?_SETANGYCALCNT?CALIBRATION
  +--> ?PR?_GETANGYCALANGVAL?CALIBRATION
  +--> ?PR?_GETANGYCALADCVAL?CALIBRATION
  +--> ?PR?_SETANGYCALANGVAL?CALIBRATION
  +--> ?PR?_SETANGYCALADCVAL?CALIBRATION

?PR?_SETTEMPXCALCNT?CALIBRATION             -----    -----      -----    -----      -----    -----
  +--> ?PR?_TEMP_SETCALCNT?CALIBRATION

?PR?_GETTEMPXCALTEMPVAL?CALIBRATION         -----    -----      -----    -----      -----    -----
  +--> ?PR?_TEMP_RDTEMPVAL?CALIBRATION

?PR?_GETTEMPXCALADCVAL?CALIBRATION          -----    -----      -----    -----      -----    -----
  +--> ?PR?_TEMP_RDADCVAL?CALIBRATION

?PR?_SETTEMPXCALTEMPVAL?CALIBRATION         -----    -----      -----    -----      -----    -----
  +--> ?PR?_TEMP_WRTEMPVAL?CALIBRATION

?PR?_TEMP_WRTEMPVAL?CALIBRATION             -----    -----      0026H    0006H      -----    -----

?PR?_SETTEMPXCALADCVAL?CALIBRATION          -----    -----      -----    -----      -----    -----
  +--> ?PR?_TEMP_WRADCVAL?CALIBRATION

?PR?_TEMP_WRADCVAL?CALIBRATION              -----    -----      0026H    0006H      -----    -----

?PR?_SETTEMPYCALCNT?CALIBRATION             -----    -----      -----    -----      -----    -----
  +--> ?PR?_TEMP_SETCALCNT?CALIBRATION

?PR?_GETTEMPYCALTEMPVAL?CALIBRATION         -----    -----      -----    -----      -----    -----
  +--> ?PR?_TEMP_RDTEMPVAL?CALIBRATION

?PR?_GETTEMPYCALADCVAL?CALIBRATION          -----    -----      -----    -----      -----    -----
  +--> ?PR?_TEMP_RDADCVAL?CALIBRATION

?PR?_SETTEMPYCALTEMPVAL?CALIBRATION         -----    -----      -----    -----      -----    -----
  +--> ?PR?_TEMP_WRTEMPVAL?CALIBRATION

?PR?_SETTEMPYCALADCVAL?CALIBRATION          -----    -----      -----    -----      -----    -----
  +--> ?PR?_TEMP_WRADCVAL?CALIBRATION

?PR?_SETANGXCALCNT?CALIBRATION              -----    -----      -----    -----      -----    -----
BL51 BANKED LINKER/LOCATER V6.22                                                      06/13/2013  10:29:17  PAGE 10


  +--> ?PR?_ANG_SETCALCNT?CALIBRATION

?PR?_GETANGXCALANGVAL?CALIBRATION           -----    -----      -----    -----      -----    -----
  +--> ?PR?_ANG_RDANGVAL?CALIBRATION

?PR?_GETANGXCALADCVAL?CALIBRATION           -----    -----      -----    -----      -----    -----
  +--> ?PR?_ANG_RDADCVAL?CALIBRATION

?PR?_SETANGXCALANGVAL?CALIBRATION           -----    -----      0035H    0005H      -----    -----
  +--> ?PR?_ANG_WRANGVAL?CALIBRATION

?PR?_ANG_WRANGVAL?CALIBRATION               -----    -----      003AH    0008H      -----    -----

?PR?_SETANGXCALADCVAL?CALIBRATION           -----    -----      -----    -----      -----    -----
  +--> ?PR?_ANG_WRADCVAL?CALIBRATION

?PR?_ANG_WRADCVAL?CALIBRATION               -----    -----      0035H    0006H      -----    -----

?PR?_SETANGYCALCNT?CALIBRATION              -----    -----      -----    -----      -----    -----
  +--> ?PR?_ANG_SETCALCNT?CALIBRATION

?PR?_GETANGYCALANGVAL?CALIBRATION           -----    -----      -----    -----      -----    -----
  +--> ?PR?_ANG_RDANGVAL?CALIBRATION

?PR?_GETANGYCALADCVAL?CALIBRATION           -----    -----      -----    -----      -----    -----
  +--> ?PR?_ANG_RDADCVAL?CALIBRATION

?PR?_SETANGYCALANGVAL?CALIBRATION           -----    -----      0035H    0005H      -----    -----
  +--> ?PR?_ANG_WRANGVAL?CALIBRATION

?PR?_SETANGYCALADCVAL?CALIBRATION           -----    -----      -----    -----      -----    -----
  +--> ?PR?_ANG_WRADCVAL?CALIBRATION

?PR?SNXDATAINIT?SENSOR                      -----    -----      -----    -----      -----    -----
  +--> ?PR?_SN_DATAINIT?SENSOR

?PR?_SN_DATAINIT?SENSOR                     -----    -----      0021H    0009H      -----    -----

?PR?_SNXFILTER?SENSOR                       -----    -----      -----    -----      -----    -----
  +--> ?PR?_SNFILTER?SENSOR

?PR?_SNFILTER?SENSOR                        -----    -----      0021H    0006H      -----    -----
  +--> ?PR?_VALINRANGE?FILTER
  +--> ?PR?_FILTER_1ST?FILTER

?PR?_FILTER_1ST?FILTER                      -----    -----      0027H    0007H      -----    -----

?PR?_GETXOFFSET?SENSOR                      -----    -----      -----    -----      -----    -----
  +--> ?PR?_GETOFFSET?SENSOR

?PR?_GETOFFSET?SENSOR                       -----    -----      0021H    0006H      -----    -----

?PR?ANGXCALC?SENSOR                         -----    -----      -----    -----      -----    -----
  +--> ?PR?_ANG_CALC?SENSOR

?PR?_ANG_CALC?SENSOR                        -----    -----      0021H    0007H      -----    -----
  +--> ?PR?_GETANGCALCVAL?SENSOR
BL51 BANKED LINKER/LOCATER V6.22                                                      06/13/2013  10:29:17  PAGE 11


  +--> ?PR?ASIN?ASIN

?PR?_GETANGCALCVAL?SENSOR                   -----    -----      0028H    0006H      -----    -----

?PR?ASIN?ASIN                               -----    -----      -----    -----      -----    -----
  +--> ?PR?SQRT?SQRT
  +--> ?PR?ATAN?ATAN

?PR?SQRT?SQRT                               -----    -----      0046H    0004H      -----    -----

?PR?ATAN?ATAN                               0020H.2  0000H.2    0046H    0004H      -----    -----

?PR?SNYDATAINIT?SENSOR                      -----    -----      -----    -----      -----    -----
  +--> ?PR?_SN_DATAINIT?SENSOR

?PR?_SNYFILTER?SENSOR                       -----    -----      -----    -----      -----    -----
  +--> ?PR?_SNFILTER?SENSOR

?PR?_GETYOFFSET?SENSOR                      -----    -----      -----    -----      -----    -----
  +--> ?PR?_GETOFFSET?SENSOR

?PR?ANGYCALC?SENSOR                         -----    -----      -----    -----      -----    -----
  +--> ?PR?_ANG_CALC?SENSOR

?PR?ADC_INIT?ADCDRV                         -----    -----      -----    -----      -----    -----
  +--> ?PR?ADC_SETINIT?ADCDRV
  +--> ?PR?ADC_VREFINIT?ADCDRV
  +--> ?PR?ADC_ISRINIT?ADCDRV
  +--> ?PR?ADCENTITYINIT?ADCDRV

?PR?FLASH_CALDATAINIT?FLASH                 -----    -----      0021H    0001H      -----    -----
  +--> ?PR?_FLASH_BUFRD?FLASH
  +--> ?PR?FLASHCHK?FLASH
  +--> ?PR?RAM_CALDATAINIT?FLASH
  +--> ?PR?FLASH_CALDATAUPDATE?FLASH
  +--> ?PR?_RAM_BUF2CALDATA?FLASH
  +--> ?PR?_FLASH_CHECKSUM?FLASH
  +--> ?PR?FLASHAREA_USER?FLASH
  +--> ?PR?_FLASH_CALDATAUPDATE_USER?FLASH
  +--> ?PR?GETANGXCALCNT?CALIBRATION
  +--> ?PR?GETANGYCALCNT?CALIBRATION
  +--> ?PR?ADC_XCALSTOP?CMDSUB
  +--> ?PR?ADC_YCALSTOP?CMDSUB
  +--> ?PR?TEMP_CALSTOP?CMDSUB
  +--> ?CO?SEND

?PR?_FLASH_BUFRD?FLASH                      0020H.2  0000H.1    0022H    0009H      -----    -----

?PR?RAM_CALDATAINIT?FLASH                   -----    -----      -----    -----      -----    -----
  +--> ?PR?ANGCALDATAINIT?CALIBRATION
  +--> ?PR?TEMPCALDATAINIT?CALIBRATION

?PR?ANGCALDATAINIT?CALIBRATION              -----    -----      -----    -----      -----    -----
  +--> ?PR?_SETANGCALCNT?CALIBRATION

?PR?_SETANGCALCNT?CALIBRATION               -----    -----      -----    -----      -----    -----
  +--> ?PR?_SETANGXCALCNT?CALIBRATION
BL51 BANKED LINKER/LOCATER V6.22                                                      06/13/2013  10:29:17  PAGE 12


  +--> ?PR?_SETANGYCALCNT?CALIBRATION

?PR?TEMPCALDATAINIT?CALIBRATION             -----    -----      0022H    0001H      -----    -----
  +--> ?PR?_SETTEMPCALCNT?CALIBRATION

?PR?_SETTEMPCALCNT?CALIBRATION              -----    -----      -----    -----      -----    -----
  +--> ?PR?_SETTEMPXCALCNT?CALIBRATION
  +--> ?PR?_SETTEMPYCALCNT?CALIBRATION

?PR?FLASH_CALDATAUPDATE?FLASH               -----    -----      -----    -----      -----    -----
  +--> ?PR?_RAM_CALDATA2BUF?FLASH
  +--> ?PR?_FLASHUPDATE?FLASH

?PR?_RAM_CALDATA2BUF?FLASH                  -----    -----      003EH    0006H      -----    -----
  +--> ?PR?_GETANGXCALANGVAL?CALIBRATION
  +--> ?PR?_GETANGYCALANGVAL?CALIBRATION
  +--> ?PR?_GETANGXCALADCVAL?CALIBRATION
  +--> ?PR?_GETANGYCALADCVAL?CALIBRATION
  +--> ?PR?_GETTEMPXCALTEMPVAL?CALIBRATION
  +--> ?PR?_GETTEMPXCALADCVAL?CALIBRATION
  +--> ?PR?_GETTEMPYCALADCVAL?CALIBRATION
  +--> ?PR?GETANGXCALCNT?CALIBRATION
  +--> ?PR?GETTEMPXCALCNT?CALIBRATION
  +--> ?PR?GETANGXSYSZERO?ANGAPP
  +--> ?PR?GETANGYSYSZERO?ANGAPP
  +--> ?PR?GETFILTERCNT?SENSOR
  +--> ?PR?GETANGXUSRZERO?ANGAPP
  +--> ?PR?GETANGYUSRZERO?ANGAPP
  +--> ?PR?GETANGXINST?ANGAPP
  +--> ?PR?GETANGYINST?ANGAPP
  +--> ?PR?GETANGXSET?ANGAPP
  +--> ?PR?GETANGYSET?ANGAPP
  +--> ?PR?GETANGPSET?ANGAPP
  +--> ?PR?_FLASH_CHECKSUM?FLASH

?PR?_FLASH_CHECKSUM?FLASH                   -----    -----      0044H    0005H      -----    -----

?PR?_FLASHUPDATE?FLASH                      0020H.2  0000H.1    003EH    0007H      -----    -----
  +--> ?PR?_FLASH_PAGEERASE?FLASH
  +--> ?PR?_DELAY_MS?DELAY
  +--> ?PR?_FLASH_BUFWR?FLASH

?PR?_FLASH_PAGEERASE?FLASH                  0020H.3  0000H.1    -----    -----      -----    -----

?PR?_DELAY_MS?DELAY                         -----    -----      -----    -----      -----    -----
  +--> ?PR?DELAY_MS_?DELAY

?PR?DELAY_MS_?DELAY                         -----    -----      -----    -----      -----    -----
  +--> ?PR?DELAY_100US?DELAY

?PR?_FLASH_BUFWR?FLASH                      0020H.3  0000H.1    0045H    000BH      -----    -----

?PR?_RAM_BUF2CALDATA?FLASH                  -----    -----      0022H    0004H      -----    -----
  +--> ?PR?_SETANGXCALANGVAL?CALIBRATION
  +--> ?PR?_SETANGYCALANGVAL?CALIBRATION
  +--> ?PR?_SETANGXCALADCVAL?CALIBRATION
  +--> ?PR?_SETANGYCALADCVAL?CALIBRATION
BL51 BANKED LINKER/LOCATER V6.22                                                      06/13/2013  10:29:17  PAGE 13


  +--> ?PR?_SETTEMPXCALTEMPVAL?CALIBRATION
  +--> ?PR?_SETTEMPXCALADCVAL?CALIBRATION
  +--> ?PR?_SETTEMPYCALADCVAL?CALIBRATION
  +--> ?PR?_SETANGCALCNT?CALIBRATION
  +--> ?PR?_SETTEMPCALCNT?CALIBRATION
  +--> ?PR?_SETANGXSYSZERO?ANGAPP
  +--> ?PR?_SETANGYSYSZERO?ANGAPP
  +--> ?PR?_SETFILTERCNT?SENSOR
  +--> ?PR?_SETANGXUSRZERO?ANGAPP
  +--> ?PR?_SETANGYUSRZERO?ANGAPP
  +--> ?PR?_SETANGXINST?ANGAPP
  +--> ?PR?_SETANGYINST?ANGAPP
  +--> ?PR?_SETANGXSET?ANGAPP
  +--> ?PR?_SETANGYSET?ANGAPP
  +--> ?PR?_SETANGPSET?ANGAPP

?PR?FLASHAREA_USER?FLASH                    -----    -----      -----    -----      -----    -----
  +--> ?PR?_FLASH_BUFRD?FLASH
  +--> ?PR?FLASHCHK?FLASH
  +--> ?PR?_FLASH_CHECKSUM?FLASH
  +--> ?PR?RAM_CALDATAINIT_USER?FLASH
  +--> ?PR?_FLASH_CALDATAUPDATE_USER?FLASH
  +--> ?PR?_RAM_BUF2CALDATA?FLASH

?PR?RAM_CALDATAINIT_USER?FLASH              -----    -----      -----    -----      -----    -----
  +--> ?PR?_SETANGXUSRZERO?ANGAPP
  +--> ?PR?_SETANGYUSRZERO?ANGAPP
  +--> ?PR?_SETANGXSET?ANGAPP
  +--> ?PR?_SETANGYSET?ANGAPP
  +--> ?PR?_SETANGPSET?ANGAPP
  +--> ?PR?_SETANGXINST?ANGAPP
  +--> ?PR?_SETANGYINST?ANGAPP
  +--> ?PR?INIT_SYSTEMPARA?INIT

?PR?_FLASH_CALDATAUPDATE_USER?FLASH         -----    -----      0035H    0009H      -----    -----
  +--> ?PR?_RAM_CALDATA2BUF?FLASH
  +--> ?PR?_FLASHUPDATE?FLASH

?PR?ADC_XCALSTOP?CMDSUB                     -----    -----      002CH    0001H      -----    -----
  +--> ?PR?_SUB_BUFBUBBLE?SUB
  +--> ?PR?ANGXCALCPRM?CALIBRATION

?PR?_SUB_BUFBUBBLE?SUB                      -----    -----      002DH    0009H      -----    -----
  +--> ?PR?_SUB_SBUFSWITCH?SUB
  +--> ?PR?_SUB_UBUFSWITCH?SUB

?PR?_SUB_SBUFSWITCH?SUB                     -----    -----      0036H    0009H      -----    -----

?PR?_SUB_UBUFSWITCH?SUB                     -----    -----      003DH    0007H      -----    -----

?PR?ANGXCALCPRM?CALIBRATION                 -----    -----      -----    -----      -----    -----
  +--> ?PR?_ANG_CALCPRM?CALIBRATION

?PR?_ANG_CALCPRM?CALIBRATION                -----    -----      002DH    000CH      -----    -----
  +--> ?PR?SIN?SIN

?PR?SIN?SIN                                 0020H.2  0000H.1    0046H    0004H      -----    -----
BL51 BANKED LINKER/LOCATER V6.22                                                      06/13/2013  10:29:17  PAGE 14



?PR?ADC_YCALSTOP?CMDSUB                     -----    -----      002CH    0001H      -----    -----
  +--> ?PR?_SUB_BUFBUBBLE?SUB
  +--> ?PR?ANGYCALCPRM?CALIBRATION

?PR?ANGYCALCPRM?CALIBRATION                 -----    -----      -----    -----      -----    -----
  +--> ?PR?_ANG_CALCPRM?CALIBRATION

?PR?TEMP_CALSTOP?CMDSUB                     -----    -----      -----    -----      -----    -----
  +--> ?PR?TEMPSORTANDCALCPRM?CMDSUB

?PR?TEMPSORTANDCALCPRM?CMDSUB               -----    -----      -----    -----      -----    -----
  +--> ?PR?_SUB_BUFBUBBLE2?SUB
  +--> ?PR?TEMPXCALCPRM?CALIBRATION
  +--> ?PR?TEMPYCALCPRM?CALIBRATION

?PR?_SUB_BUFBUBBLE2?SUB                     -----    -----      0031H    000CH      -----    -----
  +--> ?PR?_SUB_UBUFSWITCH?SUB
  +--> ?PR?_SUB_16SBUFSWITCH?SUB

?PR?_SUB_16SBUFSWITCH?SUB                   -----    -----      003DH    0007H      -----    -----

?PR?TEMPXCALCPRM?CALIBRATION                -----    -----      -----    -----      -----    -----
  +--> ?PR?_TEMP_CALCPRM?CALIBRATION

?PR?_TEMP_CALCPRM?CALIBRATION               -----    -----      0031H    0004H      -----    -----

?PR?TEMPYCALCPRM?CALIBRATION                -----    -----      -----    -----      -----    -----
  +--> ?PR?_TEMP_CALCPRM?CALIBRATION

?PR?SNPROC?SENSOR                           -----    -----      -----    -----      -----    -----
  +--> ?PR?ADC_GETXVAL?ADCDRV
  +--> ?PR?GET_MCUTEMP?SENSOR
  +--> ?PR?ADC_GETYVAL?ADCDRV

?PR?GET_MCUTEMP?SENSOR                      -----    -----      -----    -----      -----    -----
  +--> ?PR?ADC_GETTEMP?ADCDRV

?PR?TIMER2_TASKINMAIN?TIMER                 -----    -----      -----    -----      -----    -----
  +--> ?PR?SUB_SENDANGXY?SUB

?PR?SUB_SENDANGXY?SUB                       -----    -----      -----    -----      -----    -----
  +--> ?CO?SUB
  +--> ?PR?_COMM_PUTSTR?COMM
  +--> ?PR?GETXANGALLSETVAL?ANGAPP
  +--> ?PR?_COMM_PUTINT32S?SUB
  +--> ?PR?COMM_PUTNEWLINE?SUB
  +--> ?PR?GETYANGALLSETVAL?ANGAPP
  +--> ?PR?COMM_SENDSTA?COMM

?PR?_COMM_PUTSTR?COMM                       -----    -----      0039H    0003H      -----    -----
  +--> ?PR?_COMM_PUTCHAR?COMM

?PR?_COMM_PUTCHAR?COMM                      -----    -----      003CH    0003H      -----    -----

?PR?GETXANGALLSETVAL?ANGAPP                 -----    -----      0036H    0004H      -----    -----
  +--> ?PR?GETXANG?SENSOR
BL51 BANKED LINKER/LOCATER V6.22                                                      06/13/2013  10:29:17  PAGE 15


  +--> ?PR?_SETANGZERO?ANGAPP
  +--> ?PR?_SETANGZEROADD?ANGAPP

?PR?_SETANGZERO?ANGAPP                      -----    -----      003AH    0004H      -----    -----

?PR?_SETANGZEROADD?ANGAPP                   -----    -----      003AH    0004H      -----    -----

?PR?_COMM_PUTINT32S?SUB                     -----    -----      -----    -----      -----    -----
  +--> ?PR?_SUB_INT32S2STR?SUB
  +--> ?PR?_COMM_PUTSTR?COMM

?PR?_SUB_INT32S2STR?SUB                     -----    -----      002CH    0007H      -----    -----

?PR?COMM_PUTNEWLINE?SUB                     -----    -----      -----    -----      -----    -----
  +--> ?PR?_COMM_PUTCHAR?COMM

?PR?GETYANGALLSETVAL?ANGAPP                 -----    -----      0036H    0004H      -----    -----
  +--> ?PR?GETYANG?SENSOR
  +--> ?PR?_SETANGZERO?ANGAPP
  +--> ?PR?_SETANGZEROADD?ANGAPP

?PR?SEND_TIMEPROC?SEND                      -----    -----      -----    -----      -----    -----
  +--> ?PR?_COMM_GETCHAR?COMM
  +--> ?PR?_MODRTU_RXPROC?MODBUSRTU
  +--> ?PR?_SEND_RDEAL?SEND
  +--> ?PR?_SEND_CDEAL?SEND
  +--> ?PR?_SEND_SDEAL?SEND
  +--> ?PR?_SEND_UDEAL?SEND
  +--> ?PR?_SEND_WDEAL?SEND
  +--> ?PR?_SEND_TDEAL?SEND

?PR?_COMM_GETCHAR?COMM                      -----    -----      0021H    0006H      -----    -----

?PR?_MODRTU_RXPROC?MODBUSRTU                -----    -----      0021H    0004H      -----    -----
  +--> ?PR?_MODRTU_CHKCRC?MODBUSRTU
  +--> ?PR?_MODRTU_RDREG?MODBUSRTU
  +--> ?PR?_MODRTU_WRREG?MODBUSRTU
  +--> ?PR?_MODRTU_RLYERROR?MODBUSRTU

?PR?_MODRTU_CHKCRC?MODBUSRTU                -----    -----      -----    -----      -----    -----
  +--> ?PR?_MODBUSCRCCNT?MODBUSCRC

?PR?_MODBUSCRCCNT?MODBUSCRC                 -----    -----      0034H    0003H      -----    -----
  +--> ?CO?MODBUSCRC

?PR?_MODRTU_RDREG?MODBUSRTU                 -----    -----      0025H    000CH      -----    -----
  +--> ?PR?_MODRTU_8TO16?MODBUSRTU
  +--> ?PR?_MODRTU_RDVAL?MODBUSRTU
  +--> ?PR?_MODRTU_RLYERROR?MODBUSRTU
  +--> ?PR?_MODBUSCRCCNT?MODBUSCRC
  +--> ?PR?_MODRTU_WRCRC?MODBUSRTU
  +--> ?PR?_COMM_PUTSTR?COMM
  +--> ?PR?COMM_SENDSTA?COMM

?PR?_MODRTU_RDVAL?MODBUSRTU                 -----    -----      0031H    0005H      0B57H    0004H
  +--> ?PR?GETXANGALLSETVAL?ANGAPP
  +--> ?PR?GETYANGALLSETVAL?ANGAPP
BL51 BANKED LINKER/LOCATER V6.22                                                      06/13/2013  10:29:17  PAGE 16


  +--> ?PR?GETANGP?ANGAPP
  +--> ?PR?GETANGXINST?ANGAPP
  +--> ?PR?GETANGYINST?ANGAPP
  +--> ?PR?GETANGXSET?ANGAPP
  +--> ?PR?GETANGYSET?ANGAPP
  +--> ?PR?GETANGPSET?ANGAPP
  +--> ?PR?GET_MCUTEMP?SENSOR
  +--> ?PR?_GETTEMPXCALTEMPVAL?CALIBRATION
  +--> ?PR?_GETTEMPXCALADCVAL?CALIBRATION
  +--> ?PR?_GETTEMPYCALADCVAL?CALIBRATION
  +--> ?PR?GETXOFTVAL?SENSOR
  +--> ?PR?_FLOATTOINT?MODBUSRTU
  +--> ?PR?_GETANGXCALADCVAL?CALIBRATION
  +--> ?PR?_GETANGXCALANGVAL?CALIBRATION
  +--> ?PR?GETYOFTVAL?SENSOR
  +--> ?PR?_GETANGYCALADCVAL?CALIBRATION
  +--> ?PR?_GETANGYCALANGVAL?CALIBRATION
  +--> ?PR?GETXFTVAL?SENSOR
  +--> ?PR?GETYFTVAL?SENSOR
  +--> ?PR?GETXANG?SENSOR
  +--> ?PR?GETYANG?SENSOR
  +--> ?PR?GETANGXRELSYS?ANGAPP
  +--> ?PR?GETANGYRELSYS?ANGAPP
  +--> ?PR?GETANGXZEROUSR?ANGAPP
  +--> ?PR?GETANGYZEROUSR?ANGAPP
  +--> ?PR?GETANGXSYSZERO?ANGAPP
  +--> ?PR?GETANGYSYSZERO?ANGAPP
  +--> ?PR?GETANGXUSRZERO?ANGAPP
  +--> ?PR?GETANGYUSRZERO?ANGAPP
  +--> ?PR?GETANGXCALCNT?CALIBRATION
  +--> ?PR?GETTEMPXCALCNT?CALIBRATION
  +--> ?PR?GETFILTERCNT?SENSOR
  +--> ?PR?_MODRTU_RD16U?MODBUSRTU

?PR?GETANGP?ANGAPP                          -----    -----      -----    -----      -----    -----
  +--> ?PR?GETXANGALLSETVAL?ANGAPP
  +--> ?PR?GETYANGALLSETVAL?ANGAPP
  +--> ?PR?_PANGCALC?ANGAPP

?PR?_PANGCALC?ANGAPP                        -----    -----      0036H    0010H      -----    -----
  +--> ?PR?SIN?SIN
  +--> ?PR?SQRT?SQRT
  +--> ?PR?ASIN?ASIN

?PR?_FLOATTOINT?MODBUSRTU                   -----    -----      0036H    000CH      -----    -----

?PR?_MODRTU_RLYERROR?MODBUSRTU              -----    -----      0031H    0003H      -----    -----
  +--> ?PR?_MODBUSCRCCNT?MODBUSCRC
  +--> ?PR?_COMM_PUTSTR?COMM
  +--> ?PR?COMM_SENDSTA?COMM

?PR?_MODRTU_WRREG?MODBUSRTU                 -----    -----      0025H    000BH      -----    -----
  +--> ?PR?_MODRTU_8TO16?MODBUSRTU
  +--> ?PR?_MODRTU_WRVAL?MODBUSRTU
  +--> ?PR?_MODRTU_RLYERROR?MODBUSRTU
  +--> ?PR?_MODBUSCRCCNT?MODBUSCRC
  +--> ?PR?_MODRTU_WRCRC?MODBUSRTU
BL51 BANKED LINKER/LOCATER V6.22                                                      06/13/2013  10:29:17  PAGE 17


  +--> ?PR?_COMM_PUTSTR?COMM
  +--> ?PR?COMM_SENDSTA?COMM
  +--> ?PR?FLASH_USERDATAUPDATE?FLASH

?PR?_MODRTU_WRVAL?MODBUSRTU                 -----    -----      0030H    0005H      0B57H    0008H
  +--> ?PR?_MODRTU_WR16U?MODBUSRTU
  +--> ?PR?_SETANGXINST?ANGAPP
  +--> ?PR?_SETANGYINST?ANGAPP
  +--> ?PR?_SETANGXSET?ANGAPP
  +--> ?PR?_SETANGYSET?ANGAPP
  +--> ?PR?_SETANGPSET?ANGAPP
  +--> ?PR?_MODRTU_SETZERO?MODBUSRTU
  +--> ?PR?_MODRTU_WRADDR?MODBUSRTU
  +--> ?PR?_MODRTU_WRBAUD?MODBUSRTU
  +--> ?PR?GETANGXRELSYS?ANGAPP
  +--> ?PR?_SETANGXUSRZERO?ANGAPP
  +--> ?PR?FLASH_USERDATAUPDATE?FLASH
  +--> ?PR?_SETANGCALCNT?CALIBRATION
  +--> ?PR?GETANGXCALCNT?CALIBRATION
  +--> ?PR?_SETANGXCALANGVAL?CALIBRATION
  +--> ?PR?GETXOFTVAL?SENSOR
  +--> ?PR?_SETANGXCALADCVAL?CALIBRATION
  +--> ?PR?_SETANGYCALANGVAL?CALIBRATION
  +--> ?PR?GETYOFTVAL?SENSOR
  +--> ?PR?_SETANGYCALADCVAL?CALIBRATION
  +--> ?PR?FLASH_CALDATAUPDATE?FLASH
  +--> ?PR?GETXANG?SENSOR
  +--> ?PR?_SETANGXSYSZERO?ANGAPP
  +--> ?PR?GETYANG?SENSOR
  +--> ?PR?_SETANGYSYSZERO?ANGAPP
  +--> ?PR?GETANGYRELSYS?ANGAPP
  +--> ?PR?_SETANGYUSRZERO?ANGAPP
  +--> ?PR?_SETFILTERCNT?SENSOR

?PR?_MODRTU_SETZERO?MODBUSRTU               -----    -----      0035H    0002H      -----    -----
  +--> ?PR?_MODRTU_8TO16?MODBUSRTU
  +--> ?PR?GETANGXRELSYS?ANGAPP
  +--> ?PR?_SETANGXUSRZERO?ANGAPP
  +--> ?PR?GETANGYRELSYS?ANGAPP
  +--> ?PR?_SETANGYUSRZERO?ANGAPP

?PR?FLASH_USERDATAUPDATE?FLASH              -----    -----      -----    -----      -----    -----
  +--> ?PR?_FLASH_CALDATAUPDATE_USER?FLASH

?PR?_SEND_RDEAL?SEND                        -----    -----      0021H    0005H      -----    -----
  +--> ?CO?SEND
  +--> ?PR?_STRNCMP?STRNCMP
  +--> ?PR?SUB_SENDPRMTALL?SUB
  +--> ?PR?SUB_SENDANGXYP?SUB
  +--> ?PR?SUB_SENDANGXY?SUB
  +--> ?PR?SUB_SENDSOFTVER?SUB
  +--> ?PR?SUB_SENDSYSNUM?SUB
  +--> ?PR?SUB_SENDID?SUB
  +--> ?PR?_SUB_STR2INT8U?SUB
  +--> ?PR?_SUB_SENDTEMPCAL?SUB
  +--> ?PR?_COMM_PUTSTR?COMM
  +--> ?PR?GETANGXINST?ANGAPP
BL51 BANKED LINKER/LOCATER V6.22                                                      06/13/2013  10:29:17  PAGE 18


  +--> ?PR?GETANGYINST?ANGAPP
  +--> ?PR?_SUB_SENDOFFSET?SUB
  +--> ?PR?_SUB_SENDANGXCAL?SUB
  +--> ?PR?_SUB_SENDANGYCAL?SUB
  +--> ?PR?SUB_SENDERR?SUB

?PR?_STRNCMP?STRNCMP                        -----    -----      002CH    0008H      -----    -----

?PR?SUB_SENDPRMTALL?SUB                     -----    -----      -----    -----      -----    -----
  +--> ?CO?SUB
  +--> ?PR?_COMM_PUTSTR?COMM
  +--> ?PR?GET_MCUTEMP?SENSOR
  +--> ?PR?_COMM_PUTINT16U?SUB
  +--> ?PR?GETXFTVAL?SENSOR
  +--> ?PR?_COMM_PUTCHAR?COMM
  +--> ?PR?GETXOFTVAL?SENSOR
  +--> ?PR?GETXANG?SENSOR
  +--> ?PR?_COMM_PUTINT32S?SUB
  +--> ?PR?GETYFTVAL?SENSOR
  +--> ?PR?GETYOFTVAL?SENSOR
  +--> ?PR?GETYANG?SENSOR
  +--> ?PR?COMM_PUTNEWLINE?SUB
  +--> ?PR?COMM_SENDSTA?COMM

?PR?_COMM_PUTINT16U?SUB                     -----    -----      -----    -----      -----    -----
  +--> ?PR?_SUB_INT16U2STR?SUB
  +--> ?PR?_COMM_PUTSTR?COMM

?PR?_SUB_INT16U2STR?SUB                     -----    -----      0039H    0005H      -----    -----

?PR?SUB_SENDANGXYP?SUB                      -----    -----      -----    -----      -----    -----
  +--> ?CO?SUB
  +--> ?PR?_COMM_PUTSTR?COMM
  +--> ?PR?GETXANGALLSETVAL?ANGAPP
  +--> ?PR?_COMM_PUTINT32S?SUB
  +--> ?PR?COMM_PUTNEWLINE?SUB
  +--> ?PR?GETYANGALLSETVAL?ANGAPP
  +--> ?PR?GETANGP?ANGAPP
  +--> ?PR?COMM_SENDSTA?COMM

?PR?SUB_SENDSOFTVER?SUB                     -----    -----      -----    -----      -----    -----
  +--> ?CO?SUB
  +--> ?PR?_COMM_PUTSTR?COMM
  +--> ?PR?COMM_PUTNEWLINE?SUB
  +--> ?PR?COMM_SENDSTA?COMM

?PR?SUB_SENDSYSNUM?SUB                      -----    -----      -----    -----      -----    -----
  +--> ?CO?SUB
  +--> ?PR?_COMM_PUTSTR?COMM
  +--> ?PR?COMM_PUTNEWLINE?SUB
  +--> ?PR?COMM_SENDSTA?COMM

?PR?SUB_SENDID?SUB                          -----    -----      -----    -----      -----    -----
  +--> ?PR?_COMM_PUTINT16U?SUB
  +--> ?PR?_COMM_PUTCHAR?COMM
  +--> ?PR?GETANGXCALCNT?CALIBRATION
  +--> ?PR?GETTEMPXCALCNT?CALIBRATION
BL51 BANKED LINKER/LOCATER V6.22                                                      06/13/2013  10:29:17  PAGE 19


  +--> ?PR?COMM_PUTNEWLINE?SUB
  +--> ?PR?COMM_SENDSTA?COMM

?PR?_SUB_SENDTEMPCAL?SUB                    -----    -----      0026H    0001H      -----    -----
  +--> ?CO?SUB
  +--> ?PR?_COMM_PUTSTR?COMM
  +--> ?PR?_COMM_PUTINT8U?SUB
  +--> ?PR?_COMM_PUTCHAR?COMM
  +--> ?PR?_GETTEMPXCALTEMPVAL?CALIBRATION
  +--> ?PR?_COMM_PUTINT16U?SUB
  +--> ?PR?_GETTEMPXCALADCVAL?CALIBRATION
  +--> ?PR?_COMM_PUTINT16S?SUB
  +--> ?PR?_GETTEMPYCALADCVAL?CALIBRATION
  +--> ?PR?COMM_PUTNEWLINE?SUB
  +--> ?PR?COMM_SENDSTA?COMM

?PR?_COMM_PUTINT8U?SUB                      -----    -----      -----    -----      -----    -----
  +--> ?PR?_SUB_INT8U2STR?SUB
  +--> ?PR?_COMM_PUTSTR?COMM

?PR?_COMM_PUTINT16S?SUB                     -----    -----      -----    -----      -----    -----
  +--> ?PR?_SUB_INT16S2STR?SUB
  +--> ?PR?_COMM_PUTSTR?COMM

?PR?_SUB_INT16S2STR?SUB                     -----    -----      -----    -----      -----    -----
  +--> ?PR?_SUB_INT16U2STR?SUB

?PR?_SUB_SENDOFFSET?SUB                     -----    -----      -----    -----      -----    -----
  +--> ?PR?_COMM_PUTINT32S?SUB
  +--> ?PR?COMM_PUTNEWLINE?SUB
  +--> ?PR?COMM_SENDSTA?COMM

?PR?_SUB_SENDANGXCAL?SUB                    -----    -----      0026H    0001H      -----    -----
  +--> ?CO?SUB
  +--> ?PR?_COMM_PUTSTR?COMM
  +--> ?PR?_COMM_PUTINT8U?SUB
  +--> ?PR?_GETANGXCALADCVAL?CALIBRATION
  +--> ?PR?_COMM_PUTINT16U?SUB
  +--> ?PR?_COMM_PUTINT16S?SUB
  +--> ?PR?COMM_PUTNEWLINE?SUB
  +--> ?PR?COMM_SENDSTA?COMM

?PR?_SUB_SENDANGYCAL?SUB                    -----    -----      0026H    0001H      -----    -----
  +--> ?CO?SUB
  +--> ?PR?_COMM_PUTSTR?COMM
  +--> ?PR?_COMM_PUTINT8U?SUB
  +--> ?PR?_COMM_PUTCHAR?COMM
  +--> ?PR?_GETANGYCALADCVAL?CALIBRATION
  +--> ?PR?_COMM_PUTINT16U?SUB
  +--> ?PR?_COMM_PUTINT16S?SUB
  +--> ?PR?COMM_SENDSTA?COMM

?PR?SUB_SENDERR?SUB                         -----    -----      -----    -----      -----    -----
  +--> ?CO?SUB
  +--> ?PR?_COMM_PUTSTR?COMM
  +--> ?PR?COMM_PUTNEWLINE?SUB
  +--> ?PR?COMM_SENDSTA?COMM
BL51 BANKED LINKER/LOCATER V6.22                                                      06/13/2013  10:29:17  PAGE 20



?PR?_SEND_CDEAL?SEND                        -----    -----      0021H    0004H      -----    -----
  +--> ?CO?SEND
  +--> ?PR?_STRNCMP?STRNCMP
  +--> ?PR?SUB_SENDERR?SUB
  +--> ?PR?_SETANGXSYSZERO?ANGAPP
  +--> ?PR?_SETANGYSYSZERO?ANGAPP
  +--> ?PR?_COMM_PUTSTR?COMM
  +--> ?PR?SUB_SENDOK?SUB
  +--> ?PR?_SETANGXUSRZERO?ANGAPP
  +--> ?PR?ADC_XCALSTA?CMDSUB
  +--> ?PR?ADC_XCALSTOP?CMDSUB
  +--> ?PR?ADC_YCALSTA?CMDSUB
  +--> ?PR?ADC_YCALSTOP?CMDSUB
  +--> ?PR?_SETANGYUSRZERO?ANGAPP
  +--> ?PR?TEMP_CALSTA?CMDSUB
  +--> ?PR?TEMP_CALSTOP?CMDSUB

?PR?SUB_SENDOK?SUB                          -----    -----      -----    -----      -----    -----
  +--> ?CO?SUB
  +--> ?PR?_COMM_PUTSTR?COMM
  +--> ?PR?COMM_PUTNEWLINE?SUB
  +--> ?PR?COMM_SENDSTA?COMM

?PR?_SEND_SDEAL?SEND                        -----    -----      0021H    000BH      -----    -----
  +--> ?CO?SEND
  +--> ?PR?_STRNCMP?STRNCMP
  +--> ?PR?_COMM_PUTSTR?COMM
  +--> ?PR?SUB_SENDOK?SUB
  +--> ?PR?SUB_SENDERR?SUB
  +--> ?PR?SUB_SENDANGXY?SUB
  +--> ?PR?_SUB_STR2INT8U?SUB
  +--> ?PR?_SETFILTERCNT?SENSOR
  +--> ?PR?GETXANG?SENSOR
  +--> ?PR?_SETANGXSYSZERO?ANGAPP
  +--> ?PR?GETYANG?SENSOR
  +--> ?PR?_SETANGYSYSZERO?ANGAPP
  +--> ?PR?GETANGXRELSYS?ANGAPP
  +--> ?PR?_SETANGXUSRZERO?ANGAPP
  +--> ?PR?GETANGYRELSYS?ANGAPP
  +--> ?PR?_SETANGYUSRZERO?ANGAPP
  +--> ?PR?_SUB_STR2INT32S?SUB
  +--> ?PR?_SETANGXINST?ANGAPP
  +--> ?PR?_SETANGYINST?ANGAPP
  +--> ?PR?_SETANGCALCNT?CALIBRATION
  +--> ?PR?_SETTEMPCALCNT?CALIBRATION
  +--> ?PR?GETXOFTVAL?SENSOR
  +--> ?PR?_ADC_XCALPROC?CMDSUB
  +--> ?PR?_COMM_PUTCHAR?COMM
  +--> ?PR?GETANGXCALCNT?CALIBRATION
  +--> ?PR?_ANGCHKDIFF?CMDSUB
  +--> ?PR?_COMM_PUTINT16U?SUB
  +--> ?PR?ADC_XCALSTOP?CMDSUB
  +--> ?PR?GETYOFTVAL?SENSOR
  +--> ?PR?_ADC_YCALPROC?CMDSUB
  +--> ?PR?ADC_YCALSTOP?CMDSUB
  +--> ?PR?GET_MCUTEMP?SENSOR
BL51 BANKED LINKER/LOCATER V6.22                                                      06/13/2013  10:29:17  PAGE 21


  +--> ?PR?_TEMP_CALSAMP?CMDSUB
  +--> ?PR?_TEMP_CALTREFSET?CMDSUB
  +--> ?PR?_SETANGXSET?ANGAPP
  +--> ?PR?_SETANGYSET?ANGAPP
  +--> ?PR?_SETANGPSET?ANGAPP
  +--> ?PR?_SUB_STRALARMCHECK?SUB
  +--> ?PR?_DELAY_MS?DELAY
  +--> ?PR?SUB_SYSRST?SUB

?PR?_SUB_STR2INT32S?SUB                     -----    -----      002CH    000AH      -----    -----

?PR?_ADC_XCALPROC?CMDSUB                    -----    -----      002CH    0006H      -----    -----
  +--> ?PR?_ANGCHKDIFF?CMDSUB

?PR?_ANGCHKDIFF?CMDSUB                      -----    -----      0032H    000EH      -----    -----

?PR?_ADC_YCALPROC?CMDSUB                    -----    -----      002CH    0006H      -----    -----
  +--> ?PR?_ANGCHKDIFF?CMDSUB

?PR?_TEMP_CALSAMP?CMDSUB                    -----    -----      002CH    0007H      -----    -----
  +--> ?PR?_TEMP_CALVALWR?CMDSUB
  +--> ?PR?_SUB_SENDADCTXY?SUB

?PR?_TEMP_CALVALWR?CMDSUB                   -----    -----      0033H    0007H      -----    -----

?PR?_SUB_SENDADCTXY?SUB                     -----    -----      0033H    0006H      -----    -----
  +--> ?CO?SUB
  +--> ?PR?_COMM_PUTSTR?COMM
  +--> ?PR?_COMM_PUTINT16U?SUB
  +--> ?PR?COMM_PUTNEWLINE?SUB
  +--> ?PR?COMM_SENDSTA?COMM

?PR?_TEMP_CALTREFSET?CMDSUB                 -----    -----      002CH    0005H      -----    -----
  +--> ?PR?TEMP_CALSTOP?CMDSUB

?PR?_SUB_STRALARMCHECK?SUB                  -----    -----      002CH    0006H      -----    -----

?PR?_SEND_UDEAL?SEND                        -----    -----      0021H    0004H      -----    -----
  +--> ?CO?SEND
  +--> ?PR?_STRNCMP?STRNCMP
  +--> ?PR?FLASH_CALDATAUPDATE?FLASH
  +--> ?PR?FLASH_USERDATAUPDATE?FLASH
  +--> ?PR?_COMM_PUTSTR?COMM
  +--> ?PR?SUB_SENDOK?SUB
  +--> ?PR?SUB_SENDERR?SUB

?PR?_SEND_WDEAL?SEND                        -----    -----      0021H    000AH      -----    -----
  +--> ?CO?SEND
  +--> ?PR?_STRNCMP?STRNCMP
  +--> ?PR?_SUB_STR2INT16S?SUB
  +--> ?PR?_SUB_STR2INT16U?SUB
  +--> ?PR?_SUB_STR2INT8U?SUB
  +--> ?PR?_TEMP_CALVALWR?CMDSUB
  +--> ?PR?SUB_SENDERR?SUB
  +--> ?PR?_STRNCPY?STRNCPY
  +--> ?PR?_COMM_PUTSTR?COMM
  +--> ?PR?SUB_SENDOK?SUB
BL51 BANKED LINKER/LOCATER V6.22                                                      06/13/2013  10:29:17  PAGE 22



?PR?_SUB_STR2INT16S?SUB                     -----    -----      002BH    0008H      -----    -----
  +--> ?PR?_SUB_STR2INT16U?SUB

?PR?_SUB_STR2INT16U?SUB                     -----    -----      0033H    0006H      -----    -----

?PR?_STRNCPY?STRNCPY                        -----    -----      002BH    000AH      -----    -----

?PR?_SEND_TDEAL?SEND                        -----    -----      0021H    0001H      -----    -----
  +--> ?CO?SEND
  +--> ?PR?_STRNCMP?STRNCMP
  +--> ?PR?SUB_SENDTCALTEST?SUB

?PR?SUB_SENDTCALTEST?SUB                    -----    -----      0022H    0004H      -----    -----
  +--> ?PR?GET_MCUTEMP?SENSOR
  +--> ?PR?_COMM_PUTINT16U?SUB
  +--> ?PR?_COMM_PUTCHAR?COMM
  +--> ?PR?_COMM_PUTINT16S?SUB
  +--> ?PR?COMM_PUTNEWLINE?SUB
  +--> ?PR?COMM_SENDSTA?COMM

?PR?KEY_PROC?KEY                            -----    -----      -----    -----      -----    -----
  +--> ?PR?KEY_DOWN?KEY
  +--> ?PR?GETANGXRELSYS?ANGAPP
  +--> ?PR?_SETANGXUSRZERO?ANGAPP
  +--> ?PR?GETANGYRELSYS?ANGAPP
  +--> ?PR?_SETANGYUSRZERO?ANGAPP
  +--> ?CO?KEY
  +--> ?PR?_COMM_PUTSTR?COMM
  +--> ?PR?SUB_SENDOK?SUB
  +--> ?PR?FLASH_USERDATAUPDATE?FLASH

?PR?KEY_DOWN?KEY                            -----    -----      -----    -----      -----    -----
  +--> ?PR?_DELAY_CYC?DELAY

?PR?ANGPROC?ANGAPP                          -----    -----      0021H    0008H      -----    -----
  +--> ?PR?GETXANGALLSETVAL?ANGAPP
  +--> ?PR?_ALARMX?ANGAPP
  +--> ?PR?GETYANGALLSETVAL?ANGAPP
  +--> ?PR?_ALARMY?ANGAPP
  +--> ?PR?_PANGCALC?ANGAPP
  +--> ?PR?_ALARMS?ANGAPP

*** NEW ROOT ***************************************************

?PR?ADC_ISR?ADCDRV                          -----    -----      -----    -----      -----    -----
  +--> ?PR?_ADC_SAVEANDSWITCH?ADCDRV

?PR?_ADC_SAVEANDSWITCH?ADCDRV               -----    -----      0050H    0003H      -----    -----
  +--> ?CO?ADCDRV
  +--> ?PR?_ADCFILTER?ADCDRV

?PR?_ADCFILTER?ADCDRV                       -----    -----      0053H    0005H      -----    -----
  +--> ?PR?_VALINRANGE?FILTER
  +--> ?PR?_SLIDEWINFILTER?FILTER

?PR?_SLIDEWINFILTER?FILTER                  -----    -----      0058H    0012H      -----    -----
BL51 BANKED LINKER/LOCATER V6.22                                                      06/13/2013  10:29:17  PAGE 23



*** NEW ROOT ***************************************************

?PR?COMM_ISR?COMM                           -----    -----      006AH    0002H      -----    -----
  +--> ?PR?_COMM_GETTXCHAR?COMM
  +--> ?PR?COMM_SENDSTOP?COMM
  +--> ?PR?_COMM_PUTRXCHAR?COMM
  +--> ?PR?COMM_TIMERINIT?COMM

?PR?_COMM_GETTXCHAR?COMM                    -----    -----      006CH    0006H      -----    -----

?PR?_COMM_PUTRXCHAR?COMM                    -----    -----      006CH    0003H      -----    -----

*** NEW ROOT ***************************************************

?PR?TIMER2_ISR?TIMER                        -----    -----      -----    -----      -----    -----
  +--> ?PR?TIMER2_TASKINISR?TIMER

?PR?TIMER2_TASKINISR?TIMER                  -----    -----      -----    -----      -----    -----
  +--> ?PR?COMM_TIMERPROC?COMM
  +--> ?CO?SEND



SYMBOL TABLE OF MODULE:  .\obj\164-0001-20130607 (?C_STARTUP)

  VALUE           TYPE          NAME
  ----------------------------------

  -------         MODULE        ?C_STARTUP
  C:592FH         SEGMENT       ?C_C51STARTUP
  I:0072H         SEGMENT       ?STACK
  C:0000H         PUBLIC        ?C_STARTUP
  D:00E0H         SYMBOL        ACC
  D:00F0H         SYMBOL        B
  D:0083H         SYMBOL        DPH
  D:0082H         SYMBOL        DPL
  N:0000H         SYMBOL        IBPSTACK
  N:0100H         SYMBOL        IBPSTACKTOP
  N:0080H         SYMBOL        IDATALEN
  C:5932H         SYMBOL        IDATALOOP
  N:0000H         SYMBOL        PBPSTACK
  N:0100H         SYMBOL        PBPSTACKTOP
  N:0000H         SYMBOL        PDATALEN
  N:0000H         SYMBOL        PDATASTART
  N:0000H         SYMBOL        PPAGE
  N:0000H         SYMBOL        PPAGEENABLE
  D:00A0H         SYMBOL        PPAGE_SFR
  D:0081H         SYMBOL        SP
  C:592FH         SYMBOL        STARTUP1
  N:0000H         SYMBOL        XBPSTACK
  N:0000H         SYMBOL        XBPSTACKTOP
  N:0000H         SYMBOL        XDATALEN
  N:0000H         SYMBOL        XDATASTART
  C:0000H         LINE#         126
  C:592FH         LINE#         133
  C:5931H         LINE#         134
BL51 BANKED LINKER/LOCATER V6.22                                                      06/13/2013  10:29:17  PAGE 24


  C:5932H         LINE#         135
  C:5933H         LINE#         136
  C:5935H         LINE#         185
  C:5938H         LINE#         196
  -------         ENDMOD        ?C_STARTUP

  -------         MODULE        ADCDRV
  C:0000H         SYMBOL        _ICE_DUMMY_
  C:73E8H         PUBLIC        Adc_Init
  D:00A0H         PUBLIC        P2
  D:00BCH         PUBLIC        ADC0CF
  D:00E6H         PUBLIC        EIE1
  C:6056H         SYMBOL        _Adc_SaveAndSwitch
  C:74E3H         PUBLIC        Adc_GetXVal
  C:74ECH         PUBLIC        Adc_GetYVal
  D:00E8H         PUBLIC        ADC0CN
  D:00A7H         PUBLIC        SFRPAGE
  C:75F1H         SYMBOL        Adc_VrefInit
  C:5472H         PUBLIC        Adc_Isr
  X:0858H         PUBLIC        x_axis_adc
  X:08E0H         PUBLIC        y_axis_adc
  D:00BBH         PUBLIC        ADC0MX
  D:00D1H         PUBLIC        REF0CN
  C:6669H         SYMBOL        AdcEntityInit
  B:00E8H.5       PUBLIC        AD0INT
  C:74F5H         PUBLIC        Adc_GetTemp
  C:6D42H         SYMBOL        Adc_SetInit
  I:0018H         PUBLIC        AdcSwitchId
  C:75F5H         SYMBOL        Adc_IsrInit
  C:0026H         PUBLIC        Adc_Enable
  I:0019H         PUBLIC        AdcEndTag
  D:00BEH         PUBLIC        ADC0H
  X:0968H         PUBLIC        temp_adc
  D:00BDH         PUBLIC        ADC0L
  I:001AH         PUBLIC        AdcEndId
  C:705FH         SYMBOL        PinIdTab
  C:5A47H         SYMBOL        _AdcFilter
  D:00BDH         PUBLIC        ADC0
  C:706CH         SYMBOL        PinMuxTab
  -------         PROC          ADC_INIT
  C:73E8H         LINE#         45
  C:73E8H         LINE#         46
  C:73E8H         LINE#         47
  C:73EBH         LINE#         48
  C:73EEH         LINE#         49
  C:73F1H         LINE#         50
  -------         ENDPROC       ADC_INIT
  -------         PROC          ADC_ENABLE
  C:0026H         LINE#         53
  C:0026H         LINE#         54
  C:0026H         LINE#         55
  C:0029H         LINE#         56
  -------         ENDPROC       ADC_ENABLE
  -------         PROC          ADC_GETXVAL
  C:74E3H         LINE#         64
  C:74E3H         LINE#         65
  C:74E3H         LINE#         66
BL51 BANKED LINKER/LOCATER V6.22                                                      06/13/2013  10:29:17  PAGE 25


  C:74EBH         LINE#         67
  -------         ENDPROC       ADC_GETXVAL
  -------         PROC          ADC_GETYVAL
  C:74ECH         LINE#         75
  C:74ECH         LINE#         76
  C:74ECH         LINE#         77
  C:74F4H         LINE#         78
  -------         ENDPROC       ADC_GETYVAL
  -------         PROC          ADC_GETTEMP
  C:74F5H         LINE#         86
  C:74F5H         LINE#         87
  C:74F5H         LINE#         88
  C:74FDH         LINE#         89
  -------         ENDPROC       ADC_GETTEMP
  -------         PROC          ADC_SETINIT
  -------         DO            
  D:0007H         SYMBOL        SfrPage_
  -------         ENDDO         
  C:6D42H         LINE#         110
  C:6D42H         LINE#         111
  C:6D44H         LINE#         114
  C:6D47H         LINE#         115
  C:6D4AH         LINE#         116
  C:6D4DH         LINE#         117
  C:6D50H         LINE#         118
  C:6D53H         LINE#         119
  C:6D56H         LINE#         120
  C:6D59H         LINE#         121
  C:6D5CH         LINE#         122
  C:6D5FH         LINE#         123
  C:6D62H         LINE#         124
  C:6D65H         LINE#         125
  C:6D67H         LINE#         126
  C:6D6AH         LINE#         127
  C:6D6DH         LINE#         128
  C:6D6FH         LINE#         129
  -------         ENDPROC       ADC_SETINIT
  -------         PROC          ADC_VREFINIT
  C:75F1H         LINE#         131
  C:75F1H         LINE#         132
  C:75F1H         LINE#         133
  C:75F4H         LINE#         134
  -------         ENDPROC       ADC_VREFINIT
  -------         PROC          ADC_ISRINIT
  C:75F5H         LINE#         136
  C:75F5H         LINE#         137
  C:75F5H         LINE#         138
  C:75F8H         LINE#         139
  -------         ENDPROC       ADC_ISRINIT
  -------         PROC          _ADCFILTER
  D:0053H         SYMBOL        p_adc
  D:0056H         SYMBOL        val
  C:5A47H         LINE#         148
  C:5A51H         LINE#         149
  C:5A51H         LINE#         150
  C:5A66H         LINE#         151
  C:5A66H         LINE#         153
BL51 BANKED LINKER/LOCATER V6.22                                                      06/13/2013  10:29:17  PAGE 26


  C:5AB5H         LINE#         154
  C:5AB5H         LINE#         156
  C:5AB5H         LINE#         157
  C:5AC4H         LINE#         158
  C:5ACBH         LINE#         159
  C:5ACBH         LINE#         160
  -------         ENDPROC       _ADCFILTER
  -------         PROC          ADCENTITYINIT
  C:6669H         LINE#         218
  C:6669H         LINE#         219
  C:6669H         LINE#         221
  C:666EH         LINE#         222
  C:6670H         LINE#         223
  C:6672H         LINE#         224
  C:6678H         LINE#         226
  C:6683H         LINE#         228
  C:6687H         LINE#         229
  C:668AH         LINE#         230
  C:668CH         LINE#         231
  C:6692H         LINE#         233
  C:669DH         LINE#         235
  C:66A1H         LINE#         236
  C:66A4H         LINE#         237
  C:66A6H         LINE#         238
  C:66ACH         LINE#         240
  C:66B5H         LINE#         248
  -------         ENDPROC       ADCENTITYINIT
  -------         PROC          _ADC_SAVEANDSWITCH
  D:0004H         SYMBOL        val
  -------         DO            
  D:0050H         SYMBOL        adc_ent
  -------         ENDDO         
  C:6056H         LINE#         264
  C:605AH         LINE#         265
  C:605AH         LINE#         267
  C:6063H         LINE#         271
  C:606BH         LINE#         272
  C:606BH         LINE#         273
  C:607FH         LINE#         274
  C:607FH         LINE#         275
  C:608BH         LINE#         276
  C:608DH         LINE#         277
  C:6095H         LINE#         279
  C:609EH         LINE#         281
  C:60A8H         LINE#         282
  C:60ABH         LINE#         284
  C:60B1H         LINE#         285
  C:60BAH         LINE#         286
  C:60BDH         LINE#         287
  -------         ENDPROC       _ADC_SAVEANDSWITCH
  -------         PROC          ADC_ISR
  -------         DO            
  X:0852H         SYMBOL        sum
  X:0856H         SYMBOL        cnt
  -------         ENDDO         
  C:5472H         LINE#         295
  C:548FH         LINE#         300
BL51 BANKED LINKER/LOCATER V6.22                                                      06/13/2013  10:29:17  PAGE 27


  C:5491H         LINE#         301
  C:54B8H         LINE#         302
  C:54CBH         LINE#         303
  C:54CBH         LINE#         304
  C:54E5H         LINE#         305
  C:54EFH         LINE#         306
  C:54F6H         LINE#         307
  C:54F8H         LINE#         309
  C:54FBH         LINE#         310
  -------         ENDPROC       ADC_ISR
  -------         ENDMOD        ADCDRV

  -------         MODULE        ANGAPP
  C:0000H         SYMBOL        _ICE_DUMMY_
  C:75A3H         PUBLIC        _SetAngYUsrZero
  C:6825H         PUBLIC        GetXAngAllSetVal
  C:686BH         PUBLIC        GetYAngAllSetVal
  D:00A0H         PUBLIC        P2
  C:7591H         PUBLIC        _SetAngXSysZero
  C:7597H         PUBLIC        _SetAngYSysZero
  B:00A0H.5       PUBLIC        LED_S
  C:6C15H         PUBLIC        GetAngP
  B:00A0H.7       PUBLIC        LED_X
  B:00A0H.6       PUBLIC        LED_Y
  X:0AFAH         SYMBOL        angp
  C:2FABH         PUBLIC        AngProc
  C:55BAH         PUBLIC        AngInit
  X:0AFEH         SYMBOL        angx_usrzero
  X:0B02H         SYMBOL        angy_usrzero
  C:72FDH         PUBLIC        GetAngXInst
  C:730CH         PUBLIC        GetAngYInst
  X:0B06H         SYMBOL        angx_syszero
  X:0B0AH         SYMBOL        angy_syszero
  C:7339H         PUBLIC        GetAngPSet
  C:75A9H         PUBLIC        _SetAngXInst
  C:75AFH         PUBLIC        _SetAngYInst
  C:731BH         PUBLIC        GetAngXSet
  C:732AH         PUBLIC        GetAngYSet
  C:6F9AH         PUBLIC        _AlarmS
  C:75C1H         PUBLIC        _SetAngPSet
  C:6F5EH         PUBLIC        _AlarmX
  C:6F7CH         PUBLIC        _AlarmY
  C:75B5H         PUBLIC        _SetAngXSet
  C:75BBH         PUBLIC        _SetAngYSet
  X:0B0EH         SYMBOL        angx_inst
  X:0B12H         SYMBOL        angy_inst
  X:0B16H         SYMBOL        angp_set
  C:4E05H         SYMBOL        _PAngCalc
  X:0B1AH         SYMBOL        angx_set
  X:0B1EH         SYMBOL        angy_set
  C:6D7DH         PUBLIC        _SetAngZero
  C:7348H         PUBLIC        GetAngXZeroUsr
  C:72DFH         PUBLIC        GetAngXUsrZero
  C:7357H         PUBLIC        GetAngYZeroUsr
  C:72EEH         PUBLIC        GetAngYUsrZero
  C:6DD2H         PUBLIC        _SetAngZeroAdd
  X:0B22H         SYMBOL        BufZerox_usr
BL51 BANKED LINKER/LOCATER V6.22                                                      06/13/2013  10:29:17  PAGE 28


  C:72C1H         PUBLIC        GetAngXSysZero
  X:0B26H         SYMBOL        BufZeroy_usr
  C:72D0H         PUBLIC        GetAngYSysZero
  C:7366H         PUBLIC        GetAngXRelSys
  C:7375H         PUBLIC        GetAngYRelSys
  X:0B2AH         SYMBOL        BufZerox_sys
  X:0B2EH         SYMBOL        BufZeroy_sys
  C:759DH         PUBLIC        _SetAngXUsrZero
  -------         PROC          ANGINIT
  C:55BAH         LINE#         41
  C:55BAH         LINE#         42
  C:55BAH         LINE#         43
  C:55BDH         LINE#         45
  C:55C7H         LINE#         47
  C:55D2H         LINE#         48
  C:55DDH         LINE#         49
  C:55E8H         LINE#         50
  C:55F3H         LINE#         51
  C:55FEH         LINE#         52
  C:5609H         LINE#         53
  C:5614H         LINE#         54
  C:561FH         LINE#         55
  C:562AH         LINE#         57
  C:5634H         LINE#         58
  C:563EH         LINE#         59
  C:5648H         LINE#         60
  C:5652H         LINE#         62
  -------         ENDPROC       ANGINIT
  -------         PROC          _PANGCALC
  D:0004H         SYMBOL        angx
  D:003AH         SYMBOL        angy
  -------         DO            
  D:003EH         SYMBOL        x
  D:0004H         SYMBOL        y
  D:0042H         SYMBOL        s
  -------         ENDDO         
  C:4E05H         LINE#         70
  C:4E05H         LINE#         71
  C:4E05H         LINE#         74
  C:4E11H         LINE#         75
  C:4E2FH         LINE#         76
  C:4E3AH         LINE#         77
  C:4E4DH         LINE#         79
  C:4E59H         LINE#         80
  C:4E6FH         LINE#         81
  C:4E72H         LINE#         82
  C:4E7DH         LINE#         84
  C:4E93H         LINE#         85
  C:4EA7H         LINE#         86
  C:4EA7H         LINE#         87
  C:4EB0H         LINE#         88
  C:4EB0H         LINE#         89
  C:4ED9H         LINE#         90
  C:4EDCH         LINE#         91
  -------         ENDPROC       _PANGCALC
  -------         PROC          GETANGP
  C:6C15H         LINE#         99
BL51 BANKED LINKER/LOCATER V6.22                                                      06/13/2013  10:29:17  PAGE 29


  C:6C15H         LINE#         100
  C:6C15H         LINE#         102
  C:6C3CH         LINE#         103
  C:6C4AH         LINE#         104
  -------         ENDPROC       GETANGP
  -------         PROC          GETANGXSYSZERO
  C:72C1H         LINE#         106
  C:72C1H         LINE#         107
  C:72C1H         LINE#         108
  C:72CFH         LINE#         109
  -------         ENDPROC       GETANGXSYSZERO
  -------         PROC          GETANGYSYSZERO
  C:72D0H         LINE#         110
  C:72D0H         LINE#         111
  C:72D0H         LINE#         112
  C:72DEH         LINE#         113
  -------         ENDPROC       GETANGYSYSZERO
  -------         PROC          GETANGXUSRZERO
  C:72DFH         LINE#         114
  C:72DFH         LINE#         115
  C:72DFH         LINE#         116
  C:72EDH         LINE#         117
  -------         ENDPROC       GETANGXUSRZERO
  -------         PROC          GETANGYUSRZERO
  C:72EEH         LINE#         118
  C:72EEH         LINE#         119
  C:72EEH         LINE#         120
  C:72FCH         LINE#         121
  -------         ENDPROC       GETANGYUSRZERO
  -------         PROC          GETANGXINST
  C:72FDH         LINE#         123
  C:72FDH         LINE#         124
  C:72FDH         LINE#         125
  C:730BH         LINE#         126
  -------         ENDPROC       GETANGXINST
  -------         PROC          GETANGYINST
  C:730CH         LINE#         127
  C:730CH         LINE#         128
  C:730CH         LINE#         129
  C:731AH         LINE#         130
  -------         ENDPROC       GETANGYINST
  -------         PROC          GETANGXSET
  C:731BH         LINE#         132
  C:731BH         LINE#         133
  C:731BH         LINE#         134
  C:7329H         LINE#         135
  -------         ENDPROC       GETANGXSET
  -------         PROC          GETANGYSET
  C:732AH         LINE#         136
  C:732AH         LINE#         137
  C:732AH         LINE#         138
  C:7338H         LINE#         139
  -------         ENDPROC       GETANGYSET
  -------         PROC          GETANGPSET
  C:7339H         LINE#         140
  C:7339H         LINE#         141
  C:7339H         LINE#         142
BL51 BANKED LINKER/LOCATER V6.22                                                      06/13/2013  10:29:17  PAGE 30


  C:7347H         LINE#         143
  -------         ENDPROC       GETANGPSET
  -------         PROC          GETANGXZEROUSR
  C:7348H         LINE#         145
  C:7348H         LINE#         146
  C:7348H         LINE#         147
  C:7356H         LINE#         148
  -------         ENDPROC       GETANGXZEROUSR
  -------         PROC          GETANGYZEROUSR
  C:7357H         LINE#         149
  C:7357H         LINE#         150
  C:7357H         LINE#         151
  C:7365H         LINE#         152
  -------         ENDPROC       GETANGYZEROUSR
  -------         PROC          GETANGXRELSYS
  C:7366H         LINE#         154
  C:7366H         LINE#         155
  C:7366H         LINE#         156
  C:7374H         LINE#         157
  -------         ENDPROC       GETANGXRELSYS
  -------         PROC          GETANGYRELSYS
  C:7375H         LINE#         158
  C:7375H         LINE#         159
  C:7375H         LINE#         160
  C:7383H         LINE#         161
  -------         ENDPROC       GETANGYRELSYS
  -------         PROC          _SETANGXSYSZERO
  D:0004H         SYMBOL        zore
  C:7591H         LINE#         170
  C:7591H         LINE#         171
  C:7591H         LINE#         172
  -------         ENDPROC       _SETANGXSYSZERO
  -------         PROC          _SETANGYSYSZERO
  D:0004H         SYMBOL        zore
  C:7597H         LINE#         174
  C:7597H         LINE#         175
  C:7597H         LINE#         176
  -------         ENDPROC       _SETANGYSYSZERO
  -------         PROC          _SETANGXUSRZERO
  D:0004H         SYMBOL        zore
  C:759DH         LINE#         179
  C:759DH         LINE#         180
  C:759DH         LINE#         181
  -------         ENDPROC       _SETANGXUSRZERO
  -------         PROC          _SETANGYUSRZERO
  D:0004H         SYMBOL        zore
  C:75A3H         LINE#         183
  C:75A3H         LINE#         184
  C:75A3H         LINE#         185
  -------         ENDPROC       _SETANGYUSRZERO
  -------         PROC          _SETANGXINST
  D:0004H         SYMBOL        ang_inst
  C:75A9H         LINE#         188
  C:75A9H         LINE#         189
  C:75A9H         LINE#         190
  -------         ENDPROC       _SETANGXINST
  -------         PROC          _SETANGYINST
BL51 BANKED LINKER/LOCATER V6.22                                                      06/13/2013  10:29:17  PAGE 31


  D:0004H         SYMBOL        ang_inst
  C:75AFH         LINE#         192
  C:75AFH         LINE#         193
  C:75AFH         LINE#         194
  -------         ENDPROC       _SETANGYINST
  -------         PROC          _SETANGXSET
  D:0004H         SYMBOL        ang_set
  C:75B5H         LINE#         197
  C:75B5H         LINE#         198
  C:75B5H         LINE#         199
  -------         ENDPROC       _SETANGXSET
  -------         PROC          _SETANGYSET
  D:0004H         SYMBOL        ang_set
  C:75BBH         LINE#         201
  C:75BBH         LINE#         202
  C:75BBH         LINE#         203
  -------         ENDPROC       _SETANGYSET
  -------         PROC          _SETANGPSET
  D:0004H         SYMBOL        ang_set
  C:75C1H         LINE#         205
  C:75C1H         LINE#         206
  C:75C1H         LINE#         207
  -------         ENDPROC       _SETANGPSET
  C:6D72H         SYMBOL        L?0071
  -------         PROC          L?0070
  -------         ENDPROC       L?0070
  C:6D72H         SYMBOL        L?0071
  -------         PROC          _SETANGZERO
  D:0001H         SYMBOL        angval
  D:003AH         SYMBOL        setval
  C:6D7DH         LINE#         218
  C:6D85H         LINE#         219
  C:6D85H         LINE#         220
  -------         ENDPROC       _SETANGZERO
  -------         PROC          L?0072
  -------         ENDPROC       L?0072
  -------         PROC          _SETANGZEROADD
  D:0001H         SYMBOL        angval
  D:003AH         SYMBOL        setval
  C:6DD2H         LINE#         223
  C:6DDAH         LINE#         224
  C:6DDAH         LINE#         225
  -------         ENDPROC       _SETANGZEROADD
  -------         PROC          GETXANGALLSETVAL
  -------         DO            
  D:0036H         SYMBOL        tmp
  -------         ENDDO         
  C:6825H         LINE#         234
  C:6825H         LINE#         235
  C:6825H         LINE#         237
  C:6830H         LINE#         238
  C:683AH         LINE#         239
  C:6848H         LINE#         240
  C:684EH         LINE#         241
  C:685CH         LINE#         242
  C:6862H         LINE#         243
  C:686AH         LINE#         245
BL51 BANKED LINKER/LOCATER V6.22                                                      06/13/2013  10:29:17  PAGE 32


  -------         ENDPROC       GETXANGALLSETVAL
  -------         PROC          GETYANGALLSETVAL
  -------         DO            
  D:0036H         SYMBOL        tmp
  -------         ENDDO         
  C:686BH         LINE#         253
  C:686BH         LINE#         254
  C:686BH         LINE#         256
  C:6876H         LINE#         257
  C:6880H         LINE#         258
  C:688EH         LINE#         259
  C:6894H         LINE#         260
  C:68A2H         LINE#         261
  C:68A8H         LINE#         262
  C:68B0H         LINE#         263
  -------         ENDPROC       GETYANGALLSETVAL
  -------         PROC          _ALARMX
  D:0007H         SYMBOL        vol
  C:6F5EH         LINE#         272
  C:6F5EH         LINE#         273
  C:6F5EH         LINE#         274
  C:6F6AH         LINE#         275
  C:6F6AH         LINE#         276
  C:6F6DH         LINE#         277
  C:6F6DH         LINE#         278
  C:6F6FH         LINE#         279
  C:6F70H         LINE#         281
  C:6F70H         LINE#         282
  C:6F72H         LINE#         283
  C:6F72H         LINE#         284
  C:6F73H         LINE#         286
  C:6F73H         LINE#         287
  C:6F76H         LINE#         288
  C:6F76H         LINE#         289
  C:6F78H         LINE#         290
  C:6F79H         LINE#         292
  C:6F79H         LINE#         293
  C:6F7BH         LINE#         294
  C:6F7BH         LINE#         295
  C:6F7BH         LINE#         296
  -------         ENDPROC       _ALARMX
  -------         PROC          _ALARMY
  D:0007H         SYMBOL        vol
  C:6F7CH         LINE#         300
  C:6F7CH         LINE#         301
  C:6F7CH         LINE#         302
  C:6F88H         LINE#         303
  C:6F88H         LINE#         304
  C:6F8BH         LINE#         305
  C:6F8BH         LINE#         306
  C:6F8DH         LINE#         307
  C:6F8EH         LINE#         309
  C:6F8EH         LINE#         310
  C:6F90H         LINE#         311
  C:6F90H         LINE#         312
  C:6F91H         LINE#         314
  C:6F91H         LINE#         315
BL51 BANKED LINKER/LOCATER V6.22                                                      06/13/2013  10:29:17  PAGE 33


  C:6F94H         LINE#         316
  C:6F94H         LINE#         317
  C:6F96H         LINE#         318
  C:6F97H         LINE#         320
  C:6F97H         LINE#         321
  C:6F99H         LINE#         322
  C:6F99H         LINE#         323
  C:6F99H         LINE#         324
  -------         ENDPROC       _ALARMY
  -------         PROC          _ALARMS
  D:0007H         SYMBOL        vol
  C:6F9AH         LINE#         328
  C:6F9AH         LINE#         329
  C:6F9AH         LINE#         330
  C:6FA6H         LINE#         331
  C:6FA6H         LINE#         332
  C:6FA9H         LINE#         333
  C:6FA9H         LINE#         334
  C:6FABH         LINE#         335
  C:6FACH         LINE#         337
  C:6FACH         LINE#         338
  C:6FAEH         LINE#         339
  C:6FAEH         LINE#         340
  C:6FAFH         LINE#         342
  C:6FAFH         LINE#         343
  C:6FB2H         LINE#         344
  C:6FB2H         LINE#         345
  C:6FB4H         LINE#         346
  C:6FB5H         LINE#         348
  C:6FB5H         LINE#         349
  C:6FB7H         LINE#         350
  C:6FB7H         LINE#         351
  C:6FB7H         LINE#         352
  -------         ENDPROC       _ALARMS
  -------         PROC          ANGPROC
  -------         DO            
  D:0021H         SYMBOL        data_x
  D:0025H         SYMBOL        data_y
  -------         ENDDO         
  C:2FABH         LINE#         355
  C:2FABH         LINE#         356
  C:2FABH         LINE#         364
  C:2FB6H         LINE#         365
  C:301FH         LINE#         366
  C:301FH         LINE#         367
  C:3021H         LINE#         368
  C:3023H         LINE#         369
  C:3090H         LINE#         370
  C:3090H         LINE#         371
  C:3095H         LINE#         372
  C:3095H         LINE#         375
  C:30A0H         LINE#         376
  C:3109H         LINE#         377
  C:3109H         LINE#         378
  C:310BH         LINE#         379
  C:310DH         LINE#         380
  C:317AH         LINE#         381
BL51 BANKED LINKER/LOCATER V6.22                                                      06/13/2013  10:29:17  PAGE 34


  C:317AH         LINE#         382
  C:317FH         LINE#         383
  C:317FH         LINE#         386
  C:31A6H         LINE#         387
  C:31E0H         LINE#         388
  C:31E0H         LINE#         389
  C:31E2H         LINE#         390
  C:31E4H         LINE#         391
  C:321FH         LINE#         392
  C:321FH         LINE#         393
  C:3224H         LINE#         394
  C:3224H         LINE#         396
  -------         ENDPROC       ANGPROC
  -------         ENDMOD        ANGAPP

  -------         MODULE        CALIBRATION
  C:0000H         SYMBOL        _ICE_DUMMY_
  C:73BFH         SYMBOL        _Ang_WrAngVal
  C:7572H         PUBLIC        _SetAngCalCnt
  C:756AH         PUBLIC        _SetTempCalCnt
  C:70C1H         SYMBOL        _Temp_WrTempVal
  X:0000H         PUBLIC        Ang_Xcal
  D:00A0H         PUBLIC        P2
  X:0166H         PUBLIC        Ang_Ycal
  X:02CCH         PUBLIC        Temp_Xcal
  X:03A9H         PUBLIC        Temp_Ycal
  C:7510H         PUBLIC        AngXCalcPrm
  C:7519H         PUBLIC        AngYCalcPrm
  C:74FEH         PUBLIC        TempXCalcPrm
  C:7507H         PUBLIC        TempYCalcPrm
  C:3C4FH         SYMBOL        _Ang_CalcPrm
  C:40A0H         SYMBOL        _Temp_CalcPrm
  C:42F8H         PUBLIC        AngCalDataInit
  C:62B5H         PUBLIC        TempCalDataInit
  C:75CDH         PUBLIC        GetAngXCalCnt
  C:75D3H         PUBLIC        GetAngYCalCnt
  C:75C7H         PUBLIC        GetTempXCalCnt
  C:7430H         PUBLIC        _GetAngXCalAdcVal
  C:7448H         PUBLIC        _GetAngYCalAdcVal
  C:7424H         PUBLIC        _GetTempXCalAdcVal
  C:743CH         PUBLIC        _GetTempYCalAdcVal
  X:0486H         SYMBOL        temp_buf
  C:7483H         PUBLIC        _SetAngXCalCnt
  C:7499H         PUBLIC        _SetAngYCalCnt
  C:7478H         PUBLIC        _SetTempXCalCnt
  C:748EH         PUBLIC        _SetTempYCalCnt
  C:725BH         SYMBOL        _Ang_RdAdcVal
  C:75FDH         SYMBOL        _Ang_SetCalCnt
  C:7239H         SYMBOL        _Temp_RdAdcVal
  C:75F9H         SYMBOL        _Temp_SetCalCnt
  C:719EH         PUBLIC        _SetAngXCalAdcVal
  C:71C8H         PUBLIC        _SetAngYCalAdcVal
  C:7189H         PUBLIC        _SetTempXCalAdcVal
  C:71B3H         PUBLIC        _SetTempYCalAdcVal
  C:7400H         PUBLIC        _GetAngXCalAngVal
  C:7418H         PUBLIC        _GetAngYCalAngVal
  C:73F4H         PUBLIC        _GetTempXCalTempVal
BL51 BANKED LINKER/LOCATER V6.22                                                      06/13/2013  10:29:17  PAGE 35


  C:740CH         PUBLIC        _GetTempYCalTempVal
  C:73B1H         SYMBOL        _Ang_RdAngVal
  C:70AAH         SYMBOL        _Temp_RdTempVal
  C:7454H         PUBLIC        _SetAngXCalAngVal
  C:7460H         PUBLIC        _SetAngYCalAngVal
  C:715FH         PUBLIC        _SetTempXCalTempVal
  C:726CH         SYMBOL        _Ang_WrAdcVal
  C:7174H         PUBLIC        _SetTempYCalTempVal
  C:724AH         SYMBOL        _Temp_WrAdcVal
  C:4534H         PUBLIC        CalibInit
  -------         PROC          _TEMP_SETCALCNT
  D:0001H         SYMBOL        p_cal
  D:0005H         SYMBOL        num
  C:75F9H         LINE#         36
  C:75F9H         LINE#         37
  C:75F9H         LINE#         38
  -------         ENDPROC       _TEMP_SETCALCNT
  -------         PROC          _TEMP_RDTEMPVAL
  D:0001H         SYMBOL        p_cal
  D:0005H         SYMBOL        posid
  C:70AAH         LINE#         48
  C:70AAH         LINE#         49
  C:70AAH         LINE#         50
  C:70C0H         LINE#         51
  -------         ENDPROC       _TEMP_RDTEMPVAL
  -------         PROC          _TEMP_RDADCVAL
  D:0001H         SYMBOL        p_cal
  D:0005H         SYMBOL        posid
  C:7239H         LINE#         60
  C:7239H         LINE#         61
  C:7239H         LINE#         62
  C:7249H         LINE#         63
  -------         ENDPROC       _TEMP_RDADCVAL
  -------         PROC          _TEMP_WRTEMPVAL
  D:0001H         SYMBOL        p_cal
  D:0004H         SYMBOL        val
  D:002BH         SYMBOL        posid
  C:70C1H         LINE#         72
  C:70C1H         LINE#         73
  C:70C1H         LINE#         74
  -------         ENDPROC       _TEMP_WRTEMPVAL
  -------         PROC          _TEMP_WRADCVAL
  D:0001H         SYMBOL        p_cal
  D:0004H         SYMBOL        val
  D:002BH         SYMBOL        posid
  C:724AH         LINE#         84
  C:724AH         LINE#         85
  C:724AH         LINE#         86
  -------         ENDPROC       _TEMP_WRADCVAL
  -------         PROC          _TEMP_CALCPRM
  D:0031H         SYMBOL        p_cal
  -------         DO            
  D:0034H         SYMBOL        i
  -------         ENDDO         
  C:40A0H         LINE#         96
  C:40A6H         LINE#         97
  C:40A6H         LINE#         99
BL51 BANKED LINKER/LOCATER V6.22                                                      06/13/2013  10:29:17  PAGE 36


  C:40BDH         LINE#         100
  C:40BDH         LINE#         101
  C:4150H         LINE#         102
  C:41CAH         LINE#         103
  C:41CFH         LINE#         104
  -------         ENDPROC       _TEMP_CALCPRM
  -------         PROC          _ANG_SETCALCNT
  D:0001H         SYMBOL        p_cal
  D:0005H         SYMBOL        num
  C:75FDH         LINE#         113
  C:75FDH         LINE#         114
  C:75FDH         LINE#         115
  -------         ENDPROC       _ANG_SETCALCNT
  -------         PROC          _ANG_RDANGVAL
  D:0001H         SYMBOL        p_cal
  D:0005H         SYMBOL        posid
  C:73B1H         LINE#         124
  C:73B1H         LINE#         125
  C:73B1H         LINE#         126
  C:73BEH         LINE#         127
  -------         ENDPROC       _ANG_RDANGVAL
  -------         PROC          _ANG_RDADCVAL
  D:0001H         SYMBOL        p_cal
  D:0005H         SYMBOL        posid
  C:725BH         LINE#         136
  C:725BH         LINE#         137
  C:725BH         LINE#         138
  C:726BH         LINE#         139
  -------         ENDPROC       _ANG_RDADCVAL
  -------         PROC          _ANG_WRANGVAL
  D:0001H         SYMBOL        p_cal
  D:0004H         SYMBOL        val
  D:0041H         SYMBOL        posid
  C:73BFH         LINE#         147
  C:73BFH         LINE#         148
  C:73BFH         LINE#         149
  -------         ENDPROC       _ANG_WRANGVAL
  -------         PROC          _ANG_WRADCVAL
  D:0001H         SYMBOL        p_cal
  D:0004H         SYMBOL        val
  D:003AH         SYMBOL        posid
  C:726CH         LINE#         159
  C:726CH         LINE#         160
  C:726CH         LINE#         161
  -------         ENDPROC       _ANG_WRADCVAL
  -------         PROC          _ANG_CALCPRM
  D:002DH         SYMBOL        p_cal
  -------         DO            
  D:0030H         SYMBOL        ang0
  D:0034H         SYMBOL        ang1
  D:0038H         SYMBOL        i
  -------         ENDDO         
  C:3C4FH         LINE#         171
  C:3C55H         LINE#         172
  C:3C55H         LINE#         177
  C:3C6CH         LINE#         178
  C:3C6CH         LINE#         179
BL51 BANKED LINKER/LOCATER V6.22                                                      06/13/2013  10:29:17  PAGE 37


  C:3C9CH         LINE#         180
  C:3CD6H         LINE#         181
  C:3D61H         LINE#         182
  C:3DCDH         LINE#         183
  C:3DD2H         LINE#         184
  -------         ENDPROC       _ANG_CALCPRM
  -------         PROC          GETTEMPXCALCNT
  C:75C7H         LINE#         194
  C:75C7H         LINE#         195
  C:75C7H         LINE#         196
  C:75CCH         LINE#         197
  -------         ENDPROC       GETTEMPXCALCNT
  -------         PROC          GETANGXCALCNT
  C:75CDH         LINE#         199
  C:75CDH         LINE#         200
  C:75CDH         LINE#         201
  C:75D2H         LINE#         202
  -------         ENDPROC       GETANGXCALCNT
  -------         PROC          GETANGYCALCNT
  C:75D3H         LINE#         209
  C:75D3H         LINE#         210
  C:75D3H         LINE#         211
  C:75D8H         LINE#         212
  -------         ENDPROC       GETANGYCALCNT
  -------         PROC          _SETTEMPXCALCNT
  D:0005H         SYMBOL        cnt
  C:7478H         LINE#         222
  C:747AH         LINE#         223
  C:747AH         LINE#         224
  -------         ENDPROC       _SETTEMPXCALCNT
  -------         PROC          _SETANGXCALCNT
  D:0005H         SYMBOL        cnt
  C:7483H         LINE#         227
  C:7485H         LINE#         228
  C:7485H         LINE#         229
  -------         ENDPROC       _SETANGXCALCNT
  -------         PROC          _SETTEMPYCALCNT
  D:0005H         SYMBOL        cnt
  C:748EH         LINE#         232
  C:7490H         LINE#         233
  C:7490H         LINE#         234
  -------         ENDPROC       _SETTEMPYCALCNT
  -------         PROC          _SETANGYCALCNT
  D:0005H         SYMBOL        cnt
  C:7499H         LINE#         237
  C:749BH         LINE#         238
  C:749BH         LINE#         239
  -------         ENDPROC       _SETANGYCALCNT
  -------         PROC          _SETTEMPCALCNT
  D:0006H         SYMBOL        cnt
  C:756AH         LINE#         242
  C:756CH         LINE#         243
  C:756CH         LINE#         244
  C:756FH         LINE#         245
  -------         ENDPROC       _SETTEMPCALCNT
  -------         PROC          _SETANGCALCNT
  D:0006H         SYMBOL        cnt
BL51 BANKED LINKER/LOCATER V6.22                                                      06/13/2013  10:29:17  PAGE 38


  C:7572H         LINE#         248
  C:7574H         LINE#         249
  C:7574H         LINE#         250
  C:7577H         LINE#         251
  -------         ENDPROC       _SETANGCALCNT
  -------         PROC          _GETTEMPXCALTEMPVAL
  D:0005H         SYMBOL        pos
  C:73F4H         LINE#         263
  C:73F6H         LINE#         264
  C:73F6H         LINE#         265
  C:73FFH         LINE#         266
  -------         ENDPROC       _GETTEMPXCALTEMPVAL
  -------         PROC          _GETANGXCALANGVAL
  D:0005H         SYMBOL        pos
  C:7400H         LINE#         273
  C:7402H         LINE#         274
  C:7402H         LINE#         275
  C:740BH         LINE#         276
  -------         ENDPROC       _GETANGXCALANGVAL
  -------         PROC          _GETTEMPYCALTEMPVAL
  D:0005H         SYMBOL        pos
  C:740CH         LINE#         284
  C:740EH         LINE#         285
  C:740EH         LINE#         286
  C:7417H         LINE#         287
  -------         ENDPROC       _GETTEMPYCALTEMPVAL
  -------         PROC          _GETANGYCALANGVAL
  D:0005H         SYMBOL        pos
  C:7418H         LINE#         294
  C:741AH         LINE#         295
  C:741AH         LINE#         296
  C:7423H         LINE#         297
  -------         ENDPROC       _GETANGYCALANGVAL
  -------         PROC          _GETTEMPXCALADCVAL
  D:0005H         SYMBOL        pos
  C:7424H         LINE#         305
  C:7426H         LINE#         306
  C:7426H         LINE#         307
  C:742FH         LINE#         308
  -------         ENDPROC       _GETTEMPXCALADCVAL
  -------         PROC          _GETANGXCALADCVAL
  D:0005H         SYMBOL        pos
  C:7430H         LINE#         315
  C:7432H         LINE#         316
  C:7432H         LINE#         317
  C:743BH         LINE#         318
  -------         ENDPROC       _GETANGXCALADCVAL
  -------         PROC          _GETTEMPYCALADCVAL
  D:0005H         SYMBOL        pos
  C:743CH         LINE#         325
  C:743EH         LINE#         326
  C:743EH         LINE#         327
  C:7447H         LINE#         328
  -------         ENDPROC       _GETTEMPYCALADCVAL
  -------         PROC          _GETANGYCALADCVAL
  D:0005H         SYMBOL        pos
  C:7448H         LINE#         335
BL51 BANKED LINKER/LOCATER V6.22                                                      06/13/2013  10:29:17  PAGE 39


  C:744AH         LINE#         336
  C:744AH         LINE#         337
  C:7453H         LINE#         338
  -------         ENDPROC       _GETANGYCALADCVAL
  -------         PROC          _SETTEMPXCALTEMPVAL
  D:0082H         SYMBOL        val
  D:0007H         SYMBOL        pos
  C:715FH         LINE#         350
  C:7165H         LINE#         351
  C:7165H         LINE#         352
  -------         ENDPROC       _SETTEMPXCALTEMPVAL
  -------         PROC          _SETANGXCALANGVAL
  D:0004H         SYMBOL        val
  D:0039H         SYMBOL        pos
  C:7454H         LINE#         360
  C:7454H         LINE#         361
  C:7454H         LINE#         362
  -------         ENDPROC       _SETANGXCALANGVAL
  -------         PROC          _SETTEMPYCALTEMPVAL
  D:0082H         SYMBOL        val
  D:0007H         SYMBOL        pos
  C:7174H         LINE#         370
  C:717AH         LINE#         371
  C:717AH         LINE#         372
  -------         ENDPROC       _SETTEMPYCALTEMPVAL
  -------         PROC          _SETANGYCALANGVAL
  D:0004H         SYMBOL        val
  D:0039H         SYMBOL        pos
  C:7460H         LINE#         380
  C:7460H         LINE#         381
  C:7460H         LINE#         382
  -------         ENDPROC       _SETANGYCALANGVAL
  -------         PROC          _SETTEMPXCALADCVAL
  D:0082H         SYMBOL        val
  D:0007H         SYMBOL        pos
  C:7189H         LINE#         391
  C:718FH         LINE#         392
  C:718FH         LINE#         393
  -------         ENDPROC       _SETTEMPXCALADCVAL
  -------         PROC          _SETANGXCALADCVAL
  D:0082H         SYMBOL        val
  D:0007H         SYMBOL        pos
  C:719EH         LINE#         402
  C:71A4H         LINE#         403
  C:71A4H         LINE#         404
  -------         ENDPROC       _SETANGXCALADCVAL
  -------         PROC          _SETTEMPYCALADCVAL
  D:0082H         SYMBOL        val
  D:0007H         SYMBOL        pos
  C:71B3H         LINE#         412
  C:71B9H         LINE#         413
  C:71B9H         LINE#         414
  -------         ENDPROC       _SETTEMPYCALADCVAL
  -------         PROC          _SETANGYCALADCVAL
  D:0082H         SYMBOL        val
  D:0007H         SYMBOL        pos
  C:71C8H         LINE#         422
BL51 BANKED LINKER/LOCATER V6.22                                                      06/13/2013  10:29:17  PAGE 40


  C:71CEH         LINE#         423
  C:71CEH         LINE#         424
  -------         ENDPROC       _SETANGYCALADCVAL
  -------         PROC          TEMPXCALCPRM
  C:74FEH         LINE#         431
  C:74FEH         LINE#         432
  C:74FEH         LINE#         433
  -------         ENDPROC       TEMPXCALCPRM
  -------         PROC          TEMPYCALCPRM
  C:7507H         LINE#         438
  C:7507H         LINE#         439
  C:7507H         LINE#         440
  -------         ENDPROC       TEMPYCALCPRM
  -------         PROC          ANGXCALCPRM
  C:7510H         LINE#         447
  C:7510H         LINE#         448
  C:7510H         LINE#         449
  -------         ENDPROC       ANGXCALCPRM
  -------         PROC          ANGYCALCPRM
  C:7519H         LINE#         455
  C:7519H         LINE#         456
  C:7519H         LINE#         457
  -------         ENDPROC       ANGYCALCPRM
  -------         PROC          TEMPCALDATAINIT
  -------         DO            
  D:0022H         SYMBOL        i
  -------         ENDDO         
  C:62B5H         LINE#         467
  C:62B5H         LINE#         468
  C:62B5H         LINE#         470
  C:62BAH         LINE#         471
  C:62BDH         LINE#         472
  C:62BDH         LINE#         473
  C:62ECH         LINE#         474
  C:62FDH         LINE#         475
  C:630EH         LINE#         476
  C:6315H         LINE#         477
  -------         ENDPROC       TEMPCALDATAINIT
  -------         PROC          ANGCALDATAINIT
  -------         DO            
  D:0003H         SYMBOL        i
  -------         ENDDO         
  C:42F8H         LINE#         486
  C:42F8H         LINE#         487
  C:42F8H         LINE#         489
  C:42FDH         LINE#         490
  C:42FFH         LINE#         491
  C:42FFH         LINE#         492
  C:4323H         LINE#         493
  C:434AH         LINE#         495
  C:436EH         LINE#         496
  C:4395H         LINE#         497
  C:439EH         LINE#         499
  C:43A8H         LINE#         500
  C:43B2H         LINE#         501
  C:43BCH         LINE#         502
  C:43C6H         LINE#         503
BL51 BANKED LINKER/LOCATER V6.22                                                      06/13/2013  10:29:17  PAGE 41


  C:43D0H         LINE#         504
  C:43DAH         LINE#         506
  C:43E4H         LINE#         507
  C:43EEH         LINE#         508
  C:43F8H         LINE#         509
  C:4402H         LINE#         510
  C:440CH         LINE#         511
  C:4416H         LINE#         513
  -------         ENDPROC       ANGCALDATAINIT
  -------         PROC          CALIBINIT
  C:4534H         LINE#         521
  C:4534H         LINE#         522
  C:4534H         LINE#         523
  C:4542H         LINE#         524
  C:4550H         LINE#         525
  C:455CH         LINE#         526
  C:4568H         LINE#         527
  C:4574H         LINE#         528
  C:4580H         LINE#         531
  C:458EH         LINE#         532
  C:459CH         LINE#         533
  C:45A8H         LINE#         534
  C:45B4H         LINE#         535
  C:45C0H         LINE#         536
  C:45CCH         LINE#         539
  C:45DAH         LINE#         540
  C:45E6H         LINE#         541
  C:45F2H         LINE#         542
  C:45FEH         LINE#         543
  C:460AH         LINE#         546
  C:4618H         LINE#         547
  C:4624H         LINE#         548
  C:4630H         LINE#         549
  C:463CH         LINE#         550
  C:4648H         LINE#         552
  -------         ENDPROC       CALIBINIT
  -------         ENDMOD        CALIBRATION

  -------         MODULE        CMDSUB
  C:0000H         SYMBOL        _ICE_DUMMY_
  C:70EFH         PUBLIC        Adc_YCalSta
  C:5C59H         SYMBOL        TempSortAndCalcPrm
  D:0012H         SYMBOL        px_axis
  D:0014H         SYMBOL        py_axis
  D:00A0H         PUBLIC        P2
  X:0B32H         SYMBOL        temp_xcalref
  X:0B34H         SYMBOL        temp_ycalref
  C:60BEH         PUBLIC        _Temp_CalSamp
  C:5EC3H         PUBLIC        _AngChkDiff
  C:4755H         PUBLIC        _Temp_CalTRefSet
  X:0B36H         PUBLIC        SendSpeedNum
  C:711DH         PUBLIC        Temp_CalStop
  C:71F1H         PUBLIC        Temp_CalSta
  X:0B37H         PUBLIC        SystemVer
  X:0B47H         PUBLIC        SendActPosi
  X:0B48H         PUBLIC        ACalXId
  X:0B49H         PUBLIC        ACalYId
BL51 BANKED LINKER/LOCATER V6.22                                                      06/13/2013  10:29:17  PAGE 42


  C:4B53H         PUBLIC        _Adc_XCalProc
  C:4C3BH         PUBLIC        _Adc_YCalProc
  C:5ACCH         PUBLIC        _Temp_CalValWr
  C:5653H         PUBLIC        Adc_XCalStop
  C:56EAH         PUBLIC        Adc_YCalStop
  C:70D8H         PUBLIC        Adc_XCalSta
  -------         PROC          L?0040
  -------         ENDPROC       L?0040
  -------         PROC          _ANGCHKDIFF
  D:0032H         SYMBOL        ang
  D:0036H         SYMBOL        adc
  D:0038H         SYMBOL        num
  D:0039H         SYMBOL        angarr
  D:003CH         SYMBOL        adcarr
  -------         DO            
  D:003FH         SYMBOL        i
  -------         ENDDO         
  C:5EC3H         LINE#         38
  C:5ECBH         LINE#         39
  C:5ECBH         LINE#         41
  C:5ED5H         LINE#         42
  C:5EF7H         LINE#         43
  C:5EF7H         LINE#         44
  C:5F10H         LINE#         45
  C:5F13H         LINE#         46
  C:5F13H         LINE#         47
  C:5F17H         LINE#         48
  C:5F19H         LINE#         49
  -------         ENDPROC       _ANGCHKDIFF
  -------         PROC          TEMPSORTANDCALCPRM
  C:5C59H         LINE#         81
  C:5C59H         LINE#         82
  C:5C59H         LINE#         84
  C:5CD3H         LINE#         86
  C:5CD6H         LINE#         87
  -------         ENDPROC       TEMPSORTANDCALCPRM
  -------         PROC          _TEMP_CALVALWR
  D:0033H         SYMBOL        id
  D:0004H         SYMBOL        temp
  D:0036H         SYMBOL        x
  D:0038H         SYMBOL        y
  C:5ACCH         LINE#         97
  C:5AD2H         LINE#         98
  C:5AD2H         LINE#         99
  C:5ADCH         LINE#         100
  C:5B02H         LINE#         102
  C:5B28H         LINE#         103
  C:5B4EH         LINE#         104
  C:5B50H         LINE#         105
  -------         ENDPROC       _TEMP_CALVALWR
  -------         PROC          TEMP_CALSTA
  C:71F1H         LINE#         113
  C:71F1H         LINE#         114
  C:71F1H         LINE#         115
  C:71FAH         LINE#         116
  C:7200H         LINE#         117
  C:7202H         LINE#         118
BL51 BANKED LINKER/LOCATER V6.22                                                      06/13/2013  10:29:17  PAGE 43


  -------         ENDPROC       TEMP_CALSTA
  -------         PROC          TEMP_CALSTOP
  C:711DH         LINE#         126
  C:711DH         LINE#         127
  C:711DH         LINE#         128
  C:7128H         LINE#         129
  C:712DH         LINE#         130
  C:7130H         LINE#         131
  C:7132H         LINE#         132
  -------         ENDPROC       TEMP_CALSTOP
  -------         PROC          _TEMP_CALSAMP
  D:0007H         SYMBOL        id
  D:002DH         SYMBOL        temp
  D:002FH         SYMBOL        x
  D:0031H         SYMBOL        y
  C:60BEH         LINE#         134
  C:60C6H         LINE#         135
  C:60C6H         LINE#         136
  C:60CEH         LINE#         137
  C:60D1H         LINE#         139
  C:60D4H         LINE#         140
  C:60D4H         LINE#         141
  C:60DEH         LINE#         142
  C:60E6H         LINE#         143
  C:60E6H         LINE#         144
  C:6110H         LINE#         145
  C:6112H         LINE#         147
  C:6121H         LINE#         148
  C:6123H         LINE#         149
  -------         ENDPROC       _TEMP_CALSAMP
  -------         PROC          _TEMP_CALTREFSET
  D:002CH         SYMBOL        id
  -------         DO            
  D:0007H         SYMBOL        i
  D:002DH         SYMBOL        x
  D:002FH         SYMBOL        y
  -------         ENDDO         
  C:4755H         LINE#         157
  C:4757H         LINE#         158
  C:4757H         LINE#         162
  C:4778H         LINE#         163
  C:479EH         LINE#         164
  C:47C4H         LINE#         166
  C:47E2H         LINE#         167
  C:47E2H         LINE#         168
  C:4817H         LINE#         169
  C:484CH         LINE#         170
  C:4850H         LINE#         171
  C:4856H         LINE#         172
  C:4859H         LINE#         173
  C:485BH         LINE#         174
  -------         ENDPROC       _TEMP_CALTREFSET
  -------         PROC          ADC_XCALSTA
  C:70D8H         LINE#         185
  C:70D8H         LINE#         186
  C:70D8H         LINE#         187
  C:70E1H         LINE#         188
BL51 BANKED LINKER/LOCATER V6.22                                                      06/13/2013  10:29:17  PAGE 44


  C:70E7H         LINE#         189
  C:70ECH         LINE#         190
  C:70EEH         LINE#         191
  -------         ENDPROC       ADC_XCALSTA
  -------         PROC          _ADC_XCALPROC
  D:002CH         SYMBOL        ang
  D:0030H         SYMBOL        adc
  C:4B53H         LINE#         199
  C:4B5BH         LINE#         200
  C:4B5BH         LINE#         201
  C:4B66H         LINE#         202
  C:4BACH         LINE#         203
  C:4BAFH         LINE#         204
  C:4BD1H         LINE#         205
  C:4C05H         LINE#         206
  C:4C32H         LINE#         207
  C:4C38H         LINE#         208
  C:4C3AH         LINE#         209
  -------         ENDPROC       _ADC_XCALPROC
  -------         PROC          ADC_XCALSTOP
  -------         DO            
  D:002CH         SYMBOL        n
  -------         ENDDO         
  C:5653H         LINE#         218
  C:5653H         LINE#         219
  C:5653H         LINE#         220
  C:566DH         LINE#         222
  C:5678H         LINE#         223
  C:5683H         LINE#         224
  C:5688H         LINE#         225
  C:56E4H         LINE#         227
  C:56E7H         LINE#         228
  C:56E9H         LINE#         229
  -------         ENDPROC       ADC_XCALSTOP
  -------         PROC          ADC_YCALSTA
  C:70EFH         LINE#         239
  C:70EFH         LINE#         240
  C:70EFH         LINE#         241
  C:70F8H         LINE#         242
  C:70FEH         LINE#         243
  C:7103H         LINE#         244
  C:7105H         LINE#         245
  -------         ENDPROC       ADC_YCALSTA
  -------         PROC          _ADC_YCALPROC
  D:002CH         SYMBOL        ang
  D:0030H         SYMBOL        adc
  C:4C3BH         LINE#         252
  C:4C43H         LINE#         253
  C:4C43H         LINE#         254
  C:4C4EH         LINE#         255
  C:4C94H         LINE#         256
  C:4C97H         LINE#         257
  C:4CB9H         LINE#         258
  C:4CEDH         LINE#         259
  C:4D1AH         LINE#         260
  C:4D20H         LINE#         261
  C:4D22H         LINE#         262
BL51 BANKED LINKER/LOCATER V6.22                                                      06/13/2013  10:29:17  PAGE 45


  -------         ENDPROC       _ADC_YCALPROC
  -------         PROC          ADC_YCALSTOP
  -------         DO            
  D:002CH         SYMBOL        n
  -------         ENDDO         
  C:56EAH         LINE#         264
  C:56EAH         LINE#         265
  C:56EAH         LINE#         266
  C:5704H         LINE#         268
  C:570FH         LINE#         269
  C:571AH         LINE#         270
  C:571FH         LINE#         271
  C:577BH         LINE#         273
  C:577EH         LINE#         274
  C:5780H         LINE#         275
  -------         ENDPROC       ADC_YCALSTOP
  -------         ENDMOD        CMDSUB

  -------         MODULE        COMM
  C:0000H         SYMBOL        _ICE_DUMMY_
  D:0090H         PUBLIC        P1
  D:00A0H         PUBLIC        P2
  B:00A8H.7       PUBLIC        EA
  C:002EH         PUBLIC        Comm_TimerProc
  C:74C5H         PUBLIC        Comm_TimerInit
  D:00A7H         PUBLIC        SFRPAGE
  C:5516H         PUBLIC        _Comm_GetChar
  X:06B0H         SYMBOL        CommTimer
  D:00B8H         PUBLIC        IP
  C:5DCEH         PUBLIC        Comm_Isr
  C:7601H         PUBLIC        Comm_SendStop
  C:75D9H         PUBLIC        Comm_SendSta
  D:00ABH         PUBLIC        SBCON0
  B:0098H.7       PUBLIC        OVR0
  C:59BBH         PUBLIC        _Comm_PutChar
  X:06B2H         PUBLIC        CommBuf
  C:6FB8H         PUBLIC        Comm_HardwareInit
  B:00A8H.4       PUBLIC        ES0
  B:0098H.0       PUBLIC        RI0
  B:0098H.1       PUBLIC        TI0
  B:0020H.0       PUBLIC        CommRxFlag
  C:5813H         PUBLIC        Comm_SoftwareInit
  B:0020H.1       PUBLIC        CommTxFlag
  C:5328H         PUBLIC        _Comm_GetTxChar
  D:0099H         PUBLIC        SBUF0
  C:6E69H         PUBLIC        _Comm_PutStr
  D:00ACH         PUBLIC        SBRL0
  D:0098H         PUBLIC        SCON0
  C:5B51H         PUBLIC        _Comm_PutRxChar
  -------         PROC          COMM_ISR
  -------         DO            
  D:006AH         SYMBOL        temp
  D:006BH         SYMBOL        err
  -------         ENDDO         
  C:5DCEH         LINE#         29
  C:5DEBH         LINE#         34
  C:5DEEH         LINE#         35
BL51 BANKED LINKER/LOCATER V6.22                                                      06/13/2013  10:29:17  PAGE 46


  C:5DF0H         LINE#         36
  C:5DFBH         LINE#         37
  C:5E01H         LINE#         38
  C:5E04H         LINE#         40
  C:5E06H         LINE#         41
  C:5E08H         LINE#         43
  C:5E0BH         LINE#         44
  C:5E0DH         LINE#         45
  C:5E0DH         LINE#         46
  C:5E0DH         LINE#         48
  C:5E10H         LINE#         49
  C:5E12H         LINE#         50
  C:5E15H         LINE#         52
  C:5E18H         LINE#         54
  C:5E18H         LINE#         55
  C:5E1DH         LINE#         56
  C:5E20H         LINE#         58
  C:5E20H         LINE#         59
  C:5E20H         LINE#         61
  C:5E23H         LINE#         62
  C:5E25H         LINE#         63
  C:5E25H         LINE#         64
  -------         ENDPROC       COMM_ISR
  -------         PROC          COMM_HARDWAREINIT
  -------         DO            
  D:0007H         SYMBOL        SfrPage_
  -------         ENDDO         
  C:6FB8H         LINE#         66
  C:6FB8H         LINE#         67
  C:6FBAH         LINE#         70
  C:6FBDH         LINE#         71
  C:6FC0H         LINE#         75
  C:6FC6H         LINE#         76
  C:6FC9H         LINE#         90
  C:6FCCH         LINE#         91
  C:6FCEH         LINE#         93
  C:6FD1H         LINE#         94
  C:6FD3H         LINE#         95
  C:6FD5H         LINE#         96
  -------         ENDPROC       COMM_HARDWAREINIT
  -------         PROC          COMM_SOFTWAREINIT
  -------         DO            
  D:0021H         SYMBOL        p_buf
  -------         ENDDO         
  C:5813H         LINE#         98
  C:5813H         LINE#         99
  C:5813H         LINE#         100
  C:581CH         LINE#         102
  C:5828H         LINE#         103
  C:5843H         LINE#         104
  C:585EH         LINE#         105
  C:586DH         LINE#         106
  C:5886H         LINE#         107
  C:58A1H         LINE#         108
  -------         ENDPROC       COMM_SOFTWAREINIT
  -------         PROC          COMM_SENDSTA
  C:75D9H         LINE#         129
BL51 BANKED LINKER/LOCATER V6.22                                                      06/13/2013  10:29:17  PAGE 47


  C:75D9H         LINE#         130
  C:75D9H         LINE#         131
  C:75DCH         LINE#         132
  C:75DEH         LINE#         133
  -------         ENDPROC       COMM_SENDSTA
  -------         PROC          COMM_SENDSTOP
  C:7601H         LINE#         135
  C:7601H         LINE#         136
  C:7601H         LINE#         137
  C:7604H         LINE#         138
  -------         ENDPROC       COMM_SENDSTOP
  -------         PROC          _COMM_GETTXCHAR
  D:006CH         SYMBOL        err
  -------         DO            
  D:006FH         SYMBOL        p_buf
  D:0007H         SYMBOL        c
  -------         ENDDO         
  C:5328H         LINE#         147
  C:532EH         LINE#         148
  C:533AH         LINE#         151
  C:533CH         LINE#         152
  C:534BH         LINE#         153
  C:535BH         LINE#         154
  C:5369H         LINE#         155
  C:5395H         LINE#         156
  C:53B0H         LINE#         157
  C:53B0H         LINE#         158
  C:53BAH         LINE#         159
  C:53BCH         LINE#         160
  C:53BDH         LINE#         161
  C:53BDH         LINE#         163
  C:53C8H         LINE#         164
  C:53CAH         LINE#         165
  C:53CCH         LINE#         166
  C:53CCH         LINE#         167
  -------         ENDPROC       _COMM_GETTXCHAR
  -------         PROC          _COMM_PUTCHAR
  D:0007H         SYMBOL        c
  -------         DO            
  D:003CH         SYMBOL        p_buf
  -------         ENDDO         
  C:59BBH         LINE#         176
  C:59BBH         LINE#         177
  C:59C7H         LINE#         179
  C:59C9H         LINE#         180
  C:59D8H         LINE#         181
  C:59E8H         LINE#         182
  C:59F6H         LINE#         183
  C:5A22H         LINE#         184
  C:5A3DH         LINE#         185
  C:5A3DH         LINE#         186
  C:5A3FH         LINE#         187
  C:5A42H         LINE#         188
  C:5A42H         LINE#         190
  C:5A44H         LINE#         191
  C:5A46H         LINE#         192
  C:5A46H         LINE#         193
BL51 BANKED LINKER/LOCATER V6.22                                                      06/13/2013  10:29:17  PAGE 48


  -------         ENDPROC       _COMM_PUTCHAR
  -------         PROC          _COMM_PUTRXCHAR
  D:0007H         SYMBOL        c
  -------         DO            
  D:006CH         SYMBOL        p_buf
  -------         ENDDO         
  C:5B51H         LINE#         206
  C:5B51H         LINE#         207
  C:5B5DH         LINE#         209
  C:5B5FH         LINE#         210
  C:5B6BH         LINE#         211
  C:5B78H         LINE#         212
  C:5B8CH         LINE#         213
  C:5BB7H         LINE#         214
  C:5BD2H         LINE#         215
  C:5BD2H         LINE#         216
  C:5BD2H         LINE#         217
  C:5BD4H         LINE#         218
  -------         ENDPROC       _COMM_PUTRXCHAR
  -------         PROC          _COMM_GETCHAR
  D:0021H         SYMBOL        err
  -------         DO            
  D:0024H         SYMBOL        p_buf
  D:0007H         SYMBOL        c
  -------         ENDDO         
  C:5516H         LINE#         226
  C:551CH         LINE#         227
  C:5528H         LINE#         230
  C:552AH         LINE#         231
  C:5536H         LINE#         232
  C:5543H         LINE#         233
  C:5557H         LINE#         234
  C:5582H         LINE#         235
  C:559DH         LINE#         236
  C:559DH         LINE#         237
  C:55A7H         LINE#         238
  C:55A9H         LINE#         239
  C:55AAH         LINE#         240
  C:55AAH         LINE#         242
  C:55B5H         LINE#         243
  C:55B7H         LINE#         244
  C:55B9H         LINE#         245
  C:55B9H         LINE#         246
  -------         ENDPROC       _COMM_GETCHAR
  -------         PROC          _COMM_PUTSTR
  D:0039H         SYMBOL        ptr
  D:0005H         SYMBOL        n
  -------         DO            
  D:0006H         SYMBOL        i
  -------         ENDDO         
  C:6E69H         LINE#         249
  C:6E6FH         LINE#         250
  C:6E6FH         LINE#         252
  C:6E76H         LINE#         253
  C:6E8BH         LINE#         254
  C:6E8EH         LINE#         255
  -------         ENDPROC       _COMM_PUTSTR
BL51 BANKED LINKER/LOCATER V6.22                                                      06/13/2013  10:29:17  PAGE 49


  -------         PROC          COMM_TIMERINIT
  C:74C5H         LINE#         263
  C:74C5H         LINE#         264
  C:74C5H         LINE#         265
  C:74CEH         LINE#         266
  -------         ENDPROC       COMM_TIMERINIT
  -------         PROC          COMM_TIMERPROC
  C:002EH         LINE#         268
  C:002EH         LINE#         269
  C:002EH         LINE#         270
  C:003DH         LINE#         271
  C:003DH         LINE#         272
  C:0048H         LINE#         273
  C:004AH         LINE#         274
  C:004AH         LINE#         275
  -------         ENDPROC       COMM_TIMERPROC
  -------         ENDMOD        COMM

  -------         MODULE        DELAY
  C:0000H         SYMBOL        _ICE_DUMMY_
  D:00A0H         PUBLIC        P2
  C:74CFH         PUBLIC        delay_ms_
  C:74A4H         PUBLIC        _delay_cyc
  C:7106H         PUBLIC        _delay_ms
  C:7384H         PUBLIC        delay_100us
  -------         PROC          DELAY_100US
  -------         DO            
  D:0006H         SYMBOL        i
  -------         ENDDO         
  C:7384H         LINE#         25
  C:7384H         LINE#         26
  C:7384H         LINE#         29
  C:7392H         LINE#         30
  -------         ENDPROC       DELAY_100US
  -------         PROC          DELAY_MS_
  -------         DO            
  D:0005H         SYMBOL        i
  -------         ENDDO         
  C:74CFH         LINE#         32
  C:74CFH         LINE#         33
  C:74CFH         LINE#         36
  C:74D1H         LINE#         37
  C:74D4H         LINE#         38
  C:74D8H         LINE#         39
  -------         ENDPROC       DELAY_MS_
  -------         PROC          _DELAY_MS
  D:0002H         SYMBOL        n
  -------         DO            
  D:0082H         SYMBOL        i
  -------         ENDDO         
  C:7106H         LINE#         41
  C:710AH         LINE#         42
  C:710AH         LINE#         45
  C:7116H         LINE#         46
  C:7119H         LINE#         47
  C:711CH         LINE#         48
  -------         ENDPROC       _DELAY_MS
BL51 BANKED LINKER/LOCATER V6.22                                                      06/13/2013  10:29:17  PAGE 50


  -------         PROC          _DELAY_CYC
  D:0006H         SYMBOL        n
  C:74A4H         LINE#         50
  C:74A4H         LINE#         51
  C:74A4H         LINE#         52
  C:74AEH         LINE#         53
  -------         ENDPROC       _DELAY_CYC
  -------         ENDMOD        DELAY

  -------         MODULE        FILTER
  C:0000H         SYMBOL        _ICE_DUMMY_
  C:4EDDH         PUBLIC        _SlideWinFilter
  C:6EB4H         PUBLIC        _ValInRange
  C:6316H         PUBLIC        _Filter_1st
  -------         PROC          _VALINRANGE
  D:0006H         SYMBOL        old_val
  D:0004H         SYMBOL        new_val
  D:0002H         SYMBOL        range
  C:6EB4H         LINE#         26
  C:6EB4H         LINE#         27
  C:6EB4H         LINE#         28
  C:6ED2H         LINE#         29
  C:6ED5H         LINE#         31
  C:6ED7H         LINE#         32
  -------         ENDPROC       _VALINRANGE
  -------         PROC          _SLIDEWINFILTER
  D:0058H         SYMBOL        pbufpos
  D:005BH         SYMBOL        pbufcnt
  D:005EH         SYMBOL        pbuf
  D:0061H         SYMBOL        val
  D:0063H         SYMBOL        ftcnt
  -------         DO            
  D:0065H         SYMBOL        data_ram
  D:0069H         SYMBOL        i
  -------         ENDDO         
  C:4EDDH         LINE#         41
  C:4EE3H         LINE#         42
  C:4EE3H         LINE#         43
  C:4EECH         LINE#         45
  C:4F18H         LINE#         46
  C:4F23H         LINE#         47
  C:4F2DH         LINE#         48
  C:4F30H         LINE#         49
  C:4F41H         LINE#         50
  C:4F41H         LINE#         51
  C:4F46H         LINE#         52
  C:4F4BH         LINE#         53
  C:4F4BH         LINE#         55
  C:4F4BH         LINE#         56
  C:4F58H         LINE#         57
  C:4F58H         LINE#         58
  C:4F86H         LINE#         59
  C:4F8AH         LINE#         60
  C:4FB0H         LINE#         61
  C:4FB0H         LINE#         62
  C:4FB0H         LINE#         63
  -------         ENDPROC       _SLIDEWINFILTER
BL51 BANKED LINKER/LOCATER V6.22                                                      06/13/2013  10:29:17  PAGE 51


  -------         PROC          _FILTER_1ST
  D:0027H         SYMBOL        old_val
  D:002BH         SYMBOL        new_val
  D:002DH         SYMBOL        filtercnt
  C:6316H         LINE#         72
  C:631EH         LINE#         73
  C:631EH         LINE#         74
  C:6372H         LINE#         75
  -------         ENDPROC       _FILTER_1ST
  -------         ENDMOD        FILTER

  -------         MODULE        FLASH
  C:0000H         SYMBOL        _ICE_DUMMY_
  D:00A0H         PUBLIC        P2
  B:00A8H.7       PUBLIC        EA
  D:008FH         PUBLIC        PSCTL
  C:73CDH         SYMBOL        FlashChk
  D:00A7H         PUBLIC        SFRPAGE
  C:6383H         SYMBOL        _Flash_BufRd
  C:75DFH         SYMBOL        Ram_CalDataInit
  C:657BH         SYMBOL        Ram_CalDataInit_User
  D:00FFH         PUBLIC        VDM0CN
  X:04B0H         PUBLIC        DispBuf
  C:5F1AH         SYMBOL        _Flash_BufWr
  C:6DF0H         SYMBOL        _Flash_PageErase
  C:6939H         PUBLIC        Flash_CalDataUpdate
  C:65DDH         SYMBOL        _Flash_CalDataUpdate_User
  C:7092H         PUBLIC        Flash_UserDataUpdate
  C:6CB2H         SYMBOL        _FlashUpdate
  C:2D13H         SYMBOL        _Ram_Buf2CalData
  C:2A72H         SYMBOL        _Ram_CalData2Buf
  D:00EFH         PUBLIC        RSTSRC
  D:00ACH         PUBLIC        SBRL0
  C:6A80H         SYMBOL        _Flash_CheckSum
  C:6429H         SYMBOL        FlashArea_User
  C:4649H         PUBLIC        Flash_CalDataInit
  D:00B7H         PUBLIC        FLKEY
  -------         PROC          FLASH_CALDATAINIT
  -------         DO            
  D:0021H         SYMBOL        SfrPage_
  -------         ENDDO         
  C:4649H         LINE#         40
  C:4649H         LINE#         41
  C:4649H         LINE#         42
  C:464CH         LINE#         43
  C:465FH         LINE#         44
  C:4667H         LINE#         45
  C:4667H         LINE#         46
  C:466AH         LINE#         47
  C:466DH         LINE#         48
  C:4670H         LINE#         50
  C:4670H         LINE#         51
  C:4675H         LINE#         52
  C:4678H         LINE#         53
  C:4688H         LINE#         54
  C:4688H         LINE#         55
  C:468BH         LINE#         56
BL51 BANKED LINKER/LOCATER V6.22                                                      06/13/2013  10:29:17  PAGE 52


  C:468DH         LINE#         58
  C:468DH         LINE#         59
  C:46A0H         LINE#         60
  C:46B0H         LINE#         61
  C:46B0H         LINE#         62
  C:46B3H         LINE#         63
  C:46B8H         LINE#         64
  C:46C9H         LINE#         65
  C:46CBH         LINE#         67
  C:46CBH         LINE#         68
  C:46CEH         LINE#         69
  C:46D3H         LINE#         70
  C:46D3H         LINE#         71
  C:46D3H         LINE#         73
  C:46D3H         LINE#         75
  C:46DBH         LINE#         76
  C:46E3H         LINE#         78
  C:46E9H         LINE#         79
  C:46ECH         LINE#         81
  C:46F2H         LINE#         82
  C:46F5H         LINE#         84
  C:46FBH         LINE#         85
  C:46FEH         LINE#         87
  C:471EH         LINE#         89
  C:4721H         LINE#         90
  C:4751H         LINE#         91
  C:4754H         LINE#         92
  -------         ENDPROC       FLASH_CALDATAINIT
  -------         PROC          FLASH_CALDATAUPDATE
  C:6939H         LINE#         100
  C:6939H         LINE#         101
  C:6939H         LINE#         102
  C:693EH         LINE#         103
  C:6951H         LINE#         104
  C:6956H         LINE#         105
  C:6969H         LINE#         106
  -------         ENDPROC       FLASH_CALDATAUPDATE
  -------         PROC          FLASH_USERDATAUPDATE
  C:7092H         LINE#         108
  C:7092H         LINE#         109
  C:7092H         LINE#         111
  C:7095H         LINE#         112
  -------         ENDPROC       FLASH_USERDATAUPDATE
  -------         PROC          _FLASHUPDATE
  D:003EH         SYMBOL        addr
  D:0040H         SYMBOL        buf
  D:0043H         SYMBOL        n
  -------         DO            
  B:0020H.2       SYMBOL        ea_temp
  -------         ENDDO         
  C:6CB2H         LINE#         116
  C:6CBCH         LINE#         117
  C:6CBCH         LINE#         118
  C:6CC0H         LINE#         119
  C:6CC2H         LINE#         121
  C:6CC5H         LINE#         122
  C:6CCCH         LINE#         123
BL51 BANKED LINKER/LOCATER V6.22                                                      06/13/2013  10:29:17  PAGE 53


  C:6CDFH         LINE#         125
  C:6CE3H         LINE#         126
  -------         ENDPROC       _FLASHUPDATE
  C:65D9H         SYMBOL        L?0086
  -------         PROC          L?0085
  -------         ENDPROC       L?0085
  C:65D9H         SYMBOL        L?0086
  -------         PROC          _FLASH_CALDATAUPDATE_USER
  D:0035H         SYMBOL        page
  D:0036H         SYMBOL        addr
  D:0038H         SYMBOL        buf
  D:003BH         SYMBOL        n
  -------         DO            
  D:003DH         SYMBOL        sum
  D:0082H         SYMBOL        pread
  -------         ENDDO         
  C:65DDH         LINE#         135
  C:65E9H         LINE#         136
  C:65E9H         LINE#         140
  C:65F5H         LINE#         142
  C:65F9H         LINE#         143
  C:65FEH         LINE#         145
  C:6606H         LINE#         146
  C:6619H         LINE#         147
  -------         ENDPROC       _FLASH_CALDATAUPDATE_USER
  -------         PROC          RAM_CALDATAINIT
  C:75DFH         LINE#         155
  C:75DFH         LINE#         156
  C:75DFH         LINE#         157
  C:75E2H         LINE#         158
  -------         ENDPROC       RAM_CALDATAINIT
  -------         PROC          _RAM_CALDATA2BUF
  D:003EH         SYMBOL        page
  -------         DO            
  D:003FH         SYMBOL        i
  D:0040H         SYMBOL        j
  D:0042H         SYMBOL        k
  -------         ENDDO         
  C:2A72H         LINE#         161
  C:2A74H         LINE#         162
  C:2A74H         LINE#         165
  C:2A7DH         LINE#         166
  C:2A7DH         LINE#         167
  C:2A7FH         LINE#         168
  C:2A7FH         LINE#         170
  C:2A97H         LINE#         171
  C:2AAFH         LINE#         172
  C:2AC9H         LINE#         173
  C:2AE3H         LINE#         175
  C:2AECH         LINE#         177
  C:2AEFH         LINE#         178
  C:2AEFH         LINE#         179
  C:2B09H         LINE#         180
  C:2B10H         LINE#         182
  C:2B16H         LINE#         183
  C:2B19H         LINE#         184
  C:2B19H         LINE#         186
BL51 BANKED LINKER/LOCATER V6.22                                                      06/13/2013  10:29:17  PAGE 54


  C:2B3FH         LINE#         187
  C:2B65H         LINE#         188
  C:2B8BH         LINE#         189
  C:2B94H         LINE#         191
  C:2B9CH         LINE#         192
  C:2BA4H         LINE#         193
  C:2BB3H         LINE#         196
  C:2BBCH         LINE#         197
  C:2BC5H         LINE#         198
  C:2BCBH         LINE#         200
  C:2BD1H         LINE#         201
  C:2BD1H         LINE#         202
  C:2BD1H         LINE#         203
  C:2BDFH         LINE#         204
  C:2BEFH         LINE#         206
  C:2BEFH         LINE#         207
  C:2BEFH         LINE#         208
  C:2BF2H         LINE#         209
  C:2BFBH         LINE#         210
  C:2BFBH         LINE#         211
  C:2C03H         LINE#         212
  C:2C0BH         LINE#         213
  C:2C13H         LINE#         214
  C:2C1BH         LINE#         215
  C:2C2AH         LINE#         216
  C:2C3EH         LINE#         218
  C:2C44H         LINE#         220
  C:2C56H         LINE#         221
  C:2C68H         LINE#         223
  C:2C7AH         LINE#         224
  C:2C8CH         LINE#         226
  C:2C9EH         LINE#         227
  C:2CB0H         LINE#         228
  C:2CC2H         LINE#         229
  C:2CDAH         LINE#         231
  C:2CE5H         LINE#         232
  C:2CECH         LINE#         233
  C:2CECH         LINE#         234
  C:2CFAH         LINE#         235
  C:2D04H         LINE#         238
  C:2D0AH         LINE#         239
  C:2D12H         LINE#         240
  C:2D12H         LINE#         241
  -------         ENDPROC       _RAM_CALDATA2BUF
  -------         PROC          _RAM_BUF2CALDATA
  D:0022H         SYMBOL        page
  -------         DO            
  D:0023H         SYMBOL        i
  D:0024H         SYMBOL        j
  -------         ENDDO         
  C:2D13H         LINE#         247
  C:2D15H         LINE#         248
  C:2D15H         LINE#         250
  C:2D1EH         LINE#         251
  C:2D1EH         LINE#         252
  C:2D20H         LINE#         253
  C:2D20H         LINE#         260
BL51 BANKED LINKER/LOCATER V6.22                                                      06/13/2013  10:29:17  PAGE 55


  C:2D41H         LINE#         261
  C:2D62H         LINE#         262
  C:2D7CH         LINE#         263
  C:2D96H         LINE#         265
  C:2D9FH         LINE#         267
  C:2DA2H         LINE#         268
  C:2DA2H         LINE#         269
  C:2DBCH         LINE#         270
  C:2DC3H         LINE#         273
  C:2DC9H         LINE#         274
  C:2DCCH         LINE#         275
  C:2DCCH         LINE#         276
  C:2DF2H         LINE#         277
  C:2E18H         LINE#         278
  C:2E3EH         LINE#         280
  C:2E47H         LINE#         282
  C:2E4FH         LINE#         283
  C:2E57H         LINE#         284
  C:2E66H         LINE#         286
  C:2E77H         LINE#         287
  C:2E88H         LINE#         288
  C:2E8EH         LINE#         289
  C:2E8EH         LINE#         290
  C:2E97H         LINE#         291
  C:2E97H         LINE#         292
  C:2E9FH         LINE#         293
  C:2EA7H         LINE#         294
  C:2EAFH         LINE#         295
  C:2EB7H         LINE#         296
  C:2EC6H         LINE#         297
  C:2EDAH         LINE#         299
  C:2EE0H         LINE#         301
  C:2EFAH         LINE#         302
  C:2F14H         LINE#         304
  C:2F2EH         LINE#         305
  C:2F48H         LINE#         307
  C:2F62H         LINE#         308
  C:2F7CH         LINE#         309
  C:2F96H         LINE#         310
  C:2FAAH         LINE#         312
  C:2FAAH         LINE#         313
  -------         ENDPROC       _RAM_BUF2CALDATA
  C:6A76H         SYMBOL        L?0084
  -------         PROC          L?0083
  -------         ENDPROC       L?0083
  C:6A76H         SYMBOL        L?0084
  -------         PROC          _FLASH_CHECKSUM
  D:0001H         SYMBOL        addr
  D:0044H         SYMBOL        n
  -------         DO            
  D:0046H         SYMBOL        pread
  D:0004H         SYMBOL        i
  D:0007H         SYMBOL        sum
  -------         ENDDO         
  C:6A80H         LINE#         317
  C:6A84H         LINE#         318
  C:6A84H         LINE#         320
BL51 BANKED LINKER/LOCATER V6.22                                                      06/13/2013  10:29:17  PAGE 56


  C:6A86H         LINE#         321
  C:6A8CH         LINE#         322
  C:6A97H         LINE#         323
  C:6A97H         LINE#         324
  C:6AAAH         LINE#         325
  C:6AB1H         LINE#         326
  C:6AB1H         LINE#         327
  -------         ENDPROC       _FLASH_CHECKSUM
  -------         PROC          _FLASH_PAGEERASE
  D:0006H         SYMBOL        addr
  -------         DO            
  D:0082H         SYMBOL        pwrite
  B:0020H.3       SYMBOL        ea_temp
  -------         ENDDO         
  C:6DF0H         LINE#         336
  C:6DF0H         LINE#         337
  C:6DF0H         LINE#         338
  C:6DF4H         LINE#         341
  C:6DF8H         LINE#         342
  C:6DFAH         LINE#         343
  C:6DFDH         LINE#         344
  C:6E00H         LINE#         345
  C:6E03H         LINE#         346
  C:6E06H         LINE#         347
  C:6E09H         LINE#         348
  C:6E0CH         LINE#         349
  C:6E0FH         LINE#         350
  C:6E11H         LINE#         351
  C:6E14H         LINE#         352
  C:6E18H         LINE#         353
  -------         ENDPROC       _FLASH_PAGEERASE
  -------         PROC          _FLASH_BUFWR
  D:0006H         SYMBOL        addr
  D:0047H         SYMBOL        buf
  D:004AH         SYMBOL        n
  -------         DO            
  D:004CH         SYMBOL        pwrite
  B:0020H.3       SYMBOL        ea_temp
  D:004EH         SYMBOL        i
  -------         ENDDO         
  C:5F1AH         LINE#         362
  C:5F20H         LINE#         363
  C:5F20H         LINE#         364
  C:5F24H         LINE#         368
  C:5F28H         LINE#         369
  C:5F2AH         LINE#         370
  C:5F3AH         LINE#         371
  C:5F3DH         LINE#         372
  C:5F40H         LINE#         373
  C:5F43H         LINE#         374
  C:5F46H         LINE#         375
  C:5F49H         LINE#         376
  C:5F4CH         LINE#         377
  C:5F4FH         LINE#         378
  C:5F72H         LINE#         379
  C:5F75H         LINE#         380
  C:5F7FH         LINE#         381
BL51 BANKED LINKER/LOCATER V6.22                                                      06/13/2013  10:29:17  PAGE 57


  C:5F83H         LINE#         382
  -------         ENDPROC       _FLASH_BUFWR
  C:6373H         SYMBOL        L?0082
  -------         PROC          L?0081
  -------         ENDPROC       L?0081
  C:6373H         SYMBOL        L?0082
  -------         PROC          _FLASH_BUFRD
  D:0006H         SYMBOL        addr
  D:0024H         SYMBOL        buf
  D:0027H         SYMBOL        n
  -------         DO            
  D:0029H         SYMBOL        pread
  B:0020H.2       SYMBOL        ea_temp
  D:0006H         SYMBOL        i
  -------         ENDDO         
  C:6383H         LINE#         391
  C:6389H         LINE#         392
  C:6389H         LINE#         393
  C:638DH         LINE#         396
  C:6391H         LINE#         397
  C:6393H         LINE#         398
  C:639FH         LINE#         399
  C:639FH         LINE#         400
  C:63C3H         LINE#         401
  C:63CAH         LINE#         402
  C:63CEH         LINE#         403
  -------         ENDPROC       _FLASH_BUFRD
  -------         PROC          FLASHCHK
  -------         DO            
  D:0007H         SYMBOL        temp
  -------         ENDDO         
  C:73CDH         LINE#         412
  C:73CDH         LINE#         413
  C:73CDH         LINE#         414
  C:73D2H         LINE#         415
  C:73D8H         LINE#         417
  C:73DAH         LINE#         418
  -------         ENDPROC       FLASHCHK
  -------         PROC          FLASHAREA_USER
  C:6429H         LINE#         427
  C:6429H         LINE#         428
  C:6429H         LINE#         429
  C:643CH         LINE#         430
  C:644CH         LINE#         431
  C:644CH         LINE#         432
  C:644FH         LINE#         433
  C:6452H         LINE#         434
  C:6462H         LINE#         435
  C:6464H         LINE#         437
  C:6464H         LINE#         438
  C:6469H         LINE#         439
  C:647EH         LINE#         441
  C:647EH         LINE#         443
  -------         ENDPROC       FLASHAREA_USER
  -------         PROC          RAM_CALDATAINIT_USER
  C:657BH         LINE#         454
  C:657BH         LINE#         455
BL51 BANKED LINKER/LOCATER V6.22                                                      06/13/2013  10:29:17  PAGE 58


  C:657BH         LINE#         457
  C:6586H         LINE#         458
  C:6591H         LINE#         459
  C:659CH         LINE#         460
  C:65A7H         LINE#         461
  C:65B2H         LINE#         462
  C:65BDH         LINE#         463
  C:65C8H         LINE#         464
  -------         ENDPROC       RAM_CALDATAINIT_USER
  -------         ENDMOD        FLASH

  -------         MODULE        INIT
  C:0000H         SYMBOL        _ICE_DUMMY_
  D:00A0H         PUBLIC        P2
  C:64D5H         PUBLIC        Init_SystemPara
  D:00A7H         PUBLIC        SFRPAGE
  D:00A4H         PUBLIC        P0MDOUT
  D:00A6H         PUBLIC        P2MDOUT
  C:700EH         PUBLIC        Init_All
  D:00E1H         PUBLIC        XBR0
  D:00C7H         PUBLIC        XBR2
  D:00FFH         PUBLIC        VDM0CN
  D:00F1H         PUBLIC        P0MDIN
  D:00F2H         PUBLIC        P1MDIN
  D:00D4H         PUBLIC        P0SKIP
  D:00D5H         PUBLIC        P1SKIP
  D:008FH         PUBLIC        CLKSEL
  D:00A1H         PUBLIC        OSCICN
  C:7079H         SYMBOL        Sys_ClkInit
  C:6ED8H         PUBLIC        Sys_PortInit
  D:00EFH         PUBLIC        RSTSRC
  -------         PROC          INIT_SYSTEMPARA
  C:64D5H         LINE#         26
  C:64D5H         LINE#         27
  C:64D5H         LINE#         28
  C:64DBH         LINE#         29
  C:64DFH         LINE#         30
  C:64FCH         LINE#         32
  C:6506H         LINE#         33
  C:650CH         LINE#         34
  C:6512H         LINE#         35
  C:651CH         LINE#         36
  C:6525H         LINE#         37
  C:6528H         LINE#         40
  -------         ENDPROC       INIT_SYSTEMPARA
  -------         PROC          SYS_CLKINIT
  -------         DO            
  D:0007H         SYMBOL        SfrPage_
  -------         ENDDO         
  C:7079H         LINE#         42
  C:7079H         LINE#         43
  C:707BH         LINE#         45
  C:707EH         LINE#         47
  C:7081H         LINE#         51
  C:7084H         LINE#         52
  C:7089H         LINE#         53
  C:708CH         LINE#         54
BL51 BANKED LINKER/LOCATER V6.22                                                      06/13/2013  10:29:17  PAGE 59


  C:708FH         LINE#         56
  C:7091H         LINE#         57
  -------         ENDPROC       SYS_CLKINIT
  -------         PROC          SYS_PORTINIT
  -------         DO            
  D:0007H         SYMBOL        SfrPage_
  -------         ENDDO         
  C:6ED8H         LINE#         59
  C:6ED8H         LINE#         60
  C:6ED8H         LINE#         61
  C:6EDAH         LINE#         62
  C:6EDDH         LINE#         63
  C:6EE0H         LINE#         64
  C:6EE3H         LINE#         65
  C:6EE6H         LINE#         66
  C:6EE9H         LINE#         67
  C:6EECH         LINE#         69
  C:6EEFH         LINE#         70
  C:6EF2H         LINE#         71
  C:6EF5H         LINE#         72
  C:6EF8H         LINE#         73
  C:6EFAH         LINE#         74
  -------         ENDPROC       SYS_PORTINIT
  -------         PROC          INIT_ALL
  C:700EH         LINE#         76
  C:700EH         LINE#         77
  C:700EH         LINE#         78
  C:7011H         LINE#         79
  C:7014H         LINE#         81
  C:7017H         LINE#         82
  C:701AH         LINE#         84
  C:701DH         LINE#         85
  C:7020H         LINE#         86
  C:7023H         LINE#         87
  C:7026H         LINE#         88
  -------         ENDPROC       INIT_ALL
  -------         ENDMOD        INIT

  -------         MODULE        KEY
  C:0000H         SYMBOL        _ICE_DUMMY_
  D:00A0H         PUBLIC        P2
  C:6E19H         PUBLIC        Key_Proc
  C:67DEH         SYMBOL        Key_Down
  D:0016H         PUBLIC        KeyEnb
  B:00A0H.4       PUBLIC        KEY_IO
  -------         PROC          KEY_DOWN
  -------         DO            
  X:0B64H         SYMBOL        KeyTime
  -------         ENDDO         
  C:67DEH         LINE#         26
  C:67DEH         LINE#         27
  C:67DEH         LINE#         30
  C:67E0H         LINE#         31
  C:67E7H         LINE#         32
  C:67EAH         LINE#         33
  C:67FCH         LINE#         34
  C:680AH         LINE#         35
BL51 BANKED LINKER/LOCATER V6.22                                                      06/13/2013  10:29:17  PAGE 60


  C:6816H         LINE#         36
  C:6819H         LINE#         38
  C:681CH         LINE#         39
  C:681CH         LINE#         41
  C:6823H         LINE#         42
  C:6824H         LINE#         43
  C:6824H         LINE#         44
  -------         ENDPROC       KEY_DOWN
  -------         PROC          KEY_PROC
  C:6E19H         LINE#         46
  C:6E19H         LINE#         47
  C:6E19H         LINE#         48
  C:6E1DH         LINE#         49
  C:6E23H         LINE#         50
  C:6E23H         LINE#         51
  C:6E29H         LINE#         52
  C:6E2FH         LINE#         53
  C:6E3AH         LINE#         54
  C:6E3DH         LINE#         55
  C:6E40H         LINE#         56
  C:6E40H         LINE#         57
  -------         ENDPROC       KEY_PROC
  -------         ENDMOD        KEY

  -------         MODULE        MAIN
  C:0000H         SYMBOL        _ICE_DUMMY_
  C:758AH         PUBLIC        Main_Temp
  D:00A0H         PUBLIC        P2
  B:00A8H.7       PUBLIC        EA
  B:00A0H.5       PUBLIC        LED_S
  D:00A7H         PUBLIC        SFRPAGE
  B:00A0H.7       PUBLIC        LED_X
  B:00A0H.6       PUBLIC        LED_Y
  D:00D9H         PUBLIC        PCA0MD
  C:6C4BH         PUBLIC        main
  X:0B5FH         PUBLIC        AlarmHighLow
  X:0B61H         PUBLIC        MenuId
  X:0B62H         PUBLIC        TempA
  -------         PROC          MAIN_TEMP
  C:758AH         LINE#         27
  C:758AH         LINE#         28
  C:758AH         LINE#         29
  C:758CH         LINE#         30
  C:758EH         LINE#         31
  C:7590H         LINE#         32
  -------         ENDPROC       MAIN_TEMP
  -------         PROC          MAIN
  C:6C4BH         LINE#         34
  C:6C4BH         LINE#         35
  C:6C4BH         LINE#         36
  C:6C4EH         LINE#         37
  C:6C51H         LINE#         38
  C:6C54H         LINE#         39
  C:6C56H         LINE#         40
  C:6C59H         LINE#         41
  C:6C5EH         LINE#         42
  C:6C61H         LINE#         43
BL51 BANKED LINKER/LOCATER V6.22                                                      06/13/2013  10:29:17  PAGE 61


  C:6C67H         LINE#         44
  C:6C67H         LINE#         45
  C:6C67H         LINE#         46
  C:6C6AH         LINE#         47
  C:6C6DH         LINE#         48
  C:6C70H         LINE#         49
  C:6C73H         LINE#         50
  C:6C76H         LINE#         51
  C:6C7DH         LINE#         52
  -------         ENDPROC       MAIN
  -------         ENDMOD        MAIN

  -------         MODULE        MODBUSCRC
  C:0000H         SYMBOL        _ICE_DUMMY_
  D:00A0H         PUBLIC        P2
  C:6BA1H         PUBLIC        _ModbusCrcCnt
  C:3899H         SYMBOL        CrcTabHi
  C:3999H         SYMBOL        CrcTabLi
  -------         PROC          _MODBUSCRCCNT
  D:0034H         SYMBOL        ptr
  D:0005H         SYMBOL        len
  -------         DO            
  D:0002H         SYMBOL        index
  D:0007H         SYMBOL        crchi
  D:0004H         SYMBOL        crcli
  -------         ENDDO         
  C:6BA1H         LINE#         114
  C:6BA7H         LINE#         115
  C:6BA7H         LINE#         119
  C:6BA9H         LINE#         120
  C:6BABH         LINE#         122
  C:6BB1H         LINE#         123
  C:6BB1H         LINE#         124
  C:6BC6H         LINE#         125
  C:6BCCH         LINE#         126
  C:6BD2H         LINE#         127
  C:6BD4H         LINE#         128
  C:6BDAH         LINE#         129
  -------         ENDPROC       _MODBUSCRCCNT
  -------         ENDMOD        MODBUSCRC

  -------         MODULE        MODBUSRTU
  C:0000H         SYMBOL        _ICE_DUMMY_
  D:00A0H         PUBLIC        P2
  C:68B1H         SYMBOL        _ModRtu_RlyError
  C:6E41H         PUBLIC        _ModRtu_WrAddr
  C:6E8FH         PUBLIC        _ModRtu_WrBaud
  X:0B4FH         PUBLIC        AngRange
  C:6C7FH         PUBLIC        _ModRtu_SetZero
  C:4D23H         SYMBOL        _ModRtu_RdReg
  C:004EH         PUBLIC        _ModRtu_RdVal
  C:6BDBH         PUBLIC        _ModRtu_RxProc
  C:74AFH         PUBLIC        _ModRtu_WrCrc
  C:4A5BH         SYMBOL        _ModRtu_WrReg
  X:0B51H         SYMBOL        udflashtag
  C:1728H         PUBLIC        _ModRtu_WrVal
  C:746CH         PUBLIC        _ModRtu_8to16
BL51 BANKED LINKER/LOCATER V6.22                                                      06/13/2013  10:29:17  PAGE 62


  C:73DBH         PUBLIC        _ModRtu_Rd16u
  C:6F23H         PUBLIC        _ModRtu_Wr16u
  C:58ACH         SYMBOL        _FloatToInt
  C:7133H         PUBLIC        _ModRtu_ChkCrc
  X:0B52H         PUBLIC        AngAlarmOffset
  X:0B56H         PUBLIC        Addr
  C:58A2H         SYMBOL        L?0727
  -------         PROC          L?0726
  -------         ENDPROC       L?0726
  C:58A2H         SYMBOL        L?0727
  -------         PROC          _FLOATTOINT
  D:0036H         SYMBOL        ang
  D:003AH         SYMBOL        highlow
  -------         DO            
  D:003CH         SYMBOL        temp
  D:0040H         SYMBOL        vol
  -------         ENDDO         
  C:58ACH         LINE#         27
  C:58B4H         LINE#         28
  C:58B4H         LINE#         32
  C:58C6H         LINE#         33
  C:58CEH         LINE#         35
  C:58DEH         LINE#         36
  C:58DEH         LINE#         37
  C:58F1H         LINE#         38
  C:58FEH         LINE#         39
  C:5900H         LINE#         41
  C:5900H         LINE#         42
  C:5913H         LINE#         43
  C:592AH         LINE#         44
  C:592AH         LINE#         45
  C:592EH         LINE#         46
  -------         ENDPROC       _FLOATTOINT
  -------         PROC          _MODRTU_CHKCRC
  D:0001H         SYMBOL        buf
  D:0005H         SYMBOL        len
  C:7133H         LINE#         54
  C:7133H         LINE#         55
  C:7133H         LINE#         56
  C:7139H         LINE#         57
  C:7139H         LINE#         58
  C:713CH         LINE#         59
  C:713CH         LINE#         60
  C:7143H         LINE#         61
  C:7143H         LINE#         62
  C:7146H         LINE#         63
  C:7146H         LINE#         65
  C:7146H         LINE#         66
  C:7148H         LINE#         67
  C:7148H         LINE#         68
  -------         ENDPROC       _MODRTU_CHKCRC
  -------         PROC          _MODRTU_WRCRC
  D:0001H         SYMBOL        buf
  D:0004H         SYMBOL        crc
  C:74AFH         LINE#         76
  C:74AFH         LINE#         77
  C:74AFH         LINE#         78
BL51 BANKED LINKER/LOCATER V6.22                                                      06/13/2013  10:29:17  PAGE 63


  C:74B3H         LINE#         79
  -------         ENDPROC       _MODRTU_WRCRC
  -------         PROC          _MODRTU_8TO16
  D:0001H         SYMBOL        buf
  -------         DO            
  D:0006H         SYMBOL        temp
  -------         ENDDO         
  C:746CH         LINE#         88
  C:746CH         LINE#         89
  C:746CH         LINE#         92
  C:746FH         LINE#         93
  C:7470H         LINE#         94
  C:7477H         LINE#         95
  C:7477H         LINE#         96
  -------         ENDPROC       _MODRTU_8TO16
  -------         PROC          _MODRTU_SETZERO
  D:0001H         SYMBOL        buf
  -------         DO            
  D:0035H         SYMBOL        temp
  -------         ENDDO         
  C:6C7FH         LINE#         104
  C:6C7FH         LINE#         105
  C:6C7FH         LINE#         106
  C:6C86H         LINE#         108
  C:6C8EH         LINE#         109
  C:6C8EH         LINE#         110
  C:6C94H         LINE#         111
  C:6C97H         LINE#         112
  C:6C99H         LINE#         113
  C:6C9FH         LINE#         114
  C:6C9FH         LINE#         115
  C:6CA6H         LINE#         116
  C:6CB1H         LINE#         117
  C:6CB1H         LINE#         118
  -------         ENDPROC       _MODRTU_SETZERO
  C:6F1DH         SYMBOL        L?0729
  -------         PROC          L?0728
  -------         ENDPROC       L?0728
  C:6F1DH         SYMBOL        L?0729
  -------         PROC          _MODRTU_WR16U
  D:0001H         SYMBOL        buf
  -------         DO            
  D:0006H         SYMBOL        temp
  D:0004H         SYMBOL        dat
  -------         ENDDO         
  C:6F23H         LINE#         126
  C:6F23H         LINE#         127
  C:6F23H         LINE#         131
  C:6F26H         LINE#         132
  C:6F27H         LINE#         133
  C:6F2EH         LINE#         134
  C:6F3DH         LINE#         135
  C:6F3DH         LINE#         136
  -------         ENDPROC       _MODRTU_WR16U
  -------         PROC          _MODRTU_WRADDR
  D:0001H         SYMBOL        buf
  -------         DO            
BL51 BANKED LINKER/LOCATER V6.22                                                      06/13/2013  10:29:17  PAGE 64


  D:0006H         SYMBOL        temp
  -------         ENDDO         
  C:6E41H         LINE#         144
  C:6E41H         LINE#         145
  C:6E41H         LINE#         148
  C:6E44H         LINE#         149
  C:6E45H         LINE#         150
  C:6E4CH         LINE#         151
  C:6E61H         LINE#         152
  C:6E66H         LINE#         153
  C:6E68H         LINE#         154
  -------         ENDPROC       _MODRTU_WRADDR
  -------         PROC          _MODRTU_WRBAUD
  D:0001H         SYMBOL        buf
  -------         DO            
  D:0006H         SYMBOL        temp
  -------         ENDDO         
  C:6E8FH         LINE#         162
  C:6E8FH         LINE#         163
  C:6E8FH         LINE#         166
  C:6E92H         LINE#         167
  C:6E93H         LINE#         168
  C:6E9AH         LINE#         169
  C:6EACH         LINE#         170
  C:6EB1H         LINE#         171
  C:6EB3H         LINE#         172
  -------         ENDPROC       _MODRTU_WRBAUD
  -------         PROC          _MODRTU_WRVAL
  D:0030H         SYMBOL        addr
  D:0032H         SYMBOL        buf
  -------         DO            
  X:0B4AH         SYMBOL        vol32u
  X:0B4EH         SYMBOL        vol8u
  X:0B57H         SYMBOL        volf
  X:0B5BH         SYMBOL        pc_data
  X:0B5DH         SYMBOL        vol16s
  -------         ENDDO         
  C:1728H         LINE#         180
  C:1732H         LINE#         181
  C:1732H         LINE#         188
  C:174AH         LINE#         189
  C:188AH         LINE#         190
  C:188AH         LINE#         191
  C:1890H         LINE#         192
  C:1890H         LINE#         193
  C:1892H         LINE#         194
  C:1898H         LINE#         195
  C:1898H         LINE#         196
  C:189AH         LINE#         197
  C:18A0H         LINE#         198
  C:18A0H         LINE#         199
  C:18A2H         LINE#         200
  C:18A8H         LINE#         201
  C:18A8H         LINE#         202
  C:18AAH         LINE#         203
  C:18B0H         LINE#         204
  C:18B0H         LINE#         205
BL51 BANKED LINKER/LOCATER V6.22                                                      06/13/2013  10:29:17  PAGE 65


  C:18B2H         LINE#         206
  C:18BBH         LINE#         207
  C:18C1H         LINE#         208
  C:18C4H         LINE#         212
  C:18C4H         LINE#         213
  C:18CAH         LINE#         214
  C:18D3H         LINE#         215
  C:18D3H         LINE#         216
  C:18D9H         LINE#         217
  C:18E2H         LINE#         219
  C:18E2H         LINE#         220
  C:18E2H         LINE#         221
  C:18E2H         LINE#         222
  C:18E2H         LINE#         224
  C:18E2H         LINE#         226
  C:18E2H         LINE#         227
  C:18E2H         LINE#         231
  C:18E2H         LINE#         232
  C:18E2H         LINE#         233
  C:18E2H         LINE#         235
  C:18E2H         LINE#         237
  C:18E2H         LINE#         238
  C:18E2H         LINE#         242
  C:18E2H         LINE#         243
  C:18E2H         LINE#         244
  C:18E2H         LINE#         245
  C:18F7H         LINE#         246
  C:18FAH         LINE#         247
  C:18FAH         LINE#         248
  C:18FAH         LINE#         249
  C:18FAH         LINE#         250
  C:18FDH         LINE#         251
  C:18FDH         LINE#         252
  C:18FDH         LINE#         253
  C:18FDH         LINE#         254
  C:18FDH         LINE#         255
  C:18FDH         LINE#         256
  C:1900H         LINE#         257
  C:1900H         LINE#         258
  C:1900H         LINE#         259
  C:1900H         LINE#         260
  C:1903H         LINE#         261
  C:1903H         LINE#         262
  C:1903H         LINE#         263
  C:1903H         LINE#         264
  C:1903H         LINE#         265
  C:1903H         LINE#         266
  C:1906H         LINE#         267
  C:1906H         LINE#         268
  C:1906H         LINE#         269
  C:1906H         LINE#         270
  C:1909H         LINE#         271
  C:1909H         LINE#         272
  C:1909H         LINE#         273
  C:1909H         LINE#         274
  C:1909H         LINE#         275
  C:1909H         LINE#         276
BL51 BANKED LINKER/LOCATER V6.22                                                      06/13/2013  10:29:17  PAGE 66


  C:190CH         LINE#         277
  C:190CH         LINE#         278
  C:190CH         LINE#         279
  C:190CH         LINE#         280
  C:190FH         LINE#         281
  C:190FH         LINE#         282
  C:190FH         LINE#         283
  C:190FH         LINE#         284
  C:190FH         LINE#         285
  C:190FH         LINE#         286
  C:1912H         LINE#         287
  C:1912H         LINE#         288
  C:1912H         LINE#         289
  C:1912H         LINE#         290
  C:1915H         LINE#         291
  C:1915H         LINE#         292
  C:1915H         LINE#         293
  C:1958H         LINE#         294
  C:1974H         LINE#         295
  C:1974H         LINE#         296
  C:1977H         LINE#         297
  C:1979H         LINE#         298
  C:1998H         LINE#         299
  C:1998H         LINE#         300
  C:199FH         LINE#         301
  C:199FH         LINE#         302
  C:19A2H         LINE#         303
  C:19A2H         LINE#         304
  C:19A2H         LINE#         305
  C:19A2H         LINE#         306
  C:19A5H         LINE#         307
  C:19A5H         LINE#         308
  C:19A5H         LINE#         309
  C:19E8H         LINE#         310
  C:1A04H         LINE#         311
  C:1A04H         LINE#         312
  C:1A04H         LINE#         313
  C:1A07H         LINE#         314
  C:1A26H         LINE#         315
  C:1A26H         LINE#         316
  C:1A2AH         LINE#         317
  C:1A2AH         LINE#         318
  C:1A2DH         LINE#         319
  C:1A2DH         LINE#         320
  C:1A2DH         LINE#         321
  C:1A2DH         LINE#         322
  C:1A30H         LINE#         323
  C:1A30H         LINE#         324
  C:1A30H         LINE#         325
  C:1A30H         LINE#         326
  C:1A30H         LINE#         327
  C:1A30H         LINE#         328
  C:1A33H         LINE#         329
  C:1A33H         LINE#         330
  C:1A33H         LINE#         331
  C:1A33H         LINE#         332
  C:1A36H         LINE#         333
BL51 BANKED LINKER/LOCATER V6.22                                                      06/13/2013  10:29:17  PAGE 67


  C:1A36H         LINE#         334
  C:1A36H         LINE#         335
  C:1A36H         LINE#         336
  C:1A36H         LINE#         337
  C:1A36H         LINE#         339
  C:1A39H         LINE#         340
  C:1A39H         LINE#         341
  C:1A39H         LINE#         342
  C:1A49H         LINE#         343
  C:1A5CH         LINE#         344
  C:1A5CH         LINE#         345
  C:1A5CH         LINE#         346
  C:1A6FH         LINE#         347
  C:1A6FH         LINE#         348
  C:1A72H         LINE#         349
  C:1A72H         LINE#         350
  C:1A75H         LINE#         354
  C:1A75H         LINE#         355
  C:1A75H         LINE#         356
  C:1A75H         LINE#         357
  C:1A75H         LINE#         358
  C:1A75H         LINE#         359
  C:1A75H         LINE#         360
  C:1A75H         LINE#         361
  C:1A75H         LINE#         362
  C:1A75H         LINE#         363
  C:1A94H         LINE#         364
  C:1AA7H         LINE#         365
  C:1AAAH         LINE#         366
  C:1AAAH         LINE#         367
  C:1AAAH         LINE#         368
  C:1AB7H         LINE#         369
  C:1AC8H         LINE#         370
  C:1AD0H         LINE#         371
  C:1AF0H         LINE#         372
  C:1AF0H         LINE#         373
  C:1AF2H         LINE#         374
  C:1AF6H         LINE#         375
  C:1AFAH         LINE#         376
  C:1AFEH         LINE#         377
  C:1B02H         LINE#         378
  C:1B06H         LINE#         379
  C:1B0AH         LINE#         380
  C:1B12H         LINE#         381
  C:1B12H         LINE#         382
  C:1B12H         LINE#         383
  C:1B12H         LINE#         384
  C:1B12H         LINE#         385
  C:1B12H         LINE#         386
  C:1B15H         LINE#         388
  C:1B15H         LINE#         389
  C:1B15H         LINE#         390
  C:1B58H         LINE#         391
  C:1B6CH         LINE#         392
  C:1B89H         LINE#         393
  C:1B89H         LINE#         394
  C:1B9DH         LINE#         395
BL51 BANKED LINKER/LOCATER V6.22                                                      06/13/2013  10:29:17  PAGE 68


  C:1B9FH         LINE#         397
  C:1B9FH         LINE#         398
  C:1BBBH         LINE#         399
  C:1BBBH         LINE#         400
  C:1BCAH         LINE#         401
  C:1BCAH         LINE#         402
  C:1BD6H         LINE#         403
  C:1BD6H         LINE#         404
  C:1BD9H         LINE#         405
  C:1BE8H         LINE#         406
  C:1BE8H         LINE#         407
  C:1C06H         LINE#         408
  C:1C2BH         LINE#         409
  C:1C2BH         LINE#         410
  C:1C34H         LINE#         411
  C:1C3EH         LINE#         412
  C:1C49H         LINE#         413
  C:1C54H         LINE#         414
  C:1C5FH         LINE#         415
  C:1C6AH         LINE#         416
  C:1C75H         LINE#         417
  C:1C75H         LINE#         418
  C:1C75H         LINE#         420
  C:1C75H         LINE#         421
  C:1C8CH         LINE#         422
  C:1CA6H         LINE#         424
  C:1CA6H         LINE#         425
  C:1CAEH         LINE#         426
  C:1CAEH         LINE#         427
  C:1CD2H         LINE#         428
  C:1CDEH         LINE#         429
  C:1CE1H         LINE#         431
  C:1CE1H         LINE#         432
  C:1D06H         LINE#         433
  C:1D12H         LINE#         435
  C:1D12H         LINE#         436
  C:1D15H         LINE#         437
  C:1D15H         LINE#         438
  C:1D15H         LINE#         439
  C:1D35H         LINE#         440
  C:1D41H         LINE#         441
  C:1D41H         LINE#         442
  C:1D44H         LINE#         443
  C:1D44H         LINE#         444
  C:1D47H         LINE#         445
  C:1D47H         LINE#         446
  C:1D47H         LINE#         447
  C:1D67H         LINE#         448
  C:1D80H         LINE#         449
  C:1D80H         LINE#         450
  C:1D86H         LINE#         451
  C:1D89H         LINE#         452
  C:1D8BH         LINE#         453
  C:1D96H         LINE#         454
  C:1DA1H         LINE#         455
  C:1DA4H         LINE#         456
  C:1DAAH         LINE#         457
BL51 BANKED LINKER/LOCATER V6.22                                                      06/13/2013  10:29:17  PAGE 69


  C:1DADH         LINE#         458
  C:1DAFH         LINE#         459
  C:1DBAH         LINE#         460
  C:1DC5H         LINE#         461
  C:1DC8H         LINE#         462
  C:1DC8H         LINE#         463
  C:1DC8H         LINE#         464
  C:1DC8H         LINE#         465
  C:1DC8H         LINE#         466
  C:1DC8H         LINE#         467
  C:1DCBH         LINE#         468
  C:1DCBH         LINE#         469
  C:1DCBH         LINE#         470
  C:1E0EH         LINE#         471
  C:1E22H         LINE#         472
  C:1E40H         LINE#         473
  C:1E43H         LINE#         474
  C:1E43H         LINE#         475
  C:1E43H         LINE#         476
  C:1E43H         LINE#         477
  C:1E46H         LINE#         478
  C:1E46H         LINE#         479
  C:1E46H         LINE#         480
  C:1E89H         LINE#         481
  C:1E9DH         LINE#         482
  C:1EBBH         LINE#         483
  C:1EBEH         LINE#         484
  C:1EBEH         LINE#         485
  C:1EBEH         LINE#         486
  C:1EBEH         LINE#         487
  C:1EC1H         LINE#         488
  C:1EC1H         LINE#         489
  C:1EC1H         LINE#         490
  C:1F04H         LINE#         491
  C:1F18H         LINE#         492
  C:1F36H         LINE#         493
  C:1F39H         LINE#         494
  C:1F39H         LINE#         495
  C:1F39H         LINE#         496
  C:1F39H         LINE#         497
  C:1F3CH         LINE#         498
  C:1F3CH         LINE#         499
  C:1F3CH         LINE#         500
  C:1F7FH         LINE#         501
  C:1F93H         LINE#         502
  C:1FB1H         LINE#         503
  C:1FB4H         LINE#         504
  C:1FB4H         LINE#         505
  C:1FB4H         LINE#         506
  C:1FB4H         LINE#         507
  C:1FB6H         LINE#         508
  C:1FB6H         LINE#         509
  C:1FB6H         LINE#         510
  C:1FF9H         LINE#         511
  C:200DH         LINE#         512
  C:202BH         LINE#         513
  C:202EH         LINE#         514
BL51 BANKED LINKER/LOCATER V6.22                                                      06/13/2013  10:29:17  PAGE 70


  C:202EH         LINE#         515
  C:202EH         LINE#         516
  C:203CH         LINE#         517
  C:203EH         LINE#         518
  C:203EH         LINE#         519
  C:203EH         LINE#         520
  C:2081H         LINE#         521
  C:2095H         LINE#         522
  C:20B6H         LINE#         523
  C:20B8H         LINE#         524
  C:20B8H         LINE#         525
  C:20B8H         LINE#         526
  C:20D7H         LINE#         527
  C:20DBH         LINE#         528
  C:20DDH         LINE#         529
  C:20DDH         LINE#         530
  C:20DDH         LINE#         531
  C:20FCH         LINE#         532
  C:20FFH         LINE#         533
  C:2101H         LINE#         535
  C:2101H         LINE#         536
  C:2101H         LINE#         538
  C:2101H         LINE#         540
  C:2101H         LINE#         541
  C:2101H         LINE#         545
  C:2101H         LINE#         546
  C:2101H         LINE#         547
  C:2101H         LINE#         549
  C:2101H         LINE#         551
  C:2101H         LINE#         552
  C:2101H         LINE#         556
  C:2101H         LINE#         558
  C:2101H         LINE#         559
  C:2101H         LINE#         561
  C:2101H         LINE#         563
  C:2101H         LINE#         564
  C:2101H         LINE#         566
  C:2101H         LINE#         567
  C:2101H         LINE#         568
  C:2101H         LINE#         570
  C:2101H         LINE#         573
  C:2101H         LINE#         574
  C:2101H         LINE#         576
  C:2101H         LINE#         578
  C:2101H         LINE#         579
  C:2101H         LINE#         581
  C:2101H         LINE#         582
  C:2101H         LINE#         583
  C:2101H         LINE#         585
  C:2101H         LINE#         587
  C:2101H         LINE#         588
  C:2101H         LINE#         590
  C:2101H         LINE#         592
  C:2101H         LINE#         593
  C:2101H         LINE#         595
  C:2101H         LINE#         596
  C:2101H         LINE#         597
BL51 BANKED LINKER/LOCATER V6.22                                                      06/13/2013  10:29:17  PAGE 71


  C:2101H         LINE#         599
  C:2101H         LINE#         602
  C:2101H         LINE#         603
  C:2101H         LINE#         605
  C:2101H         LINE#         607
  C:2101H         LINE#         608
  C:2101H         LINE#         610
  C:2101H         LINE#         611
  C:2101H         LINE#         612
  C:2101H         LINE#         614
  C:2101H         LINE#         617
  C:2101H         LINE#         618
  C:2101H         LINE#         619
  C:2104H         LINE#         620
  C:2104H         LINE#         621
  C:2106H         LINE#         622
  -------         ENDPROC       _MODRTU_WRVAL
  -------         PROC          _MODRTU_RD16U
  D:0001H         SYMBOL        buf
  D:0004H         SYMBOL        dat
  C:73DBH         LINE#         630
  C:73DBH         LINE#         631
  C:73DBH         LINE#         632
  C:73E1H         LINE#         633
  -------         ENDPROC       _MODRTU_RD16U
  -------         PROC          _MODRTU_RDVAL
  D:0031H         SYMBOL        addr
  D:0033H         SYMBOL        buf
  -------         DO            
  X:0B57H         SYMBOL        pc_data
  X:0B59H         SYMBOL        vol16s
  -------         ENDDO         
  C:004EH         LINE#         642
  C:0058H         LINE#         643
  C:0058H         LINE#         647
  C:062CH         LINE#         648
  C:062CH         LINE#         650
  C:0631H         LINE#         651
  C:0636H         LINE#         653
  C:063BH         LINE#         655
  C:0640H         LINE#         656
  C:0645H         LINE#         658
  C:064AH         LINE#         659
  C:064FH         LINE#         661
  C:0661H         LINE#         662
  C:066CH         LINE#         663
  C:067FH         LINE#         665
  C:067FH         LINE#         666
  C:067FH         LINE#         667
  C:0682H         LINE#         668
  C:0685H         LINE#         669
  C:0688H         LINE#         670
  C:068BH         LINE#         671
  C:068EH         LINE#         672
  C:0691H         LINE#         673
  C:0694H         LINE#         674
  C:0697H         LINE#         675
BL51 BANKED LINKER/LOCATER V6.22                                                      06/13/2013  10:29:17  PAGE 72


  C:069AH         LINE#         676
  C:069DH         LINE#         677
  C:06A0H         LINE#         678
  C:06A3H         LINE#         679
  C:06A6H         LINE#         680
  C:06A9H         LINE#         681
  C:06A9H         LINE#         682
  C:06A9H         LINE#         683
  C:06A9H         LINE#         684
  C:06A9H         LINE#         685
  C:06A9H         LINE#         686
  C:06A9H         LINE#         687
  C:06A9H         LINE#         688
  C:06AFH         LINE#         689
  C:06B2H         LINE#         690
  C:06B5H         LINE#         691
  C:06B8H         LINE#         692
  C:06BBH         LINE#         693
  C:06BEH         LINE#         694
  C:06C1H         LINE#         695
  C:06C4H         LINE#         696
  C:06C7H         LINE#         697
  C:06CAH         LINE#         698
  C:06CDH         LINE#         699
  C:06D0H         LINE#         700
  C:06D3H         LINE#         701
  C:06D6H         LINE#         702
  C:06D9H         LINE#         703
  C:06DCH         LINE#         704
  C:06DFH         LINE#         705
  C:06DFH         LINE#         706
  C:06DFH         LINE#         707
  C:06E2H         LINE#         708
  C:06E8H         LINE#         709
  C:06E8H         LINE#         710
  C:06E8H         LINE#         713
  C:06F4H         LINE#         714
  C:06FAH         LINE#         715
  C:06FAH         LINE#         716
  C:06FAH         LINE#         717
  C:06FAH         LINE#         718
  C:06FAH         LINE#         719
  C:06FAH         LINE#         720
  C:06FAH         LINE#         721
  C:06FAH         LINE#         722
  C:06FAH         LINE#         723
  C:06FAH         LINE#         724
  C:06FAH         LINE#         725
  C:06FAH         LINE#         726
  C:06FAH         LINE#         727
  C:06FAH         LINE#         728
  C:06FAH         LINE#         729
  C:06FAH         LINE#         730
  C:06FAH         LINE#         731
  C:06FAH         LINE#         732
  C:06FAH         LINE#         733
  C:06FAH         LINE#         734
BL51 BANKED LINKER/LOCATER V6.22                                                      06/13/2013  10:29:17  PAGE 73


  C:06FAH         LINE#         735
  C:06FAH         LINE#         736
  C:06FAH         LINE#         737
  C:0705H         LINE#         738
  C:0705H         LINE#         739
  C:0705H         LINE#         740
  C:0705H         LINE#         741
  C:0705H         LINE#         742
  C:0705H         LINE#         743
  C:0705H         LINE#         744
  C:0705H         LINE#         745
  C:0705H         LINE#         746
  C:0705H         LINE#         747
  C:0705H         LINE#         748
  C:0705H         LINE#         749
  C:0705H         LINE#         750
  C:0705H         LINE#         751
  C:0705H         LINE#         752
  C:0705H         LINE#         753
  C:0705H         LINE#         754
  C:0705H         LINE#         755
  C:0705H         LINE#         756
  C:0705H         LINE#         757
  C:0705H         LINE#         758
  C:0710H         LINE#         759
  C:0710H         LINE#         760
  C:0710H         LINE#         761
  C:0710H         LINE#         762
  C:0710H         LINE#         763
  C:0710H         LINE#         764
  C:0710H         LINE#         765
  C:0710H         LINE#         766
  C:0710H         LINE#         767
  C:0710H         LINE#         768
  C:0710H         LINE#         769
  C:0710H         LINE#         770
  C:0710H         LINE#         771
  C:0710H         LINE#         772
  C:0710H         LINE#         773
  C:0710H         LINE#         774
  C:0710H         LINE#         775
  C:0710H         LINE#         776
  C:0710H         LINE#         777
  C:0710H         LINE#         778
  C:0710H         LINE#         779
  C:071BH         LINE#         780
  C:071BH         LINE#         781
  C:071BH         LINE#         782
  C:071BH         LINE#         783
  C:071BH         LINE#         784
  C:071BH         LINE#         785
  C:071BH         LINE#         786
  C:071BH         LINE#         787
  C:071BH         LINE#         788
  C:071BH         LINE#         789
  C:071BH         LINE#         790
  C:071BH         LINE#         791
BL51 BANKED LINKER/LOCATER V6.22                                                      06/13/2013  10:29:17  PAGE 74


  C:071BH         LINE#         793
  C:0728H         LINE#         794
  C:072EH         LINE#         795
  C:0737H         LINE#         796
  C:074AH         LINE#         797
  C:074AH         LINE#         798
  C:074AH         LINE#         799
  C:074AH         LINE#         800
  C:074AH         LINE#         801
  C:074AH         LINE#         802
  C:074AH         LINE#         803
  C:074AH         LINE#         804
  C:074AH         LINE#         805
  C:074AH         LINE#         806
  C:074AH         LINE#         807
  C:074AH         LINE#         808
  C:074AH         LINE#         809
  C:074AH         LINE#         810
  C:074AH         LINE#         811
  C:074AH         LINE#         812
  C:074AH         LINE#         813
  C:074AH         LINE#         814
  C:074AH         LINE#         815
  C:074AH         LINE#         816
  C:074AH         LINE#         817
  C:074AH         LINE#         818
  C:074AH         LINE#         819
  C:074AH         LINE#         820
  C:074AH         LINE#         821
  C:0755H         LINE#         822
  C:0755H         LINE#         823
  C:0755H         LINE#         824
  C:0755H         LINE#         825
  C:0755H         LINE#         826
  C:0755H         LINE#         827
  C:0755H         LINE#         828
  C:0755H         LINE#         829
  C:0755H         LINE#         830
  C:0755H         LINE#         831
  C:0755H         LINE#         832
  C:0755H         LINE#         833
  C:0755H         LINE#         834
  C:0755H         LINE#         835
  C:0755H         LINE#         836
  C:0755H         LINE#         837
  C:0755H         LINE#         838
  C:0755H         LINE#         839
  C:0755H         LINE#         840
  C:0755H         LINE#         841
  C:0755H         LINE#         842
  C:0755H         LINE#         843
  C:0755H         LINE#         844
  C:0755H         LINE#         845
  C:0755H         LINE#         846
  C:076CH         LINE#         847
  C:076CH         LINE#         848
  C:076CH         LINE#         849
BL51 BANKED LINKER/LOCATER V6.22                                                      06/13/2013  10:29:17  PAGE 75


  C:076CH         LINE#         850
  C:076CH         LINE#         851
  C:076CH         LINE#         852
  C:076CH         LINE#         853
  C:076CH         LINE#         854
  C:076CH         LINE#         855
  C:076CH         LINE#         856
  C:076CH         LINE#         857
  C:076CH         LINE#         858
  C:076CH         LINE#         859
  C:076CH         LINE#         860
  C:076CH         LINE#         861
  C:076CH         LINE#         862
  C:076CH         LINE#         863
  C:076CH         LINE#         864
  C:076CH         LINE#         865
  C:076CH         LINE#         866
  C:076CH         LINE#         867
  C:076CH         LINE#         868
  C:076CH         LINE#         869
  C:076CH         LINE#         870
  C:076CH         LINE#         871
  C:078DH         LINE#         873
  C:079AH         LINE#         874
  C:07A0H         LINE#         875
  C:07A9H         LINE#         876
  C:07BCH         LINE#         877
  C:07BCH         LINE#         878
  C:07BCH         LINE#         879
  C:07BCH         LINE#         880
  C:07BCH         LINE#         881
  C:07BCH         LINE#         882
  C:07BCH         LINE#         883
  C:07BCH         LINE#         884
  C:07BCH         LINE#         885
  C:07BCH         LINE#         886
  C:07BCH         LINE#         887
  C:07BCH         LINE#         888
  C:07BCH         LINE#         889
  C:07BCH         LINE#         890
  C:07BCH         LINE#         891
  C:07BCH         LINE#         892
  C:07BCH         LINE#         893
  C:07BCH         LINE#         894
  C:07BCH         LINE#         895
  C:07BCH         LINE#         896
  C:07BCH         LINE#         897
  C:07BCH         LINE#         898
  C:07BCH         LINE#         899
  C:07BCH         LINE#         900
  C:07BCH         LINE#         901
  C:07C7H         LINE#         902
  C:07C7H         LINE#         903
  C:07C7H         LINE#         904
  C:07C7H         LINE#         905
  C:07C7H         LINE#         906
  C:07C7H         LINE#         907
BL51 BANKED LINKER/LOCATER V6.22                                                      06/13/2013  10:29:17  PAGE 76


  C:07C7H         LINE#         908
  C:07C7H         LINE#         909
  C:07C7H         LINE#         910
  C:07C7H         LINE#         911
  C:07C7H         LINE#         912
  C:07C7H         LINE#         913
  C:07C7H         LINE#         914
  C:07C7H         LINE#         915
  C:07C7H         LINE#         916
  C:07C7H         LINE#         917
  C:07C7H         LINE#         918
  C:07C7H         LINE#         919
  C:07C7H         LINE#         920
  C:07C7H         LINE#         921
  C:07C7H         LINE#         922
  C:07C7H         LINE#         923
  C:07C7H         LINE#         924
  C:07C7H         LINE#         925
  C:07C7H         LINE#         926
  C:07DDH         LINE#         927
  C:07DDH         LINE#         928
  C:07DDH         LINE#         929
  C:07DDH         LINE#         930
  C:07DDH         LINE#         931
  C:07DDH         LINE#         932
  C:07DDH         LINE#         933
  C:07DDH         LINE#         934
  C:07DDH         LINE#         935
  C:07DDH         LINE#         936
  C:07DDH         LINE#         937
  C:07DDH         LINE#         938
  C:07DDH         LINE#         939
  C:07DDH         LINE#         940
  C:07DDH         LINE#         941
  C:07DDH         LINE#         942
  C:07DDH         LINE#         943
  C:07DDH         LINE#         944
  C:07DDH         LINE#         945
  C:07DDH         LINE#         946
  C:07DDH         LINE#         947
  C:07DDH         LINE#         948
  C:07DDH         LINE#         949
  C:07DDH         LINE#         950
  C:07DDH         LINE#         951
  C:07FDH         LINE#         953
  C:080AH         LINE#         954
  C:080FH         LINE#         955
  C:0814H         LINE#         956
  C:0819H         LINE#         957
  C:081EH         LINE#         958
  C:0823H         LINE#         959
  C:0828H         LINE#         960
  C:082DH         LINE#         961
  C:0841H         LINE#         962
  C:084BH         LINE#         963
  C:0855H         LINE#         964
  C:085FH         LINE#         965
BL51 BANKED LINKER/LOCATER V6.22                                                      06/13/2013  10:29:17  PAGE 77


  C:0869H         LINE#         966
  C:0876H         LINE#         967
  C:088DH         LINE#         968
  C:089AH         LINE#         969
  C:08B1H         LINE#         970
  C:08BEH         LINE#         971
  C:08D5H         LINE#         972
  C:08E2H         LINE#         973
  C:08F9H         LINE#         974
  C:0906H         LINE#         975
  C:091DH         LINE#         976
  C:092AH         LINE#         977
  C:0941H         LINE#         978
  C:094EH         LINE#         979
  C:0965H         LINE#         980
  C:0972H         LINE#         981
  C:0989H         LINE#         982
  C:0996H         LINE#         983
  C:09ADH         LINE#         984
  C:09BAH         LINE#         985
  C:09D1H         LINE#         986
  C:09DEH         LINE#         987
  C:09F5H         LINE#         988
  C:0A02H         LINE#         989
  C:0A19H         LINE#         990
  C:0A31H         LINE#         991
  C:0A53H         LINE#         992
  C:0A60H         LINE#         993
  C:0A77H         LINE#         994
  C:0A84H         LINE#         995
  C:0A9BH         LINE#         996
  C:0AA8H         LINE#         997
  C:0ABFH         LINE#         998
  C:0ACCH         LINE#         999
  C:0AE3H         LINE#         1000
  C:0AF0H         LINE#         1001
  C:0B07H         LINE#         1002
  C:0B14H         LINE#         1003
  C:0B2AH         LINE#         1005
  C:0B2AH         LINE#         1006
  C:0B2AH         LINE#         1007
  C:0B2AH         LINE#         1008
  C:0B2AH         LINE#         1009
  C:0B2AH         LINE#         1010
  C:0B2AH         LINE#         1012
  C:0B2AH         LINE#         1013
  C:0B2AH         LINE#         1014
  C:0B2AH         LINE#         1015
  C:0B2AH         LINE#         1016
  C:0B2AH         LINE#         1017
  C:0B2AH         LINE#         1019
  C:0B2AH         LINE#         1020
  C:0B2AH         LINE#         1021
  C:0B2AH         LINE#         1022
  C:0B2AH         LINE#         1024
  C:0B2EH         LINE#         1025
  C:0B3AH         LINE#         1026
BL51 BANKED LINKER/LOCATER V6.22                                                      06/13/2013  10:29:17  PAGE 78


  C:0B46H         LINE#         1027
  C:0B52H         LINE#         1028
  C:0B55H         LINE#         1029
  C:0B76H         LINE#         1030
  C:0B83H         LINE#         1031
  C:0B8EH         LINE#         1032
  C:0B99H         LINE#         1033
  C:0BA6H         LINE#         1034
  C:0BAEH         LINE#         1035
  C:0BB9H         LINE#         1036
  C:0BB9H         LINE#         1037
  C:0BB9H         LINE#         1038
  C:0BBCH         LINE#         1039
  C:0BBCH         LINE#         1040
  C:0BCDH         LINE#         1041
  C:0BCFH         LINE#         1042
  -------         ENDPROC       _MODRTU_RDVAL
  -------         PROC          _MODRTU_RDREG
  D:0025H         SYMBOL        buf
  -------         DO            
  D:0028H         SYMBOL        addr
  D:002AH         SYMBOL        i
  D:002CH         SYMBOL        j
  D:002EH         SYMBOL        crc
  D:0030H         SYMBOL        err_code
  -------         ENDDO         
  C:4D23H         LINE#         1055
  C:4D29H         LINE#         1056
  C:4D29H         LINE#         1058
  C:4D2EH         LINE#         1059
  C:4D30H         LINE#         1061
  C:4D38H         LINE#         1062
  C:4D4AH         LINE#         1063
  C:4D5CH         LINE#         1064
  C:4D6CH         LINE#         1065
  C:4D6CH         LINE#         1066
  C:4D90H         LINE#         1067
  C:4D90H         LINE#         1068
  C:4D93H         LINE#         1069
  C:4D95H         LINE#         1070
  C:4D95H         LINE#         1071
  C:4D9DH         LINE#         1072
  C:4DA7H         LINE#         1073
  C:4DACH         LINE#         1074
  C:4DACH         LINE#         1075
  C:4DB5H         LINE#         1077
  C:4DB5H         LINE#         1078
  C:4DC5H         LINE#         1079
  C:4DD7H         LINE#         1080
  C:4DE0H         LINE#         1081
  C:4DF3H         LINE#         1082
  C:4E01H         LINE#         1083
  C:4E04H         LINE#         1084
  -------         ENDPROC       _MODRTU_RDREG
  -------         PROC          _MODRTU_WRREG
  D:0025H         SYMBOL        buf
  D:0028H         SYMBOL        n
BL51 BANKED LINKER/LOCATER V6.22                                                      06/13/2013  10:29:17  PAGE 79


  -------         DO            
  D:0029H         SYMBOL        addr
  D:002BH         SYMBOL        i
  D:002DH         SYMBOL        j
  D:0004H         SYMBOL        crc
  D:002FH         SYMBOL        err_code
  -------         ENDDO         
  C:4A5BH         LINE#         1092
  C:4A63H         LINE#         1093
  C:4A63H         LINE#         1096
  C:4A66H         LINE#         1098
  C:4A74H         LINE#         1099
  C:4AAFH         LINE#         1100
  C:4ABDH         LINE#         1101
  C:4ACDH         LINE#         1102
  C:4ACDH         LINE#         1103
  C:4AF1H         LINE#         1104
  C:4AF1H         LINE#         1105
  C:4AF4H         LINE#         1106
  C:4AF6H         LINE#         1107
  C:4AF6H         LINE#         1108
  C:4AFEH         LINE#         1109
  C:4B08H         LINE#         1110
  C:4B13H         LINE#         1111
  C:4B18H         LINE#         1112
  C:4B18H         LINE#         1113
  C:4B1BH         LINE#         1115
  C:4B1BH         LINE#         1116
  C:4B2AH         LINE#         1117
  C:4B38H         LINE#         1118
  C:4B43H         LINE#         1119
  C:4B46H         LINE#         1120
  C:4B4DH         LINE#         1121
  C:4B4DH         LINE#         1122
  C:4B4FH         LINE#         1123
  C:4B52H         LINE#         1124
  C:4B52H         LINE#         1125
  -------         ENDPROC       _MODRTU_WRREG
  -------         PROC          _MODRTU_RLYERROR
  D:0031H         SYMBOL        buf
  -------         DO            
  D:0006H         SYMBOL        crc
  -------         ENDDO         
  C:68B1H         LINE#         1133
  C:68B7H         LINE#         1134
  C:68B7H         LINE#         1136
  C:68C6H         LINE#         1137
  C:68D4H         LINE#         1138
  C:68D9H         LINE#         1139
  C:68E6H         LINE#         1140
  C:68EDH         LINE#         1141
  C:68F2H         LINE#         1142
  -------         ENDPROC       _MODRTU_RLYERROR
  -------         PROC          _MODRTU_RXPROC
  D:0021H         SYMBOL        buf
  D:0024H         SYMBOL        n
  C:6BDBH         LINE#         1151
BL51 BANKED LINKER/LOCATER V6.22                                                      06/13/2013  10:29:17  PAGE 80


  C:6BE3H         LINE#         1152
  C:6BE3H         LINE#         1153
  C:6BE9H         LINE#         1155
  C:6BFDH         LINE#         1156
  C:6BFDH         LINE#         1157
  C:6C00H         LINE#         1158
  C:6C00H         LINE#         1159
  C:6C0BH         LINE#         1160
  C:6C0BH         LINE#         1161
  C:6C14H         LINE#         1162
  C:6C14H         LINE#         1163
  C:6C14H         LINE#         1164
  -------         ENDPROC       _MODRTU_RXPROC
  -------         ENDMOD        MODBUSRTU

  -------         MODULE        SEND
  C:0000H         SYMBOL        _ICE_DUMMY_
  C:3441H         PUBLIC        SendSpeed
  D:00A0H         PUBLIC        P2
  X:0AB8H         PUBLIC        Braud_Num
  D:00A7H         PUBLIC        SFRPAGE
  C:4417H         PUBLIC        Send_TimeProc
  D:000EH         SYMBOL        px_ax
  D:0010H         SYMBOL        py_ax
  C:3696H         SYMBOL        _Send_CDeal
  C:347DH         SYMBOL        _Send_RDeal
  C:2107H         SYMBOL        _Send_SDeal
  C:0003H         SYMBOL        _Send_TDeal
  C:6124H         SYMBOL        _Send_UDeal
  C:485CH         SYMBOL        _Send_WDeal
  D:00ACH         PUBLIC        SBRL0
  C:3455H         PUBLIC        Braud
  -------         PROC          SEND_TIMEPROC
  -------         DO            
  X:09F0H         SYMBOL        rx_buf
  D:0008H         SYMBOL        ptr
  D:000BH         SYMBOL        i
  D:000CH         SYMBOL        err
  D:000DH         SYMBOL        cmd
  -------         ENDDO         
  C:4417H         LINE#         39
  C:4417H         LINE#         40
  C:4417H         LINE#         47
  C:441DH         LINE#         49
  C:441FH         LINE#         50
  C:4428H         LINE#         51
  C:442BH         LINE#         52
  C:442BH         LINE#         53
  C:4446H         LINE#         54
  C:444CH         LINE#         55
  C:444CH         LINE#         56
  C:4455H         LINE#         57
  C:445CH         LINE#         58
  C:445CH         LINE#         60
  C:4465H         LINE#         61
  C:4465H         LINE#         62
  C:4465H         LINE#         63
BL51 BANKED LINKER/LOCATER V6.22                                                      06/13/2013  10:29:17  PAGE 81


  C:4467H         LINE#         66
  C:4467H         LINE#         68
  C:4477H         LINE#         69
  C:4477H         LINE#         71
  C:4482H         LINE#         73
  C:4482H         LINE#         75
  C:44A1H         LINE#         76
  C:44A1H         LINE#         78
  C:44AAH         LINE#         79
  C:44AAH         LINE#         80
  C:44B4H         LINE#         81
  C:44B5H         LINE#         84
  C:44B5H         LINE#         85
  C:44BBH         LINE#         86
  C:44D3H         LINE#         87
  C:44DBH         LINE#         88
  C:44E6H         LINE#         89
  C:44E6H         LINE#         90
  C:44EEH         LINE#         91
  C:44F9H         LINE#         92
  C:44F9H         LINE#         93
  C:4504H         LINE#         94
  C:4504H         LINE#         95
  C:450FH         LINE#         96
  C:450FH         LINE#         97
  C:4516H         LINE#         98
  C:4521H         LINE#         99
  C:4521H         LINE#         100
  C:4528H         LINE#         101
  C:4533H         LINE#         102
  C:4533H         LINE#         103
  C:4533H         LINE#         104
  -------         ENDPROC       SEND_TIMEPROC
  -------         PROC          _SEND_RDEAL
  D:0021H         SYMBOL        buf
  D:0024H         SYMBOL        n
  -------         DO            
  D:0025H         SYMBOL        data_8u
  -------         ENDDO         
  C:347DH         LINE#         112
  C:3485H         LINE#         113
  C:3485H         LINE#         115
  C:349AH         LINE#         116
  C:34A3H         LINE#         117
  C:34A6H         LINE#         118
  C:34A6H         LINE#         119
  C:34C1H         LINE#         120
  C:34CAH         LINE#         121
  C:34CDH         LINE#         122
  C:34CDH         LINE#         123
  C:34E8H         LINE#         124
  C:34F1H         LINE#         125
  C:34F4H         LINE#         126
  C:34F4H         LINE#         127
  C:350FH         LINE#         128
  C:3518H         LINE#         129
  C:351BH         LINE#         130
BL51 BANKED LINKER/LOCATER V6.22                                                      06/13/2013  10:29:17  PAGE 82


  C:351BH         LINE#         131
  C:3536H         LINE#         132
  C:353FH         LINE#         133
  C:3542H         LINE#         134
  C:3542H         LINE#         135
  C:355DH         LINE#         136
  C:3566H         LINE#         137
  C:3569H         LINE#         138
  C:3569H         LINE#         139
  C:3584H         LINE#         140
  C:358DH         LINE#         141
  C:359DH         LINE#         142
  C:35A7H         LINE#         143
  C:35ACH         LINE#         144
  C:35ACH         LINE#         145
  C:35C7H         LINE#         146
  C:35D0H         LINE#         147
  C:35DBH         LINE#         148
  C:35DEH         LINE#         149
  C:35E0H         LINE#         150
  C:35FBH         LINE#         151
  C:3604H         LINE#         152
  C:360FH         LINE#         153
  C:3615H         LINE#         154
  C:3615H         LINE#         155
  C:3630H         LINE#         156
  C:3636H         LINE#         157
  C:3646H         LINE#         158
  C:364FH         LINE#         159
  C:3654H         LINE#         160
  C:3654H         LINE#         161
  C:366FH         LINE#         162
  C:3674H         LINE#         163
  C:3684H         LINE#         164
  C:368DH         LINE#         165
  C:3692H         LINE#         166
  C:3692H         LINE#         167
  C:3695H         LINE#         168
  -------         ENDPROC       _SEND_RDEAL
  -------         PROC          _SEND_CDEAL
  D:0021H         SYMBOL        buf
  D:0024H         SYMBOL        n
  C:3696H         LINE#         176
  C:369EH         LINE#         177
  C:369EH         LINE#         178
  C:36B3H         LINE#         179
  C:36BCH         LINE#         180
  C:36C7H         LINE#         181
  C:36D2H         LINE#         182
  C:36DAH         LINE#         183
  C:36DAH         LINE#         184
  C:36DDH         LINE#         185
  C:36F8H         LINE#         186
  C:3701H         LINE#         187
  C:370CH         LINE#         188
  C:370FH         LINE#         189
  C:371AH         LINE#         190
BL51 BANKED LINKER/LOCATER V6.22                                                      06/13/2013  10:29:17  PAGE 83


  C:371AH         LINE#         191
  C:371DH         LINE#         194
  C:3738H         LINE#         195
  C:3741H         LINE#         196
  C:3747H         LINE#         197
  C:374FH         LINE#         198
  C:374FH         LINE#         199
  C:3752H         LINE#         200
  C:3752H         LINE#         201
  C:3755H         LINE#         202
  C:3770H         LINE#         203
  C:3779H         LINE#         204
  C:377FH         LINE#         205
  C:378AH         LINE#         206
  C:378DH         LINE#         207
  C:3798H         LINE#         208
  C:37A3H         LINE#         210
  C:37A3H         LINE#         211
  C:37A3H         LINE#         212
  C:37A6H         LINE#         213
  C:37C1H         LINE#         214
  C:37CAH         LINE#         215
  C:37D0H         LINE#         216
  C:37D8H         LINE#         217
  C:37D8H         LINE#         218
  C:37DBH         LINE#         219
  C:37DBH         LINE#         220
  C:37DEH         LINE#         221
  C:37F9H         LINE#         222
  C:3802H         LINE#         223
  C:3808H         LINE#         224
  C:3813H         LINE#         225
  C:3816H         LINE#         226
  C:3821H         LINE#         227
  C:382CH         LINE#         228
  C:382CH         LINE#         229
  C:382CH         LINE#         230
  C:382EH         LINE#         231
  C:3849H         LINE#         232
  C:384FH         LINE#         233
  C:3855H         LINE#         234
  C:385DH         LINE#         235
  C:385DH         LINE#         236
  C:385FH         LINE#         237
  C:385FH         LINE#         238
  C:3861H         LINE#         239
  C:387CH         LINE#         240
  C:3881H         LINE#         241
  C:3887H         LINE#         242
  C:3892H         LINE#         243
  C:3895H         LINE#         244
  C:3895H         LINE#         245
  C:3898H         LINE#         246
  C:3898H         LINE#         247
  -------         ENDPROC       _SEND_CDEAL
  -------         PROC          _SEND_SDEAL
  D:0021H         SYMBOL        buf
BL51 BANKED LINKER/LOCATER V6.22                                                      06/13/2013  10:29:17  PAGE 84


  D:0024H         SYMBOL        n
  -------         DO            
  D:0025H         SYMBOL        data_ram
  D:0026H         SYMBOL        data_8u
  D:0027H         SYMBOL        data_32s
  D:0007H         SYMBOL        i
  D:002BH         SYMBOL        SfrPage_
  -------         ENDDO         
  C:2107H         LINE#         255
  C:210FH         LINE#         256
  C:210FH         LINE#         259
  C:2112H         LINE#         261
  C:2127H         LINE#         262
  C:2130H         LINE#         263
  C:213BH         LINE#         264
  C:213EH         LINE#         265
  C:2144H         LINE#         266
  C:2145H         LINE#         267
  C:2160H         LINE#         268
  C:2169H         LINE#         269
  C:2174H         LINE#         270
  C:2177H         LINE#         271
  C:217CH         LINE#         272
  C:2193H         LINE#         273
  C:2193H         LINE#         274
  C:2196H         LINE#         275
  C:2196H         LINE#         276
  C:2197H         LINE#         277
  C:21BEH         LINE#         278
  C:21C7H         LINE#         279
  C:21E0H         LINE#         280
  C:21E0H         LINE#         281
  C:21E0H         LINE#         282
  C:21F4H         LINE#         284
  C:21F4H         LINE#         285
  C:21F9H         LINE#         286
  C:21FEH         LINE#         287
  C:2201H         LINE#         288
  C:2203H         LINE#         290
  C:2203H         LINE#         291
  C:2206H         LINE#         292
  C:2206H         LINE#         293
  C:2223H         LINE#         294
  C:2224H         LINE#         295
  C:2239H         LINE#         296
  C:223CH         LINE#         297
  C:223CH         LINE#         298
  C:223CH         LINE#         299
  C:223FH         LINE#         300
  C:2248H         LINE#         302
  C:2263H         LINE#         303
  C:226CH         LINE#         304
  C:227CH         LINE#         305
  C:228DH         LINE#         306
  C:2292H         LINE#         307
  C:229AH         LINE#         308
  C:229AH         LINE#         309
BL51 BANKED LINKER/LOCATER V6.22                                                      06/13/2013  10:29:17  PAGE 85


  C:229DH         LINE#         310
  C:22B8H         LINE#         311
  C:22C1H         LINE#         312
  C:22C7H         LINE#         313
  C:22CDH         LINE#         314
  C:22D5H         LINE#         315
  C:22D5H         LINE#         316
  C:22D8H         LINE#         317
  C:22F3H         LINE#         318
  C:22FCH         LINE#         319
  C:2302H         LINE#         320
  C:2308H         LINE#         321
  C:2310H         LINE#         322
  C:2310H         LINE#         323
  C:2313H         LINE#         324
  C:232EH         LINE#         325
  C:2337H         LINE#         326
  C:2355H         LINE#         327
  C:2360H         LINE#         328
  C:2363H         LINE#         329
  C:236EH         LINE#         330
  C:236EH         LINE#         331
  C:2389H         LINE#         332
  C:2392H         LINE#         333
  C:23B0H         LINE#         334
  C:23BBH         LINE#         335
  C:23BEH         LINE#         336
  C:23C9H         LINE#         337
  C:23C9H         LINE#         338
  C:23E4H         LINE#         339
  C:23EDH         LINE#         340
  C:23FDH         LINE#         341
  C:2411H         LINE#         342
  C:2416H         LINE#         343
  C:241EH         LINE#         344
  C:241EH         LINE#         345
  C:2421H         LINE#         346
  C:243CH         LINE#         347
  C:2445H         LINE#         348
  C:2455H         LINE#         349
  C:2469H         LINE#         350
  C:246EH         LINE#         351
  C:2476H         LINE#         352
  C:2476H         LINE#         353
  C:2479H         LINE#         354
  C:2494H         LINE#         355
  C:249DH         LINE#         356
  C:24BBH         LINE#         357
  C:24D0H         LINE#         358
  C:24E0H         LINE#         359
  C:24E5H         LINE#         360
  C:24E8H         LINE#         361
  C:24E8H         LINE#         362
  C:24EBH         LINE#         363
  C:24EBH         LINE#         364
  C:24EEH         LINE#         365
  C:250CH         LINE#         366
BL51 BANKED LINKER/LOCATER V6.22                                                      06/13/2013  10:29:17  PAGE 86


  C:2515H         LINE#         367
  C:2533H         LINE#         368
  C:2594H         LINE#         370
  C:2597H         LINE#         372
  C:2597H         LINE#         373
  C:25A2H         LINE#         374
  C:25A7H         LINE#         375
  C:25ADH         LINE#         376
  C:25B0H         LINE#         377
  C:25B8H         LINE#         378
  C:25BEH         LINE#         379
  C:25C1H         LINE#         380
  C:25C1H         LINE#         381
  C:25DCH         LINE#         382
  C:25E5H         LINE#         383
  C:2603H         LINE#         384
  C:2618H         LINE#         385
  C:2628H         LINE#         386
  C:262DH         LINE#         387
  C:2633H         LINE#         388
  C:2633H         LINE#         389
  C:2636H         LINE#         390
  C:2636H         LINE#         391
  C:2639H         LINE#         392
  C:2657H         LINE#         393
  C:2660H         LINE#         394
  C:267EH         LINE#         395
  C:26DFH         LINE#         397
  C:26E2H         LINE#         399
  C:26E2H         LINE#         400
  C:26EDH         LINE#         401
  C:26F2H         LINE#         402
  C:26F8H         LINE#         404
  C:26FBH         LINE#         405
  C:2703H         LINE#         406
  C:2709H         LINE#         407
  C:270CH         LINE#         408
  C:270CH         LINE#         410
  C:2727H         LINE#         411
  C:2730H         LINE#         412
  C:2768H         LINE#         413
  C:2768H         LINE#         414
  C:276BH         LINE#         415
  C:2786H         LINE#         416
  C:278FH         LINE#         417
  C:27A6H         LINE#         418
  C:27B1H         LINE#         419
  C:27B1H         LINE#         420
  C:27B4H         LINE#         421
  C:27CFH         LINE#         422
  C:27D8H         LINE#         423
  C:27F6H         LINE#         424
  C:280DH         LINE#         425
  C:2818H         LINE#         426
  C:2823H         LINE#         427
  C:2823H         LINE#         428
  C:2826H         LINE#         429
BL51 BANKED LINKER/LOCATER V6.22                                                      06/13/2013  10:29:17  PAGE 87


  C:2841H         LINE#         430
  C:284AH         LINE#         431
  C:2868H         LINE#         432
  C:287FH         LINE#         433
  C:288AH         LINE#         434
  C:2895H         LINE#         435
  C:2895H         LINE#         436
  C:2898H         LINE#         437
  C:28B3H         LINE#         438
  C:28BCH         LINE#         439
  C:28DAH         LINE#         440
  C:28F1H         LINE#         441
  C:28FCH         LINE#         442
  C:2907H         LINE#         443
  C:2907H         LINE#         444
  C:290AH         LINE#         445
  C:2925H         LINE#         446
  C:292EH         LINE#         447
  C:294CH         LINE#         448
  C:2956H         LINE#         449
  C:2961H         LINE#         450
  C:2961H         LINE#         451
  C:2964H         LINE#         452
  C:297FH         LINE#         453
  C:2988H         LINE#         454
  C:2993H         LINE#         455
  C:2996H         LINE#         456
  C:299DH         LINE#         457
  C:29A0H         LINE#         458
  C:29A0H         LINE#         459
  C:29BBH         LINE#         460
  C:29BBH         LINE#         461
  C:29C4H         LINE#         462
  C:29D4H         LINE#         463
  C:29DCH         LINE#         464
  C:29E2H         LINE#         465
  C:29E7H         LINE#         466
  C:29EAH         LINE#         467
  C:29F1H         LINE#         468
  C:29F4H         LINE#         469
  C:2A23H         LINE#         470
  C:2A26H         LINE#         471
  C:2A27H         LINE#         472
  C:2A42H         LINE#         473
  C:2A42H         LINE#         474
  C:2A48H         LINE#         475
  C:2A58H         LINE#         476
  C:2A60H         LINE#         477
  C:2A63H         LINE#         478
  C:2A6EH         LINE#         479
  C:2A71H         LINE#         480
  C:2A71H         LINE#         481
  -------         ENDPROC       _SEND_SDEAL
  -------         PROC          _SEND_WDEAL
  D:0021H         SYMBOL        buf
  D:0024H         SYMBOL        n
  -------         DO            
BL51 BANKED LINKER/LOCATER V6.22                                                      06/13/2013  10:29:17  PAGE 88


  D:0025H         SYMBOL        data_x
  D:0027H         SYMBOL        data_y
  D:0029H         SYMBOL        data_t
  -------         ENDDO         
  C:485CH         LINE#         489
  C:4864H         LINE#         490
  C:4864H         LINE#         493
  C:487CH         LINE#         494
  C:4885H         LINE#         495
  C:48A3H         LINE#         496
  C:48C0H         LINE#         497
  C:48DDH         LINE#         498
  C:48FFH         LINE#         499
  C:4907H         LINE#         500
  C:4909H         LINE#         502
  C:4909H         LINE#         503
  C:4909H         LINE#         504
  C:490BH         LINE#         505
  C:4926H         LINE#         506
  C:492CH         LINE#         507
  C:492FH         LINE#         509
  C:492FH         LINE#         510
  C:494DH         LINE#         511
  C:4958H         LINE#         512
  C:495BH         LINE#         513
  C:495BH         LINE#         514
  -------         ENDPROC       _SEND_WDEAL
  -------         PROC          _SEND_UDEAL
  D:0021H         SYMBOL        buf
  D:0024H         SYMBOL        n
  C:6124H         LINE#         522
  C:612CH         LINE#         523
  C:612CH         LINE#         524
  C:6141H         LINE#         525
  C:6141H         LINE#         527
  C:6147H         LINE#         528
  C:614AH         LINE#         529
  C:6152H         LINE#         530
  C:6152H         LINE#         532
  C:6154H         LINE#         533
  C:616FH         LINE#         534
  C:616FH         LINE#         535
  C:6174H         LINE#         536
  C:6177H         LINE#         537
  C:6182H         LINE#         538
  C:6185H         LINE#         539
  C:6185H         LINE#         541
  C:6188H         LINE#         542
  -------         ENDPROC       _SEND_UDEAL
  -------         PROC          _SEND_TDEAL
  D:0001H         SYMBOL        buf
  D:0021H         SYMBOL        n
  C:0003H         LINE#         553
  C:0005H         LINE#         554
  C:0005H         LINE#         555
  C:001AH         LINE#         556
  C:001FH         LINE#         557
BL51 BANKED LINKER/LOCATER V6.22                                                      06/13/2013  10:29:17  PAGE 89


  C:0022H         LINE#         558
  C:0022H         LINE#         559
  -------         ENDPROC       _SEND_TDEAL
  -------         ENDMOD        SEND

  -------         MODULE        SENSOR
  C:0000H         SYMBOL        _ICE_DUMMY_
  D:00A0H         PUBLIC        P2
  C:7203H         PUBLIC        _SnXFilter
  C:7215H         PUBLIC        _SnYFilter
  D:00E8H         PUBLIC        ADC0CN
  C:5076H         SYMBOL        _GetOffset
  C:7393H         PUBLIC        GetXAng
  C:73A2H         PUBLIC        GetYAng
  C:5CD9H         SYMBOL        _SnFilter
  C:7029H         PUBLIC        SnXDataInit
  C:7044H         PUBLIC        SnYDataInit
  C:75E5H         PUBLIC        GetFilterCnt
  C:5F84H         SYMBOL        _Sn_DataInit
  C:75EBH         PUBLIC        _SetFilterCnt
  C:728AH         PUBLIC        Get_McuTemp
  C:754FH         PUBLIC        GetXOftVal
  C:7558H         PUBLIC        GetYOftVal
  X:0AB9H         SYMBOL        filtercnt
  X:0ABAH         PUBLIC        accel_x
  C:53CDH         SYMBOL        _GetAngCalcVal
  X:0ADAH         PUBLIC        accel_y
  C:5781H         PUBLIC        SnProc
  C:5BD5H         PUBLIC        SnInit
  C:753DH         PUBLIC        GetXFtVal
  C:7546H         PUBLIC        GetYFtVal
  C:752BH         PUBLIC        AngXCalc
  C:757AH         PUBLIC        _GetXOffset
  C:7534H         PUBLIC        AngYCalc
  C:7582H         PUBLIC        _GetYOffset
  C:5281H         SYMBOL        _Ang_Calc
  -------         PROC          _SN_DATAINIT
  D:0021H         SYMBOL        p_sn
  D:0024H         SYMBOL        p_tempcal
  D:0027H         SYMBOL        p_angcal
  C:5F84H         LINE#         31
  C:5F8AH         LINE#         32
  C:5F8AH         LINE#         33
  C:5F90H         LINE#         34
  C:5F9FH         LINE#         35
  C:5FA9H         LINE#         36
  C:5FB2H         LINE#         37
  C:5FBCH         LINE#         38
  C:5FD4H         LINE#         39
  C:5FECH         LINE#         40
  -------         ENDPROC       _SN_DATAINIT
  -------         PROC          _SNFILTER
  D:0021H         SYMBOL        p_sn
  D:0024H         SYMBOL        val
  D:0026H         SYMBOL        ftcnt
  C:5CD9H         LINE#         49
  C:5CE3H         LINE#         50
BL51 BANKED LINKER/LOCATER V6.22                                                      06/13/2013  10:29:17  PAGE 90


  C:5CE3H         LINE#         51
  C:5CFCH         LINE#         52
  C:5CFCH         LINE#         53
  C:5D1AH         LINE#         55
  C:5D38H         LINE#         57
  C:5D3AH         LINE#         59
  C:5D45H         LINE#         60
  -------         ENDPROC       _SNFILTER
  -------         PROC          L?0047
  -------         ENDPROC       L?0047
  -------         PROC          _GETOFFSET
  D:0021H         SYMBOL        p_sn
  D:0024H         SYMBOL        temp
  -------         DO            
  D:0026H         SYMBOL        i
  D:0004H         SYMBOL        offset
  -------         ENDDO         
  C:5076H         LINE#         70
  C:5080H         LINE#         71
  C:5080H         LINE#         75
  C:509BH         LINE#         76
  C:509BH         LINE#         77
  C:50CDH         LINE#         78
  C:50CDH         LINE#         79
  C:50D1H         LINE#         80
  C:5123H         LINE#         82
  C:5126H         LINE#         83
  -------         ENDPROC       _GETOFFSET
  -------         PROC          _GETANGCALCVAL
  D:0028H         SYMBOL        p_sn
  D:002BH         SYMBOL        val
  -------         DO            
  D:002DH         SYMBOL        i
  D:0004H         SYMBOL        tmp
  -------         ENDDO         
  C:53CDH         LINE#         92
  C:53D7H         LINE#         93
  C:53D7H         LINE#         97
  C:53F2H         LINE#         98
  C:53F2H         LINE#         99
  C:541BH         LINE#         100
  C:541BH         LINE#         101
  C:541FH         LINE#         102
  C:5471H         LINE#         103
  C:5471H         LINE#         104
  -------         ENDPROC       _GETANGCALCVAL
  -------         PROC          _ANG_CALC
  D:0021H         SYMBOL        p_sn
  -------         DO            
  D:0024H         SYMBOL        ang
  -------         ENDDO         
  C:5281H         LINE#         113
  C:5287H         LINE#         114
  C:5287H         LINE#         116
  C:529BH         LINE#         117
  C:52AFH         LINE#         118
  C:52C0H         LINE#         119
BL51 BANKED LINKER/LOCATER V6.22                                                      06/13/2013  10:29:17  PAGE 91


  C:52D6H         LINE#         120
  C:52E7H         LINE#         122
  C:52E7H         LINE#         123
  C:52FAH         LINE#         124
  C:5318H         LINE#         125
  C:5327H         LINE#         126
  C:5327H         LINE#         127
  -------         ENDPROC       _ANG_CALC
  -------         PROC          SNXDATAINIT
  C:7029H         LINE#         133
  C:7029H         LINE#         134
  C:7029H         LINE#         135
  -------         ENDPROC       SNXDATAINIT
  -------         PROC          SNYDATAINIT
  C:7044H         LINE#         137
  C:7044H         LINE#         138
  C:7044H         LINE#         139
  -------         ENDPROC       SNYDATAINIT
  -------         PROC          _SNXFILTER
  D:0006H         SYMBOL        val
  D:0082H         SYMBOL        ftcnt
  C:7203H         LINE#         141
  C:7205H         LINE#         142
  C:7205H         LINE#         143
  -------         ENDPROC       _SNXFILTER
  -------         PROC          _SNYFILTER
  D:0006H         SYMBOL        val
  D:0082H         SYMBOL        ftcnt
  C:7215H         LINE#         145
  C:7217H         LINE#         146
  C:7217H         LINE#         147
  -------         ENDPROC       _SNYFILTER
  -------         PROC          _GETXOFFSET
  D:0004H         SYMBOL        temp
  C:757AH         LINE#         149
  C:757AH         LINE#         150
  C:757AH         LINE#         151
  C:7581H         LINE#         152
  -------         ENDPROC       _GETXOFFSET
  -------         PROC          _GETYOFFSET
  D:0004H         SYMBOL        temp
  C:7582H         LINE#         153
  C:7582H         LINE#         154
  C:7582H         LINE#         155
  C:7589H         LINE#         156
  -------         ENDPROC       _GETYOFFSET
  -------         PROC          ANGXCALC
  C:752BH         LINE#         157
  C:752BH         LINE#         158
  C:752BH         LINE#         159
  -------         ENDPROC       ANGXCALC
  -------         PROC          ANGYCALC
  C:7534H         LINE#         161
  C:7534H         LINE#         162
  C:7534H         LINE#         163
  -------         ENDPROC       ANGYCALC
  -------         PROC          SNINIT
BL51 BANKED LINKER/LOCATER V6.22                                                      06/13/2013  10:29:17  PAGE 92


  C:5BD5H         LINE#         172
  C:5BD5H         LINE#         173
  C:5BD5H         LINE#         174
  C:5BD8H         LINE#         175
  C:5BDDH         LINE#         176
  C:5BEBH         LINE#         177
  C:5BF7H         LINE#         178
  C:5C03H         LINE#         179
  C:5C0FH         LINE#         180
  C:5C1BH         LINE#         182
  C:5C29H         LINE#         183
  C:5C35H         LINE#         184
  C:5C41H         LINE#         185
  C:5C4DH         LINE#         186
  -------         ENDPROC       SNINIT
  -------         PROC          SNPROC
  C:5781H         LINE#         196
  C:5781H         LINE#         197
  C:5781H         LINE#         198
  C:5781H         LINE#         199
  C:5789H         LINE#         201
  C:578DH         LINE#         203
  C:5796H         LINE#         204
  C:5796H         LINE#         205
  C:5796H         LINE#         206
  C:57A1H         LINE#         207
  C:57A8H         LINE#         208
  C:57CAH         LINE#         210
  C:57CDH         LINE#         211
  C:57CFH         LINE#         213
  C:57CFH         LINE#         214
  C:57DAH         LINE#         215
  C:57E1H         LINE#         216
  C:5803H         LINE#         218
  C:580FH         LINE#         219
  C:580FH         LINE#         220
  C:580FH         LINE#         221
  C:580FH         LINE#         222
  C:5812H         LINE#         223
  C:5812H         LINE#         224
  -------         ENDPROC       SNPROC
  -------         PROC          GETFILTERCNT
  C:75E5H         LINE#         233
  C:75E5H         LINE#         234
  C:75E5H         LINE#         235
  C:75EAH         LINE#         236
  -------         ENDPROC       GETFILTERCNT
  -------         PROC          _SETFILTERCNT
  D:0007H         SYMBOL        cnt
  C:75EBH         LINE#         244
  C:75EBH         LINE#         245
  C:75EBH         LINE#         246
  C:75F0H         LINE#         247
  -------         ENDPROC       _SETFILTERCNT
  -------         PROC          L?0046
  -------         ENDPROC       L?0046
  -------         PROC          GET_MCUTEMP
BL51 BANKED LINKER/LOCATER V6.22                                                      06/13/2013  10:29:17  PAGE 93


  C:728AH         LINE#         256
  C:728AH         LINE#         257
  C:728AH         LINE#         261
  C:728DH         LINE#         262
  -------         ENDPROC       GET_MCUTEMP
  -------         PROC          GETXFTVAL
  C:753DH         LINE#         271
  C:753DH         LINE#         272
  C:753DH         LINE#         273
  C:7545H         LINE#         274
  -------         ENDPROC       GETXFTVAL
  -------         PROC          GETYFTVAL
  C:7546H         LINE#         283
  C:7546H         LINE#         284
  C:7546H         LINE#         285
  C:754EH         LINE#         286
  -------         ENDPROC       GETYFTVAL
  -------         PROC          GETXOFTVAL
  C:754FH         LINE#         295
  C:754FH         LINE#         296
  C:754FH         LINE#         297
  C:7557H         LINE#         298
  -------         ENDPROC       GETXOFTVAL
  -------         PROC          GETYOFTVAL
  C:7558H         LINE#         307
  C:7558H         LINE#         308
  C:7558H         LINE#         309
  C:7560H         LINE#         310
  -------         ENDPROC       GETYOFTVAL
  -------         PROC          GETXANG
  C:7393H         LINE#         319
  C:7393H         LINE#         320
  C:7393H         LINE#         321
  C:73A1H         LINE#         322
  -------         ENDPROC       GETXANG
  -------         PROC          GETYANG
  C:73A2H         LINE#         331
  C:73A2H         LINE#         332
  C:73A2H         LINE#         333
  C:73B0H         LINE#         334
  -------         ENDPROC       GETYANG
  -------         ENDMOD        SENSOR

  -------         MODULE        SUB
  C:0000H         SYMBOL        _ICE_DUMMY_
  C:3F41H         PUBLIC        _Sub_Int32s2Str
  C:3A99H         PUBLIC        _Sub_Str2Int32s
  C:6EFBH         PUBLIC        _Sub_Int16s2Str
  C:63CFH         PUBLIC        _Sub_Str2Int16s
  D:00A0H         PUBLIC        P2
  C:7561H         PUBLIC        _Sub_SendOffset
  C:5127H         PUBLIC        _Sub_Int16u2Str
  C:4FB1H         PUBLIC        _Sub_Str2Int16u
  C:7149H         PUBLIC        _Comm_PutInt8u
  C:74BAH         PUBLIC        Sub_SysRst
  D:00A7H         PUBLIC        SFRPAGE
  C:6FF2H         PUBLIC        Sub_SendSysNum
BL51 BANKED LINKER/LOCATER V6.22                                                      06/13/2013  10:29:17  PAGE 94


  C:6252H         PUBLIC        _Sub_SendAngXCal
  C:6796H         PUBLIC        _Sub_SendAngYCal
  C:61EEH         PUBLIC        Sub_SendTCalTest
  C:6AB2H         PUBLIC        Sub_SendID
  C:674EH         PUBLIC        _Sub_SendAdcTXY
  C:5D59H         PUBLIC        _Sub_BufBubble2
  C:71DDH         PUBLIC        _Comm_PutInt32s
  C:69A5H         PUBLIC        _Comm_PutInt16s
  C:69BDH         PUBLIC        Sub_SendAngXYP
  C:6FDAH         PUBLIC        _Comm_PutInt16u
  C:6D13H         PUBLIC        _Sub_StralarmCheck
  C:495CH         PUBLIC        _Sub_SendTempCal
  C:729FH         PUBLIC        Sub_SendErr
  C:728EH         PUBLIC        Sub_SendOk
  C:6F3EH         PUBLIC        _Sub_Int8u2Str
  C:6AEEH         PUBLIC        _Sub_Str2Int8u
  C:6189H         PUBLIC        Sub_SendPrmtAll
  C:66B6H         PUBLIC        _Sub_16SBufSwitch
  C:74D9H         PUBLIC        Comm_PutNewLine
  C:6D9CH         PUBLIC        Sub_SendAngXY
  D:00EFH         PUBLIC        RSTSRC
  C:72B0H         PUBLIC        Sub_SendSoftVer
  C:647FH         PUBLIC        _Sub_SBufSwitch
  C:6702H         PUBLIC        _Sub_UBufSwitch
  C:5FEDH         PUBLIC        _Sub_BufBubble
  -------         PROC          _COMM_PUTINT32S
  D:0004H         SYMBOL        val
  C:71DDH         LINE#         26
  C:71DDH         LINE#         27
  C:71DDH         LINE#         28
  C:71E6H         LINE#         29
  -------         ENDPROC       _COMM_PUTINT32S
  C:698AH         SYMBOL        L?0090
  C:699FH         SYMBOL        L?0091
  -------         PROC          L?0089
  -------         ENDPROC       L?0089
  C:698AH         SYMBOL        L?0090
  C:699FH         SYMBOL        L?0091
  -------         PROC          _COMM_PUTINT16S
  D:0004H         SYMBOL        val
  C:69A5H         LINE#         39
  C:69A9H         LINE#         40
  C:69A9H         LINE#         41
  C:69B2H         LINE#         42
  -------         ENDPROC       _COMM_PUTINT16S
  C:6FD6H         SYMBOL        L?0093
  -------         PROC          L?0092
  -------         ENDPROC       L?0092
  C:6FD6H         SYMBOL        L?0093
  -------         PROC          _COMM_PUTINT16U
  D:0004H         SYMBOL        val
  C:6FDAH         LINE#         51
  C:6FDEH         LINE#         52
  C:6FDEH         LINE#         53
  C:6FE7H         LINE#         54
  -------         ENDPROC       _COMM_PUTINT16U
  -------         PROC          _COMM_PUTINT8U
BL51 BANKED LINKER/LOCATER V6.22                                                      06/13/2013  10:29:17  PAGE 95


  D:0005H         SYMBOL        val
  C:7149H         LINE#         63
  C:714BH         LINE#         64
  C:714BH         LINE#         65
  C:7154H         LINE#         66
  -------         ENDPROC       _COMM_PUTINT8U
  -------         PROC          COMM_PUTNEWLINE
  C:74D9H         LINE#         76
  C:74D9H         LINE#         77
  C:74D9H         LINE#         78
  C:74DEH         LINE#         79
  -------         ENDPROC       COMM_PUTNEWLINE
  -------         PROC          SUB_SENDOK
  -------         DO            
  D:0001H         SYMBOL        str
  -------         ENDDO         
  C:728EH         LINE#         88
  C:728EH         LINE#         89
  C:728EH         LINE#         90
  C:7294H         LINE#         91
  C:7299H         LINE#         92
  C:729CH         LINE#         93
  -------         ENDPROC       SUB_SENDOK
  -------         PROC          SUB_SENDERR
  -------         DO            
  D:0001H         SYMBOL        str
  -------         ENDDO         
  C:729FH         LINE#         96
  C:729FH         LINE#         97
  C:72A5H         LINE#         100
  C:72AAH         LINE#         101
  C:72ADH         LINE#         102
  -------         ENDPROC       SUB_SENDERR
  -------         PROC          SUB_SENDANGXY
  C:6D9CH         LINE#         105
  C:6D9CH         LINE#         106
  C:6D9CH         LINE#         107
  C:6DA7H         LINE#         108
  C:6DADH         LINE#         110
  C:6DB0H         LINE#         111
  C:6DBBH         LINE#         112
  C:6DC1H         LINE#         114
  C:6DC4H         LINE#         116
  -------         ENDPROC       SUB_SENDANGXY
  -------         PROC          SUB_SENDANGXYP
  C:69BDH         LINE#         119
  C:69BDH         LINE#         120
  C:69BDH         LINE#         121
  C:69C8H         LINE#         122
  C:69CEH         LINE#         123
  C:69D1H         LINE#         124
  C:69DCH         LINE#         125
  C:69E2H         LINE#         126
  C:69E5H         LINE#         127
  C:69F0H         LINE#         128
  C:69F6H         LINE#         129
  C:69F9H         LINE#         131
BL51 BANKED LINKER/LOCATER V6.22                                                      06/13/2013  10:29:17  PAGE 96


  -------         ENDPROC       SUB_SENDANGXYP
  -------         PROC          _SUB_SENDADCTXY
  D:0033H         SYMBOL        temp
  D:0035H         SYMBOL        x
  D:0037H         SYMBOL        y
  C:674EH         LINE#         134
  C:675AH         LINE#         135
  C:675AH         LINE#         136
  C:676CH         LINE#         137
  C:677EH         LINE#         138
  C:6790H         LINE#         139
  C:6793H         LINE#         140
  -------         ENDPROC       _SUB_SENDADCTXY
  -------         PROC          SUB_SENDPRMTALL
  C:6189H         LINE#         143
  C:6189H         LINE#         144
  C:6189H         LINE#         145
  C:619AH         LINE#         146
  C:61ABH         LINE#         148
  C:61B6H         LINE#         149
  C:61C1H         LINE#         151
  C:61D2H         LINE#         153
  C:61DDH         LINE#         154
  C:61E8H         LINE#         156
  C:61EBH         LINE#         157
  -------         ENDPROC       SUB_SENDPRMTALL
  -------         PROC          _SUB_SENDANGXCAL
  D:0026H         SYMBOL        i
  C:6252H         LINE#         160
  C:6254H         LINE#         161
  C:6254H         LINE#         162
  C:6264H         LINE#         163
  C:6277H         LINE#         165
  C:6293H         LINE#         166
  C:62AFH         LINE#         168
  C:62B2H         LINE#         169
  -------         ENDPROC       _SUB_SENDANGXCAL
  -------         PROC          _SUB_SENDANGYCAL
  D:0026H         SYMBOL        i
  C:6796H         LINE#         172
  C:6798H         LINE#         173
  C:6798H         LINE#         174
  C:67A8H         LINE#         175
  C:67B5H         LINE#         176
  C:67C3H         LINE#         177
  C:67D1H         LINE#         179
  C:67D6H         LINE#         180
  C:67DBH         LINE#         181
  -------         ENDPROC       _SUB_SENDANGYCAL
  -------         PROC          _SUB_SENDTEMPCAL
  D:0026H         SYMBOL        i
  C:495CH         LINE#         184
  C:495EH         LINE#         185
  C:495EH         LINE#         186
  C:496EH         LINE#         187
  C:497BH         LINE#         189
  C:498EH         LINE#         190
BL51 BANKED LINKER/LOCATER V6.22                                                      06/13/2013  10:29:17  PAGE 97


  C:49A1H         LINE#         192
  C:49D0H         LINE#         193
  C:49FBH         LINE#         194
  C:4A2AH         LINE#         195
  C:4A55H         LINE#         197
  C:4A58H         LINE#         198
  -------         ENDPROC       _SUB_SENDTEMPCAL
  -------         PROC          _SUB_SENDOFFSET
  D:0004H         SYMBOL        val
  C:7561H         LINE#         201
  C:7561H         LINE#         202
  C:7561H         LINE#         203
  C:7564H         LINE#         204
  C:7567H         LINE#         205
  -------         ENDPROC       _SUB_SENDOFFSET
  -------         PROC          SUB_SENDID
  C:6AB2H         LINE#         208
  C:6AB2H         LINE#         209
  C:6AB2H         LINE#         210
  C:6ABDH         LINE#         211
  C:6ACAH         LINE#         212
  C:6AD5H         LINE#         213
  C:6AE0H         LINE#         214
  C:6AE8H         LINE#         215
  C:6AEBH         LINE#         216
  -------         ENDPROC       SUB_SENDID
  -------         PROC          SUB_SENDSOFTVER
  C:72B0H         LINE#         219
  C:72B0H         LINE#         220
  C:72B0H         LINE#         221
  C:72BBH         LINE#         222
  C:72BEH         LINE#         223
  -------         ENDPROC       SUB_SENDSOFTVER
  -------         PROC          SUB_SENDSYSNUM
  C:6FF2H         LINE#         226
  C:6FF2H         LINE#         227
  C:6FF2H         LINE#         228
  C:6FFDH         LINE#         229
  C:7008H         LINE#         230
  C:700BH         LINE#         231
  -------         ENDPROC       SUB_SENDSYSNUM
  -------         PROC          SUB_SENDTCALTEST
  -------         DO            
  D:0022H         SYMBOL        TempX
  D:0024H         SYMBOL        TempY
  -------         ENDDO         
  C:61EEH         LINE#         234
  C:61EEH         LINE#         235
  C:61EEH         LINE#         239
  C:6204H         LINE#         240
  C:621AH         LINE#         242
  C:622AH         LINE#         243
  C:6236H         LINE#         244
  C:623DH         LINE#         245
  C:6240H         LINE#         246
  C:6243H         LINE#         248
  C:6251H         LINE#         249
BL51 BANKED LINKER/LOCATER V6.22                                                      06/13/2013  10:29:17  PAGE 98


  -------         ENDPROC       SUB_SENDTCALTEST
  -------         PROC          _SUB_STR2INT32S
  D:002CH         SYMBOL        val
  D:002FH         SYMBOL        str
  -------         DO            
  D:0032H         SYMBOL        temp
  -------         ENDDO         
  C:3A99H         LINE#         257
  C:3A9FH         LINE#         258
  C:3A9FH         LINE#         261
  C:3ABAH         LINE#         262
  C:3ACFH         LINE#         263
  C:3ADCH         LINE#         264
  C:3AF1H         LINE#         265
  C:3B06H         LINE#         266
  C:3B1BH         LINE#         267
  C:3C13H         LINE#         268
  C:3C1FH         LINE#         269
  C:3C27H         LINE#         270
  C:3C29H         LINE#         271
  C:3C29H         LINE#         272
  C:3C35H         LINE#         273
  C:3C49H         LINE#         274
  C:3C4CH         LINE#         275
  C:3C4CH         LINE#         276
  C:3C4EH         LINE#         277
  -------         ENDPROC       _SUB_STR2INT32S
  -------         PROC          _SUB_STR2INT16S
  D:002BH         SYMBOL        val
  D:002EH         SYMBOL        str
  -------         DO            
  D:0031H         SYMBOL        temp
  -------         ENDDO         
  C:63CFH         LINE#         279
  C:63D5H         LINE#         280
  C:63D5H         LINE#         281
  C:63F2H         LINE#         283
  C:63FFH         LINE#         284
  C:640AH         LINE#         285
  C:640CH         LINE#         286
  C:640CH         LINE#         287
  C:6410H         LINE#         288
  C:6423H         LINE#         289
  C:6426H         LINE#         290
  C:6426H         LINE#         291
  C:6428H         LINE#         292
  -------         ENDPROC       _SUB_STR2INT16S
  -------         PROC          _SUB_STR2INT16U
  D:0033H         SYMBOL        val
  D:0036H         SYMBOL        str
  -------         DO            
  D:0007H         SYMBOL        i
  -------         ENDDO         
  C:4FB1H         LINE#         294
  C:4FB7H         LINE#         295
  C:4FB7H         LINE#         298
  C:4FB9H         LINE#         299
BL51 BANKED LINKER/LOCATER V6.22                                                      06/13/2013  10:29:17  PAGE 99


  C:4FD3H         LINE#         300
  C:4FD6H         LINE#         301
  C:4FDAH         LINE#         302
  C:506DH         LINE#         303
  C:506FH         LINE#         304
  -------         ENDPROC       _SUB_STR2INT16U
  -------         PROC          _SUB_STR2INT8U
  D:0001H         SYMBOL        str
  -------         DO            
  D:0007H         SYMBOL        val
  -------         ENDDO         
  C:6AEEH         LINE#         306
  C:6AEEH         LINE#         307
  C:6AEEH         LINE#         309
  C:6B00H         LINE#         310
  C:6B15H         LINE#         311
  C:6B29H         LINE#         312
  C:6B29H         LINE#         313
  -------         ENDPROC       _SUB_STR2INT8U
  -------         PROC          _SUB_INT32S2STR
  D:002CH         SYMBOL        s
  D:002FH         SYMBOL        val
  C:3F41H         LINE#         315
  C:3F4FH         LINE#         316
  C:3F4FH         LINE#         317
  C:3F53H         LINE#         318
  C:3F53H         LINE#         319
  C:3F5EH         LINE#         320
  C:3F60H         LINE#         321
  C:3F62H         LINE#         323
  C:3F62H         LINE#         324
  C:3F6DH         LINE#         325
  C:3F6DH         LINE#         326
  C:3F9BH         LINE#         328
  C:3FBCH         LINE#         329
  C:3FDEH         LINE#         330
  C:3FF7H         LINE#         331
  C:4019H         LINE#         332
  C:4027H         LINE#         333
  C:4047H         LINE#         334
  C:4068H         LINE#         335
  C:4080H         LINE#         336
  -------         ENDPROC       _SUB_INT32S2STR
  -------         PROC          _SUB_INT16S2STR
  D:0001H         SYMBOL        s
  D:0004H         SYMBOL        val
  C:6EFBH         LINE#         339
  C:6EFBH         LINE#         340
  C:6EFBH         LINE#         341
  C:6F03H         LINE#         342
  C:6F0AH         LINE#         343
  C:6F0CH         LINE#         344
  C:6F0EH         LINE#         346
  C:6F13H         LINE#         347
  C:6F13H         LINE#         348
  -------         ENDPROC       _SUB_INT16S2STR
  -------         PROC          _SUB_INT16U2STR
BL51 BANKED LINKER/LOCATER V6.22                                                      06/13/2013  10:29:17  PAGE 100


  D:0039H         SYMBOL        s
  D:003CH         SYMBOL        val
  C:5127H         LINE#         351
  C:5131H         LINE#         352
  C:5131H         LINE#         353
  C:5142H         LINE#         354
  C:5151H         LINE#         355
  C:516BH         LINE#         356
  C:517AH         LINE#         357
  C:5194H         LINE#         358
  C:51A3H         LINE#         359
  C:51BDH         LINE#         360
  -------         ENDPROC       _SUB_INT16U2STR
  -------         PROC          _SUB_INT8U2STR
  D:0001H         SYMBOL        s
  D:0005H         SYMBOL        val
  C:6F3EH         LINE#         363
  C:6F3EH         LINE#         364
  C:6F3EH         LINE#         365
  C:6F45H         LINE#         366
  C:6F4FH         LINE#         367
  -------         ENDPROC       _SUB_INT8U2STR
  -------         PROC          _SUB_SBUFSWITCH
  D:0036H         SYMBOL        buf
  D:0039H         SYMBOL        i
  D:003AH         SYMBOL        j
  -------         DO            
  D:003BH         SYMBOL        temp
  -------         ENDDO         
  C:647FH         LINE#         433
  C:6487H         LINE#         434
  C:6487H         LINE#         437
  C:649DH         LINE#         438
  C:64B9H         LINE#         439
  -------         ENDPROC       _SUB_SBUFSWITCH
  -------         PROC          _SUB_16SBUFSWITCH
  D:003DH         SYMBOL        buf
  D:0005H         SYMBOL        i
  D:0041H         SYMBOL        j
  -------         DO            
  D:0042H         SYMBOL        temp
  -------         ENDDO         
  C:66B6H         LINE#         443
  C:66BCH         LINE#         444
  C:66BCH         LINE#         447
  C:66CEH         LINE#         448
  C:66EFH         LINE#         449
  -------         ENDPROC       _SUB_16SBUFSWITCH
  -------         PROC          _SUB_UBUFSWITCH
  D:003DH         SYMBOL        buf
  D:0005H         SYMBOL        i
  D:0041H         SYMBOL        j
  -------         DO            
  D:0042H         SYMBOL        temp
  -------         ENDDO         
  C:6702H         LINE#         453
  C:6708H         LINE#         454
BL51 BANKED LINKER/LOCATER V6.22                                                      06/13/2013  10:29:17  PAGE 101


  C:6708H         LINE#         457
  C:671AH         LINE#         458
  C:673BH         LINE#         459
  -------         ENDPROC       _SUB_UBUFSWITCH
  -------         PROC          _SUB_BUFBUBBLE
  D:002DH         SYMBOL        id
  D:0030H         SYMBOL        x
  D:0033H         SYMBOL        n
  -------         DO            
  D:0034H         SYMBOL        i
  D:0035H         SYMBOL        j
  -------         ENDDO         
  C:5FEDH         LINE#         462
  C:5FF3H         LINE#         463
  C:5FF3H         LINE#         466
  C:5FFDH         LINE#         467
  C:6009H         LINE#         468
  C:6031H         LINE#         469
  C:603FH         LINE#         470
  C:604DH         LINE#         471
  C:604DH         LINE#         472
  C:6051H         LINE#         473
  C:6055H         LINE#         474
  -------         ENDPROC       _SUB_BUFBUBBLE
  -------         PROC          _SUB_BUFBUBBLE2
  D:0031H         SYMBOL        id
  D:0034H         SYMBOL        x
  D:0037H         SYMBOL        y
  D:003AH         SYMBOL        n
  -------         DO            
  D:003BH         SYMBOL        i
  D:003CH         SYMBOL        j
  -------         ENDDO         
  C:5D59H         LINE#         476
  C:5D5FH         LINE#         477
  C:5D5FH         LINE#         480
  C:5D69H         LINE#         481
  C:5D75H         LINE#         482
  C:5DA1H         LINE#         483
  C:5DA9H         LINE#         484
  C:5DB7H         LINE#         485
  C:5DC5H         LINE#         486
  C:5DC5H         LINE#         487
  C:5DC9H         LINE#         488
  C:5DCDH         LINE#         489
  -------         ENDPROC       _SUB_BUFBUBBLE2
  -------         PROC          SUB_SYSRST
  -------         DO            
  D:0007H         SYMBOL        SfrPage_
  -------         ENDDO         
  C:74BAH         LINE#         492
  C:74BAH         LINE#         493
  C:74BCH         LINE#         496
  C:74BFH         LINE#         497
  C:74C2H         LINE#         498
  C:74C4H         LINE#         499
  -------         ENDPROC       SUB_SYSRST
BL51 BANKED LINKER/LOCATER V6.22                                                      06/13/2013  10:29:17  PAGE 102


  -------         PROC          _SUB_STRALARMCHECK
  D:002CH         SYMBOL        val
  D:002FH         SYMBOL        str
  C:6D13H         LINE#         503
  C:6D19H         LINE#         504
  C:6D19H         LINE#         505
  C:6D2BH         LINE#         506
  C:6D2BH         LINE#         507
  C:6D3CH         LINE#         508
  C:6D3FH         LINE#         509
  C:6D3FH         LINE#         511
  C:6D3FH         LINE#         512
  C:6D41H         LINE#         513
  C:6D41H         LINE#         515
  -------         ENDPROC       _SUB_STRALARMCHECK
  -------         ENDMOD        SUB

  -------         MODULE        TIMER
  C:0000H         SYMBOL        _ICE_DUMMY_
  D:0017H         PUBLIC        MainTime4En
  D:00A0H         PUBLIC        P2
  C:6A39H         PUBLIC        Timer2_ISR
  D:00A7H         PUBLIC        SFRPAGE
  C:6B2AH         PUBLIC        Timer2_TaskInIsr
  B:00C8H.7       PUBLIC        TF2H
  D:00CCH         PUBLIC        TMR2
  C:69FCH         PUBLIC        Timer2_Init
  D:00C8H         PUBLIC        TMR2CN
  D:00CAH         PUBLIC        TMR2RL
  B:00A8H.5       PUBLIC        ET2
  B:00C8H.2       PUBLIC        TR2
  C:7227H         PUBLIC        Timer2_TaskInMain
  D:008EH         PUBLIC        CKCON
  X:0B66H         PUBLIC        MainTime4Cnt
  -------         PROC          TIMER2_INIT
  -------         DO            
  D:0007H         SYMBOL        SfrPage_
  -------         ENDDO         
  C:69FCH         LINE#         26
  C:69FCH         LINE#         27
  C:69FCH         LINE#         28
  C:69FEH         LINE#         29
  C:6A01H         LINE#         30
  C:6A03H         LINE#         31
  C:6A06H         LINE#         32
  C:6A0CH         LINE#         33
  C:6A12H         LINE#         34
  C:6A14H         LINE#         35
  C:6A16H         LINE#         36
  C:6A18H         LINE#         37
  C:6A38H         LINE#         38
  -------         ENDPROC       TIMER2_INIT
  -------         PROC          TIMER2_ISR
  C:6A39H         LINE#         46
  C:6A56H         LINE#         48
  C:6A58H         LINE#         49
  C:6A5BH         LINE#         50
BL51 BANKED LINKER/LOCATER V6.22                                                      06/13/2013  10:29:17  PAGE 103


  -------         ENDPROC       TIMER2_ISR
  -------         PROC          TIMER2_TASKINISR
  C:6B2AH         LINE#         68
  C:6B2AH         LINE#         69
  C:6B2AH         LINE#         70
  C:6B2DH         LINE#         71
  C:6B3BH         LINE#         72
  C:6B42H         LINE#         73
  C:6B42H         LINE#         74
  C:6B62H         LINE#         75
  C:6B65H         LINE#         77
  C:6B65H         LINE#         78
  -------         ENDPROC       TIMER2_TASKINISR
  -------         PROC          TIMER2_TASKINMAIN
  C:7227H         LINE#         86
  C:7227H         LINE#         87
  C:7227H         LINE#         88
  C:722CH         LINE#         89
  C:722FH         LINE#         90
  C:7235H         LINE#         91
  C:7238H         LINE#         93
  C:7238H         LINE#         94
  -------         ENDPROC       TIMER2_TASKINMAIN
  -------         ENDMOD        TIMER

  -------         MODULE        ?C?FPADD
  C:0BD7H         PUBLIC        ?C?FPADD
  C:0BD3H         PUBLIC        ?C?FPSUB
  -------         ENDMOD        ?C?FPADD

  -------         MODULE        ?C?FPMUL
  C:0CC8H         PUBLIC        ?C?FPMUL
  -------         ENDMOD        ?C?FPMUL

  -------         MODULE        ?C?FPDIV
  C:0DD1H         PUBLIC        ?C?FPDIV
  -------         ENDMOD        ?C?FPDIV

  -------         MODULE        ?C?FPCMP
  C:0E70H         PUBLIC        ?C?FPCMP
  C:0E6EH         PUBLIC        ?C?FPCMP3
  -------         ENDMOD        ?C?FPCMP

  -------         MODULE        ?C?FCAST
  C:0EE5H         PUBLIC        ?C?FCASTC
  C:0EE0H         PUBLIC        ?C?FCASTI
  C:0EDBH         PUBLIC        ?C?FCASTL
  -------         ENDMOD        ?C?FCAST

  -------         MODULE        ?C?CASTF
  C:0F19H         PUBLIC        ?C?CASTF
  -------         ENDMOD        ?C?CASTF

  -------         MODULE        SQRT
  C:51DBH         PUBLIC        _SQRT
  -------         ENDMOD        SQRT

BL51 BANKED LINKER/LOCATER V6.22                                                      06/13/2013  10:29:17  PAGE 104


  -------         MODULE        SIN
  C:3E1BH         PUBLIC        _COS
  C:3E31H         PUBLIC        _SIN
  C:3E63H         PUBLIC        _TAN
  -------         ENDMOD        SIN

  -------         MODULE        ASIN
  C:6B66H         PUBLIC        _ASIN
  -------         ENDMOD        ASIN

  -------         MODULE        ATAN
  C:41F0H         PUBLIC        _ATAN
  -------         ENDMOD        ATAN

  -------         MODULE        ?C?CLDPTR
  C:0FE7H         PUBLIC        ?C?CLDPTR
  -------         ENDMOD        ?C?CLDPTR

  -------         MODULE        ?C?CLDOPTR
  C:1000H         PUBLIC        ?C?CLDOPTR
  -------         ENDMOD        ?C?CLDOPTR

  -------         MODULE        ?C?CILDPTR
  C:102DH         PUBLIC        ?C?CILDPTR
  -------         ENDMOD        ?C?CILDPTR

  -------         MODULE        ?C?CSTPTR
  C:104FH         PUBLIC        ?C?CSTPTR
  -------         ENDMOD        ?C?CSTPTR

  -------         MODULE        ?C?CSTOPTR
  C:1061H         PUBLIC        ?C?CSTOPTR
  -------         ENDMOD        ?C?CSTOPTR

  -------         MODULE        ?C?IMUL
  C:1083H         PUBLIC        ?C?IMUL
  -------         ENDMOD        ?C?IMUL

  -------         MODULE        ?C?UIDIV
  C:1095H         PUBLIC        ?C?UIDIV
  -------         ENDMOD        ?C?UIDIV

  -------         MODULE        ?C?SIDIV
  C:10EAH         PUBLIC        ?C?SIDIV
  -------         ENDMOD        ?C?SIDIV

  -------         MODULE        ?C?IILDX
  C:1120H         PUBLIC        ?C?IILDX
  -------         ENDMOD        ?C?IILDX

  -------         MODULE        ?C?ILDPTR
  C:1136H         PUBLIC        ?C?ILDPTR
  -------         ENDMOD        ?C?ILDPTR

  -------         MODULE        ?C?ILDOPTR
  C:1161H         PUBLIC        ?C?ILDOPTR
  -------         ENDMOD        ?C?ILDOPTR
BL51 BANKED LINKER/LOCATER V6.22                                                      06/13/2013  10:29:17  PAGE 105



  -------         MODULE        ?C?IILDPTR
  C:1199H         PUBLIC        ?C?IILDPTR
  -------         ENDMOD        ?C?IILDPTR

  -------         MODULE        ?C?IILDOPTR
  C:11D1H         PUBLIC        ?C?IILDOPTR
  -------         ENDMOD        ?C?IILDOPTR

  -------         MODULE        ?C?ISTPTR
  C:121EH         PUBLIC        ?C?ISTPTR
  -------         ENDMOD        ?C?ISTPTR

  -------         MODULE        ?C?ISTOPTR
  C:123DH         PUBLIC        ?C?ISTOPTR
  -------         ENDMOD        ?C?ISTOPTR

  -------         MODULE        ?C?LMUL
  C:126AH         PUBLIC        ?C?LMUL
  -------         ENDMOD        ?C?LMUL

  -------         MODULE        ?C?ULDIV
  C:12F5H         PUBLIC        ?C?ULDIV
  -------         ENDMOD        ?C?ULDIV

  -------         MODULE        ?C?SLDIV
  C:68F5H         PUBLIC        ?C?SLDIV
  -------         ENDMOD        ?C?SLDIV

  -------         MODULE        ?C?LNEG
  C:1387H         PUBLIC        ?C?LNEG
  -------         ENDMOD        ?C?LNEG

  -------         MODULE        ?C?SLCMP
  C:1395H         PUBLIC        ?C?SLCMP
  -------         ENDMOD        ?C?SLCMP

  -------         MODULE        ?C?ULCMP
  C:13ABH         PUBLIC        ?C?ULCMP
  -------         ENDMOD        ?C?ULCMP

  -------         MODULE        ?C?ULSHR
  C:13BCH         PUBLIC        ?C?ULSHR
  -------         ENDMOD        ?C?ULSHR

  -------         MODULE        ?C?LSHL
  C:13CFH         PUBLIC        ?C?LSHL
  -------         ENDMOD        ?C?LSHL

  -------         MODULE        ?C?LLDPTR
  C:13E2H         PUBLIC        ?C?LLDPTR
  -------         ENDMOD        ?C?LLDPTR

  -------         MODULE        ?C?LLDOPTR
  C:1402H         PUBLIC        ?C?LLDOPTR
  -------         ENDMOD        ?C?LLDOPTR

BL51 BANKED LINKER/LOCATER V6.22                                                      06/13/2013  10:29:17  PAGE 106


  -------         MODULE        ?C?LSTPTR
  C:1432H         PUBLIC        ?C?LSTPTR
  -------         ENDMOD        ?C?LSTPTR

  -------         MODULE        ?C?LSTOPTR
  C:144CH         PUBLIC        ?C?LSTOPTR
  -------         ENDMOD        ?C?LSTOPTR

  -------         MODULE        ?C?LLDCODE
  C:1470H         PUBLIC        ?C?LLDCODE
  -------         ENDMOD        ?C?LLDCODE

  -------         MODULE        ?C?LLDCODE0
  C:1480H         PUBLIC        ?C?LLDCODE0
  -------         ENDMOD        ?C?LLDCODE0

  -------         MODULE        ?C?LLDOPTR0
  C:1490H         PUBLIC        ?C?LLDOPTR0
  -------         ENDMOD        ?C?LLDOPTR0

  -------         MODULE        ?C?LSTXDATA
  C:14C0H         PUBLIC        ?C?LSTXDATA
  -------         ENDMOD        ?C?LSTXDATA

  -------         MODULE        ?C?LSTKXDATA
  C:14CCH         PUBLIC        ?C?LSTKXDATA
  -------         ENDMOD        ?C?LSTKXDATA

  -------         MODULE        ?C?LSTKOPTR
  C:14FDH         PUBLIC        ?C?LSTKOPTR
  -------         ENDMOD        ?C?LSTKOPTR

  -------         MODULE        ?C?OFFXADD
  C:1521H         PUBLIC        ?C?OFFXADD
  -------         ENDMOD        ?C?OFFXADD

  -------         MODULE        ?C?PLDOPTR
  C:152DH         PUBLIC        ?C?PLDOPTR
  -------         ENDMOD        ?C?PLDOPTR

  -------         MODULE        ?C?PLDIOPTR
  C:155DH         PUBLIC        ?C?PLDIOPTR
  -------         ENDMOD        ?C?PLDIOPTR

  -------         MODULE        ?C?PSTOPTR
  C:158FH         PUBLIC        ?C?PSTOPTR
  -------         ENDMOD        ?C?PSTOPTR

  -------         MODULE        ?C?ICASE
  C:15E8H         PUBLIC        ?C?ICASE
  -------         ENDMOD        ?C?ICASE

  -------         MODULE        ?C?ICALL
  C:1615H         PUBLIC        ?C?ICALL
  C:1619H         PUBLIC        ?C?ICALL2
  -------         ENDMOD        ?C?ICALL

BL51 BANKED LINKER/LOCATER V6.22                                                      06/13/2013  10:29:17  PAGE 107


  -------         MODULE        STRNCMP
  D:002CH         PUBLIC        ?_strncmp?BYTE
  C:5E40H         PUBLIC        _strncmp
  -------         ENDMOD        STRNCMP

  -------         MODULE        STRNCPY
  D:002BH         PUBLIC        ?_strncpy?BYTE
  C:6529H         PUBLIC        _strncpy
  -------         ENDMOD        STRNCPY

  -------         MODULE        ?C?LLDIDATA
  C:161BH         PUBLIC        ?C?LLDIDATA
  -------         ENDMOD        ?C?LLDIDATA

  -------         MODULE        ?C?LLDXDATA
  C:1627H         PUBLIC        ?C?LLDXDATA
  -------         ENDMOD        ?C?LLDXDATA

  -------         MODULE        ?C?LLDPDATA
  C:1633H         PUBLIC        ?C?LLDPDATA
  -------         ENDMOD        ?C?LLDPDATA

  -------         MODULE        ?C?LLDIDATA0
  C:163FH         PUBLIC        ?C?LLDIDATA0
  -------         ENDMOD        ?C?LLDIDATA0

  -------         MODULE        ?C?LLDXDATA0
  C:164CH         PUBLIC        ?C?LLDXDATA0
  -------         ENDMOD        ?C?LLDXDATA0

  -------         MODULE        ?C?LLDPDATA0
  C:1658H         PUBLIC        ?C?LLDPDATA0
  -------         ENDMOD        ?C?LLDPDATA0

  -------         MODULE        ?C?LSTIDATA
  C:1665H         PUBLIC        ?C?LSTIDATA
  -------         ENDMOD        ?C?LSTIDATA

  -------         MODULE        ?C?LSTPDATA
  C:1671H         PUBLIC        ?C?LSTPDATA
  -------         ENDMOD        ?C?LSTPDATA

  -------         MODULE        ?C?LSTKIDATA
  C:167DH         PUBLIC        ?C?LSTKIDATA
  -------         ENDMOD        ?C?LSTKIDATA

  -------         MODULE        ?C?LSTKPDATA
  C:1696H         PUBLIC        ?C?LSTKPDATA
  -------         ENDMOD        ?C?LSTKPDATA

  -------         MODULE        ?C?PLDIDATA
  C:16AFH         PUBLIC        ?C?PLDIDATA
  -------         ENDMOD        ?C?PLDIDATA

  -------         MODULE        ?C?PLDIIDATA
  C:16B8H         PUBLIC        ?C?PLDIIDATA
  -------         ENDMOD        ?C?PLDIIDATA
BL51 BANKED LINKER/LOCATER V6.22                                                      06/13/2013  10:29:17  PAGE 108



  -------         MODULE        ?C?PSTIDATA
  C:16C8H         PUBLIC        ?C?PSTIDATA
  -------         ENDMOD        ?C?PSTIDATA

  -------         MODULE        ?C?PLDXDATA
  C:16D1H         PUBLIC        ?C?PLDXDATA
  -------         ENDMOD        ?C?PLDXDATA

  -------         MODULE        ?C?PLDIXDATA
  C:16DAH         PUBLIC        ?C?PLDIXDATA
  -------         ENDMOD        ?C?PLDIXDATA

  -------         MODULE        ?C?PSTXDATA
  C:16F1H         PUBLIC        ?C?PSTXDATA
  -------         ENDMOD        ?C?PSTXDATA

  -------         MODULE        ?C?PLDPDATA
  C:16FAH         PUBLIC        ?C?PLDPDATA
  -------         ENDMOD        ?C?PLDPDATA

  -------         MODULE        ?C?PLDIPDATA
  C:1703H         PUBLIC        ?C?PLDIPDATA
  -------         ENDMOD        ?C?PLDIPDATA

  -------         MODULE        ?C?PSTPDATA
  C:1713H         PUBLIC        ?C?PSTPDATA
  -------         ENDMOD        ?C?PSTPDATA

  -------         MODULE        ?C?PLDCODE
  C:171CH         PUBLIC        ?C?PLDCODE
  -------         ENDMOD        ?C?PLDCODE

Program Size: data=109.4 xdata=2920 code=30212
LINK/LOCATE RUN COMPLETE.  0 WARNING(S),  0 ERROR(S)
