BL51 BANKED LINKER/LOCATER V6.22                                                        08/24/2017  22:40:46  PAGE 1


BL51 BANKED LINKER/LOCATER V6.22, INVOKED BY:
D:\KEIL\C51\BIN\BL51.EXE .\obj\STARTUP.obj, .\obj\AdcDrv.obj, .\obj\AngApp.obj, .\obj\Calibration.obj, .\obj\CmdSub.obj,
>>  .\obj\Comm.obj, .\obj\Delay.obj, .\obj\Filter.obj, .\obj\Flash.obj, .\obj\Init.obj, .\obj\Key.obj, .\obj\Main.obj, .
>> \obj\ModBusCrc.obj, .\obj\ModBusRtu.obj, .\obj\Send.obj, .\obj\Sensor.obj, .\obj\Sub.obj, .\obj\Timer.obj, .\obj\CalM
>> cuT.obj TO .\obj\164-0001-20131104 PRINT (.\lst\164-0001-20131104.m51) RAMSIZE (256)


MEMORY MODEL: SMALL WITH FLOATING POINT ARITHMETIC


INPUT MODULES INCLUDED:
  .\obj\STARTUP.obj (?C_STARTUP)
  .\obj\AdcDrv.obj (ADCDRV)
  .\obj\AngApp.obj (ANGAPP)
  .\obj\Calibration.obj (CALIBRATION)
  .\obj\CmdSub.obj (CMDSUB)
  .\obj\Comm.obj (COMM)
  .\obj\Delay.obj (DELAY)
  .\obj\Filter.obj (FILTER)
  .\obj\Flash.obj (FLASH)
  .\obj\Init.obj (INIT)
  .\obj\Key.obj (KEY)
  .\obj\Main.obj (MAIN)
  .\obj\ModBusCrc.obj (MODBUSCRC)
  .\obj\ModBusRtu.obj (MODBUSRTU)
  .\obj\Send.obj (SEND)
  .\obj\Sensor.obj (SENSOR)
  .\obj\Sub.obj (SUB)
  .\obj\Timer.obj (TIMER)
  .\obj\CalMcuT.obj (CALMCUT)
  D:\KEIL\C51\LIB\C51FPS.LIB (?C?FPADD)
  D:\KEIL\C51\LIB\C51FPS.LIB (?C?FPMUL)
  D:\KEIL\C51\LIB\C51FPS.LIB (?C?FPDIV)
  D:\KEIL\C51\LIB\C51FPS.LIB (?C?FPCMP)
  D:\KEIL\C51\LIB\C51FPS.LIB (?C?FCAST)
  D:\KEIL\C51\LIB\C51FPS.LIB (?C?CASTF)
  D:\KEIL\C51\LIB\C51FPS.LIB (SQRT)
  D:\KEIL\C51\LIB\C51FPS.LIB (SIN)
  D:\KEIL\C51\LIB\C51FPS.LIB (ASIN)
  D:\KEIL\C51\LIB\C51FPS.LIB (?C?FPGETOPN)
  D:\KEIL\C51\LIB\C51FPS.LIB (?C?FPSERIES)
  D:\KEIL\C51\LIB\C51FPS.LIB (ATAN)
  D:\KEIL\C51\LIB\C51S.LIB (?C_INIT)
  D:\KEIL\C51\LIB\C51S.LIB (?C?CLDPTR)
  D:\KEIL\C51\LIB\C51S.LIB (?C?CLDOPTR)
  D:\KEIL\C51\LIB\C51S.LIB (?C?CILDPTR)
  D:\KEIL\C51\LIB\C51S.LIB (?C?CSTPTR)
  D:\KEIL\C51\LIB\C51S.LIB (?C?CSTOPTR)
  D:\KEIL\C51\LIB\C51S.LIB (?C?IMUL)
  D:\KEIL\C51\LIB\C51S.LIB (?C?UIDIV)
  D:\KEIL\C51\LIB\C51S.LIB (?C?SIDIV)
  D:\KEIL\C51\LIB\C51S.LIB (?C?IILDX)
  D:\KEIL\C51\LIB\C51S.LIB (?C?ILDPTR)
  D:\KEIL\C51\LIB\C51S.LIB (?C?ILDOPTR)
  D:\KEIL\C51\LIB\C51S.LIB (?C?IILDPTR)
  D:\KEIL\C51\LIB\C51S.LIB (?C?IILDOPTR)
  D:\KEIL\C51\LIB\C51S.LIB (?C?ISTPTR)
  D:\KEIL\C51\LIB\C51S.LIB (?C?ISTOPTR)
BL51 BANKED LINKER/LOCATER V6.22                                                      08/24/2017  22:40:46  PAGE 2


  D:\KEIL\C51\LIB\C51S.LIB (?C?LADD)
  D:\KEIL\C51\LIB\C51S.LIB (?C?LMUL)
  D:\KEIL\C51\LIB\C51S.LIB (?C?ULDIV)
  D:\KEIL\C51\LIB\C51S.LIB (?C?SLDIV)
  D:\KEIL\C51\LIB\C51S.LIB (?C?LOR)
  D:\KEIL\C51\LIB\C51S.LIB (?C?LNEG)
  D:\KEIL\C51\LIB\C51S.LIB (?C?SLCMP)
  D:\KEIL\C51\LIB\C51S.LIB (?C?ULCMP)
  D:\KEIL\C51\LIB\C51S.LIB (?C?ULSHR)
  D:\KEIL\C51\LIB\C51S.LIB (?C?LSHL)
  D:\KEIL\C51\LIB\C51S.LIB (?C?LLDPTR)
  D:\KEIL\C51\LIB\C51S.LIB (?C?LLDOPTR)
  D:\KEIL\C51\LIB\C51S.LIB (?C?LSTPTR)
  D:\KEIL\C51\LIB\C51S.LIB (?C?LSTOPTR)
  D:\KEIL\C51\LIB\C51S.LIB (?C?LLDXDATA)
  D:\KEIL\C51\LIB\C51S.LIB (?C?LLDCODE)
  D:\KEIL\C51\LIB\C51S.LIB (?C?LLDXDATA0)
  D:\KEIL\C51\LIB\C51S.LIB (?C?LLDCODE0)
  D:\KEIL\C51\LIB\C51S.LIB (?C?LLDOPTR0)
  D:\KEIL\C51\LIB\C51S.LIB (?C?LSTXDATA)
  D:\KEIL\C51\LIB\C51S.LIB (?C?LSTKXDATA)
  D:\KEIL\C51\LIB\C51S.LIB (?C?LSTKOPTR)
  D:\KEIL\C51\LIB\C51S.LIB (?C?OFFXADD)
  D:\KEIL\C51\LIB\C51S.LIB (?C?PLDIIDATA)
  D:\KEIL\C51\LIB\C51S.LIB (?C?PLDXDATA)
  D:\KEIL\C51\LIB\C51S.LIB (?C?PSTXDATA)
  D:\KEIL\C51\LIB\C51S.LIB (?C?PLDOPTR)
  D:\KEIL\C51\LIB\C51S.LIB (?C?PLDIOPTR)
  D:\KEIL\C51\LIB\C51S.LIB (?C?PSTOPTR)
  D:\KEIL\C51\LIB\C51S.LIB (?C?CCASE)
  D:\KEIL\C51\LIB\C51S.LIB (?C?ICASE)
  D:\KEIL\C51\LIB\C51S.LIB (?C?LCASE)
  D:\KEIL\C51\LIB\C51S.LIB (?C?ICALL)
  D:\KEIL\C51\LIB\C51S.LIB (STRNCMP)
  D:\KEIL\C51\LIB\C51S.LIB (STRNCPY)
  D:\KEIL\C51\LIB\C51S.LIB (?C?LLDIDATA)
  D:\KEIL\C51\LIB\C51S.LIB (?C?LLDPDATA)
  D:\KEIL\C51\LIB\C51S.LIB (?C?LLDIDATA0)
  D:\KEIL\C51\LIB\C51S.LIB (?C?LLDPDATA0)
  D:\KEIL\C51\LIB\C51S.LIB (?C?LSTIDATA)
  D:\KEIL\C51\LIB\C51S.LIB (?C?LSTPDATA)
  D:\KEIL\C51\LIB\C51S.LIB (?C?LSTKIDATA)
  D:\KEIL\C51\LIB\C51S.LIB (?C?LSTKPDATA)
  D:\KEIL\C51\LIB\C51S.LIB (?C?PLDIDATA)
  D:\KEIL\C51\LIB\C51S.LIB (?C?PSTIDATA)
  D:\KEIL\C51\LIB\C51S.LIB (?C?PLDIXDATA)
  D:\KEIL\C51\LIB\C51S.LIB (?C?PLDPDATA)
  D:\KEIL\C51\LIB\C51S.LIB (?C?PLDIPDATA)
  D:\KEIL\C51\LIB\C51S.LIB (?C?PSTPDATA)
  D:\KEIL\C51\LIB\C51S.LIB (?C?PLDCODE)


LINK MAP OF MODULE:  .\obj\164-0001-20131104 (?C_STARTUP)


            TYPE    BASE      LENGTH    RELOCATION   SEGMENT NAME
            -----------------------------------------------------
BL51 BANKED LINKER/LOCATER V6.22                                                      08/24/2017  22:40:46  PAGE 3



            * * * * * * *   D A T A   M E M O R Y   * * * * * * *
            REG     0000H     0008H     ABSOLUTE     "REG BANK 0"
            DATA    0008H     000AH     UNIT         ?DT?SEND
            DATA    0012H     0004H     UNIT         ?DT?CMDSUB
            DATA    0016H     0002H     UNIT         ?DT?CALMCUT
            DATA    0018H     0001H     UNIT         ?DT?TIMER
            IDATA   0019H     0003H     UNIT         ?ID?ADCDRV
                    001CH     0004H                  *** GAP ***
            BIT     0020H.0   0000H.2   UNIT         ?BI?COMM
            BIT     0020H.2   0000H.2   UNIT         _BIT_GROUP_
                    0020H.4   0000H.4                *** GAP ***
            DATA    0021H     0055H     UNIT         _DATA_GROUP_
            IDATA   0076H     0001H     UNIT         ?STACK

            * * * * * * *  X D A T A   M E M O R Y  * * * * * * *
            XDATA   0000H     04B0H     UNIT         ?XD?CALIBRATION
            XDATA   04B0H     0200H     UNIT         ?XD?FLASH
            XDATA   06B0H     01A2H     UNIT         ?XD?COMM
            XDATA   0852H     019EH     UNIT         ?XD?ADCDRV
            XDATA   09F0H     00F1H     UNIT         ?XD?CALMCUT
            XDATA   0AE1H     00C9H     UNIT         ?XD?SEND
            XDATA   0BAAH     0041H     UNIT         ?XD?SENSOR
            XDATA   0BEBH     0038H     UNIT         ?XD?ANGAPP
            XDATA   0C23H     0018H     UNIT         ?XD?CMDSUB
            XDATA   0C3BH     000FH     UNIT         ?XD?MODBUSRTU
            XDATA   0C4AH     000AH     UNIT         ?XD?INIT
            XDATA   0C54H     0008H     UNIT         _XDATA_GROUP_
            XDATA   0C5CH     0005H     UNIT         ?XD?MAIN
            XDATA   0C61H     0002H     UNIT         ?XD?TIMER
            XDATA   0C63H     0001H     UNIT         ?XD?KEY

            * * * * * * *   C O D E   M E M O R Y   * * * * * * *
            CODE    0000H     0003H     ABSOLUTE     
            CODE    0003H     0020H     UNIT         ?PR?_SEND_TDEAL?SEND
            CODE    0023H     0003H     ABSOLUTE     
            CODE    0026H     0004H     UNIT         ?PR?ADC_ENABLE?ADCDRV
                    002AH     0001H                  *** GAP ***
            CODE    002BH     0003H     ABSOLUTE     
            CODE    002EH     001DH     UNIT         ?PR?COMM_TIMERPROC?COMM
            CODE    004BH     0003H     ABSOLUTE     
            CODE    004EH     0BD2H     UNIT         ?C?LIB_CODE
            CODE    0C20H     0B0BH     UNIT         ?PR?_MODRTU_RDVAL?MODBUSRTU
            CODE    172BH     0722H     UNIT         ?PR?_MODRTU_WRVAL?MODBUSRTU
            CODE    1E4DH     0603H     UNIT         ?PR?_CUSTOMPRO?MODBUSRTU
            CODE    2450H     0591H     UNIT         ?PR?_SEND_SDEAL?SEND
            CODE    29E1H     0377H     UNIT         ?PR?_RAM_CALDATA2BUF?FLASH
            CODE    2D58H     02D7H     UNIT         ?PR?_RAM_BUF2CALDATA?FLASH
            CODE    302FH     0200H     UNIT         ?CO?MODBUSCRC
            CODE    322FH     01B2H     UNIT         ?CO?SEND
            CODE    33E1H     018EH     UNIT         ?PR?_SUB_STR2INT32S?SUB
            CODE    356FH     017CH     UNIT         ?PR?_ANG_CALCPRM?CALIBRATION
            CODE    36EBH     016EH     UNIT         ?PR?SIN?SIN
            CODE    3859H     0165H     UNIT         ?PR?_SEND_CDEAL?SEND
            CODE    39BEH     0163H     UNIT         ?PR?_MCUT_CALCPRM?CALMCUT
            CODE    3B21H     0162H     UNIT         ?PR?_SUB_INT32S2STR?SUB
            CODE    3C83H     0146H     UNIT         ?PR?_SEND_RDEAL?SEND
BL51 BANKED LINKER/LOCATER V6.22                                                      08/24/2017  22:40:46  PAGE 4


            CODE    3DC9H     012CH     UNIT         ?PR?_TEMP_CALCPRM?CALIBRATION
            CODE    3EF5H     0128H     UNIT         ?PR?ATAN?ATAN
            CODE    401DH     0122H     UNIT         ?PR?SEND_TIMEPROC?SEND
            CODE    413FH     010BH     UNIT         ?PR?ANGCALDATAINIT?CALIBRATION
            CODE    424AH     0105H     UNIT         ?PR?FLASH_CALDATAINIT?FLASH
            CODE    434FH     0103H     UNIT         ?PR?_MODRTU_WRREG?MODBUSRTU
            CODE    4452H     0100H     UNIT         ?PR?_SEND_WDEAL?SEND
            CODE    4552H     00EDH     UNIT         ?PR?_MODRTU_RDREG?MODBUSRTU
            CODE    463FH     00E8H     UNIT         ?PR?_TEMP_CALTREFSET?CMDSUB
            CODE    4727H     00E4H     UNIT         ?PR?CALIBINIT?CALIBRATION
            CODE    480BH     00E0H     UNIT         ?PR?MTCALDATAINIT?CALMCUT
            CODE    48EBH     00DBH     UNIT         ?PR?_SLIDEWINFILTER?FILTER
            CODE    49C6H     00D8H     UNIT         ?PR?_PANGCALC?ANGAPP
            CODE    4A9EH     00C4H     UNIT         ?PR?_SUB_SENDTEMPCAL?SUB
            CODE    4B62H     00BFH     UNIT         ?PR?_SUB_STR2INT16U?SUB
            CODE    4C21H     00B7H     UNIT         ?PR?_GETOFFSET?SENSOR
            CODE    4CD8H     00B0H     UNIT         ?PR?_SUB_INT16U2STR?SUB
            CODE    4D88H     00AAH     UNIT         ?PR?SQRT?SQRT
            CODE    4E32H     00A7H     UNIT         ?PR?_ANG_CALC?SENSOR
            CODE    4ED9H     00A5H     UNIT         ?PR?_COMM_GETTXCHAR?COMM
            CODE    4F7EH     00A4H     UNIT         ?PR?_COMM_GETCHAR?COMM
            CODE    5022H     00A1H     UNIT         ?PR?_GETANGCALCVAL?SENSOR
            CODE    50C3H     008FH     UNIT         ?PR?COMM_SOFTWAREINIT?COMM
            CODE    5152H     008DH     UNIT         ?PR?_FLOATTOINT?MODBUSRTU
            CODE    51DFH     008CH     UNIT         ?C_C51STARTUP
            CODE    526BH     008CH     UNIT         ?PR?_COMM_PUTCHAR?COMM
            CODE    52F7H     008BH     UNIT         ?PR?ADC_ISR?ADCDRV
            CODE    5382H     008BH     UNIT         ?PR?SNPROC?SENSOR
            CODE    540DH     0087H     UNIT         ?PR?ADC_XCALSTOP?CMDSUB
            CODE    5494H     0087H     UNIT         ?PR?ADC_YCALSTOP?CMDSUB
            CODE    551BH     0085H     UNIT         ?PR?_ADCFILTER?ADCDRV
            CODE    55A0H     0085H     UNIT         ?PR?_GETMT?CALMCUT
            CODE    5625H     0084H     UNIT         ?PR?_COMM_PUTRXCHAR?COMM
            CODE    56A9H     0080H     UNIT         ?PR?_SNFILTER?SENSOR
            CODE    5729H     0078H     UNIT         ?PR?ANGINIT?ANGAPP
            CODE    57A1H     0077H     UNIT         ?PR?SUB_SENDPRMTALL?SUB
            CODE    5818H     0076H     UNIT         ?PR?_TEMP_CALVALWR?CMDSUB
            CODE    588EH     0075H     UNIT         ?PR?_SUB_BUFBUBBLE16U?SUB
            CODE    5903H     0073H     UNIT         ?PR?_SUB_SENDMCUTEMPCAL?SUB
            CODE    5976H     0072H     UNIT         ?PR?COMM_ISR?COMM
            CODE    59E8H     0070H     UNIT         ?PR?TEMPSORTANDCALCPRM?CMDSUB
            CODE    5A58H     006FH     UNIT         ?PR?_STRNCMP?STRNCMP
            CODE    5AC7H     006EH     UNIT         ?PR?SNINIT?SENSOR
            CODE    5B35H     006DH     UNIT         ?PR?_SUB_BUFBUBBLE16S?SUB
            CODE    5BA2H     0069H     UNIT         ?PR?_SN_DATAINIT?SENSOR
            CODE    5C0BH     0069H     UNIT         ?PR?_SUB_BUFBUBBLE32S?SUB
            CODE    5C74H     0068H     UNIT         ?PR?_ADC_SAVEANDSWITCH?ADCDRV
            CODE    5CDCH     0067H     UNIT         ?PR?INIT_SYSTEMPARA?INIT
            CODE    5D43H     0066H     UNIT         ?PR?_TEMP_CALSAMP?CMDSUB
            CODE    5DA9H     0065H     UNIT         ?PR?_FLASH_BUFWR?FLASH
            CODE    5E0EH     0065H     UNIT         ?PR?_SEND_UDEAL?SEND
            CODE    5E73H     005EH     UNIT         ?CO?SUB
            CODE    5ED1H     005DH     UNIT         ?PR?_FILTER_1ST?FILTER
            CODE    5F2EH     005CH     UNIT         ?PR?TEMPCALDATAINIT?CALIBRATION
            CODE    5F8AH     005BH     UNIT         ?PR?_SUMCHK?MODBUSRTU
            CODE    5FE5H     005AH     UNIT         ?PR?_SUB_STR2INT16S?SUB
            CODE    603FH     0058H     UNIT         ?PR?_CHKCODE?MODBUSRTU
BL51 BANKED LINKER/LOCATER V6.22                                                      08/24/2017  22:40:46  PAGE 5


            CODE    6097H     0058H     UNIT         ?PR?SUB_SENDTCALTEST?SUB
            CODE    60EFH     0057H     UNIT         ?PR?_FLASH_BUFRD?FLASH
            CODE    6146H     0056H     UNIT         ?PR?FLASHAREA_USER?FLASH
            CODE    619CH     0056H     UNIT         ?PR?_SUB_SBUFSWITCH?SUB
            CODE    61F2H     0052H     UNIT         ?PR?_STRNCPY?STRNCPY
            CODE    6244H     004FH     UNIT         ?PR?_FLASH_CALDATAUPDATE_USER?FLASH
            CODE    6293H     004CH     UNIT         ?PR?GETXANGALLSETVAL?ANGAPP
            CODE    62DFH     004CH     UNIT         ?PR?GETYANGALLSETVAL?ANGAPP
            CODE    632BH     004CH     UNIT         ?PR?_SUB_16SBUFSWITCH?SUB
            CODE    6377H     004CH     UNIT         ?PR?_SUB_UBUFSWITCH?SUB
            CODE    63C3H     004AH     UNIT         ?PR?ADCENTITYINIT?ADCDRV
            CODE    640DH     0049H     UNIT         ?PR?_MCUT_CALVALWR?CALMCUT
            CODE    6456H     0045H     UNIT         ?PR?_MODRTU_RLYERROR?MODBUSRTU
            CODE    649BH     0045H     UNIT         ?PR?_SUB_SENDADCTXY?SUB
            CODE    64E0H     0044H     UNIT         ?C?LDIV
            CODE    6524H     0043H     UNIT         ?PR?FLASH_CALDATAUPDATE?FLASH
            CODE    6567H     0040H     UNIT         ?PR?CALIBMTINIT?CALMCUT
            CODE    65A7H     003EH     UNIT         ?PR?MCUTCALCPRM?CALMCUT
            CODE    65E5H     003DH     UNIT         ?PR?TIMER2_ISR?TIMER
            CODE    6622H     003CH     UNIT         ?PR?_MODRTU_RXPROC?MODBUSRTU
            CODE    665EH     003CH     UNIT         ?PR?_SUB_STR2INT8U?SUB
            CODE    669AH     003BH     UNIT         ?PR?ASIN?ASIN
            CODE    66D5H     0038H     UNIT         ?PR?TIMER2_INIT?TIMER
            CODE    670DH     0037H     UNIT         ?PR?_FLASH_CHECKSUM?FLASH
            CODE    6744H     0036H     UNIT         ?PR?SUB_SENDANGXYP?SUB
            CODE    677AH     0036H     UNIT         ?PR?TIMER2_TASKINISR?TIMER
            CODE    67B0H     0035H     UNIT         ?PR?_MODBUSCRCCNT?MODBUSCRC
            CODE    67E5H     0033H     UNIT         ?C_INITSEG
            CODE    6818H     0033H     UNIT         ?PR?_MODRTU_SETZERO?MODBUSRTU
            CODE    684BH     0032H     UNIT         ?PR?_FLASHUPDATE?FLASH
            CODE    687DH     002FH     UNIT         ?PR?RAM_CALDATAINIT_USER?FLASH
            CODE    68ACH     002FH     UNIT         ?PR?_SUB_SENDMCUT?SUB
            CODE    68DBH     002EH     UNIT         ?PR?ADC_SETINIT?ADCDRV
            CODE    6909H     002EH     UNIT         ?PR?GETANGP?ANGAPP
            CODE    6937H     002AH     UNIT         ?PR?_COMM_PUTINT16S?SUB
            CODE    6961H     0029H     UNIT         ?PR?_FLASH_PAGEERASE?FLASH
            CODE    698AH     0028H     UNIT         ?PR?_MODRTU_WRADDR?MODBUSRTU
            CODE    69B2H     0027H     UNIT         ?PR?MAIN?MAIN
            CODE    69D9H     0025H     UNIT         ?PR?_MODRTU_WRBAUD?MODBUSRTU
            CODE    69FEH     0025H     UNIT         ?PR?SUB_SENDANGXY?SUB
            CODE    6A23H     0024H     UNIT         ?PR?_SETANGZERO?ANGAPP
            CODE    6A47H     0024H     UNIT         ?PR?_VALINRANGE?FILTER
            CODE    6A6BH     0023H     UNIT         ?PR?SYS_PORTINIT?INIT
            CODE    6A8EH     0022H     UNIT         ?PR?_SUB_INT16S2STR?SUB
            CODE    6AB0H     0021H     UNIT         ?PR?_COMM_PUTSTR?COMM
            CODE    6AD1H     0021H     UNIT         ?PR?_MODRTU_WR16U?MODBUSRTU
            CODE    6AF2H     0021H     UNIT         ?PR?_SUB_STR2INT8S?SUB
            CODE    6B13H     0020H     UNIT         ?PR?_SUB_INT8U2STR?SUB
            CODE    6B33H     001EH     UNIT         ?PR?_SETANGZEROADD?ANGAPP
            CODE    6B51H     001EH     UNIT         ?PR?COMM_HARDWAREINIT?COMM
            CODE    6B6FH     001EH     UNIT         ?PR?INIT_ALL?INIT
            CODE    6B8DH     001EH     UNIT         ?PR?_MCUT_CALSAMP?CALMCUT
            CODE    6BABH     001BH     UNIT         ?PR?SNXDATAINIT?SENSOR
            CODE    6BC6H     001BH     UNIT         ?PR?SNYDATAINIT?SENSOR
            CODE    6BE1H     001AH     UNIT         ?CO?ADCDRV
            CODE    6BFBH     0019H     UNIT         ?PR?SYS_CLKINIT?INIT
            CODE    6C14H     0019H     UNIT         ?PR?SUB_SENDSYSNUM?SUB
BL51 BANKED LINKER/LOCATER V6.22                                                      08/24/2017  22:40:46  PAGE 6


            CODE    6C2DH     0018H     UNIT         ?PR?FLASH_USERDATAUPDATE?FLASH
            CODE    6C45H     0018H     UNIT         ?PR?_COMM_PUTINT16U?SUB
            CODE    6C5DH     0017H     UNIT         ?PR?_TEMP_RDTEMPVAL?CALIBRATION
            CODE    6C74H     0017H     UNIT         ?PR?_TEMP_WRTEMPVAL?CALIBRATION
            CODE    6C8BH     0017H     UNIT         ?PR?_DELAY_MS?DELAY
            CODE    6CA2H     0017H     UNIT         ?PR?_MCUT_RDADCVAL?CALMCUT
            CODE    6CB9H     0017H     UNIT         ?PR?_MCUT_WRADCVAL?CALMCUT
            CODE    6CD0H     0016H     UNIT         ?PR?TEMP_CALSTOP?CMDSUB
            CODE    6CE6H     0016H     UNIT         ?PR?_MODRTU_CHKCRC?MODBUSRTU
            CODE    6CFCH     0016H     UNIT         ?PR?_COMM_PUTINT8U?SUB
            CODE    6D12H     0015H     UNIT         ?PR?_SETTEMPXCALTEMPVAL?CALIBRATION
            CODE    6D27H     0015H     UNIT         ?PR?_SETTEMPYCALTEMPVAL?CALIBRATION
            CODE    6D3CH     0015H     UNIT         ?PR?_SETTEMPXCALADCVAL?CALIBRATION
            CODE    6D51H     0015H     UNIT         ?PR?_SETANGXCALADCVAL?CALIBRATION
            CODE    6D66H     0015H     UNIT         ?PR?_SETTEMPYCALADCVAL?CALIBRATION
            CODE    6D7BH     0015H     UNIT         ?PR?_SETANGYCALADCVAL?CALIBRATION
            CODE    6D90H     0015H     UNIT         ?PR?_SETMCUTCALTEMPVAL?CALMCUT
            CODE    6DA5H     0015H     UNIT         ?PR?_SETMCUTCALADCVAL?CALMCUT
            CODE    6DBAH     0014H     UNIT         ?PR?_COMM_PUTINT32S?SUB
            CODE    6DCEH     0012H     UNIT         ?PR?TEMP_CALSTA?CMDSUB
            CODE    6DE0H     0012H     UNIT         ?PR?_SNXFILTER?SENSOR
            CODE    6DF2H     0012H     UNIT         ?PR?_SNYFILTER?SENSOR
            CODE    6E04H     0012H     UNIT         ?PR?TIMER2_TASKINMAIN?TIMER
            CODE    6E16H     0011H     UNIT         ?PR?_TEMP_RDADCVAL?CALIBRATION
            CODE    6E27H     0011H     UNIT         ?PR?_TEMP_WRADCVAL?CALIBRATION
            CODE    6E38H     0011H     UNIT         ?PR?_ANG_RDADCVAL?CALIBRATION
            CODE    6E49H     0011H     UNIT         ?PR?_ANG_WRADCVAL?CALIBRATION
            CODE    6E5AH     0011H     UNIT         ?PR?_MCUT_RDTEMPVAL?CALMCUT
            CODE    6E6BH     0011H     UNIT         ?PR?_MCUT_WRTEMPVAL?CALMCUT
            CODE    6E7CH     000FH     UNIT         ?PR?DELAY_100US?DELAY
            CODE    6E8BH     000FH     UNIT         ?PR?GET_MCUTEMP?SENSOR
            CODE    6E9AH     000EH     UNIT         ?PR?_ANG_RDANGVAL?CALIBRATION
            CODE    6EA8H     000EH     UNIT         ?PR?_ANG_WRANGVAL?CALIBRATION
            CODE    6EB6H     000EH     UNIT         ?PR?FLASHCHK?FLASH
            CODE    6EC4H     000EH     UNIT         ?PR?SUB_SENDOK?SUB
            CODE    6ED2H     000EH     UNIT         ?PR?SUB_SENDERR?SUB
            CODE    6EE0H     000EH     UNIT         ?PR?SUB_SENDSOFTVER?SUB
            CODE    6EEEH     000DH     UNIT         ?PR?_MODRTU_RD16U?MODBUSRTU
            CODE    6EFBH     000DH     UNIT         ?PR?COMM_PUTNEWLINESTA?SUB
            CODE    6F08H     000CH     UNIT         ?PR?ADC_INIT?ADCDRV
            CODE    6F14H     000CH     UNIT         ?PR?_GETTEMPXCALTEMPVAL?CALIBRATION
            CODE    6F20H     000CH     UNIT         ?PR?_GETANGXCALANGVAL?CALIBRATION
            CODE    6F2CH     000CH     UNIT         ?PR?_GETTEMPYCALTEMPVAL?CALIBRATION
            CODE    6F38H     000CH     UNIT         ?PR?_GETANGYCALANGVAL?CALIBRATION
            CODE    6F44H     000CH     UNIT         ?PR?_GETTEMPXCALADCVAL?CALIBRATION
            CODE    6F50H     000CH     UNIT         ?PR?_GETANGXCALADCVAL?CALIBRATION
            CODE    6F5CH     000CH     UNIT         ?PR?_GETTEMPYCALADCVAL?CALIBRATION
            CODE    6F68H     000CH     UNIT         ?PR?_GETANGYCALADCVAL?CALIBRATION
            CODE    6F74H     000CH     UNIT         ?PR?_SETANGXCALANGVAL?CALIBRATION
            CODE    6F80H     000CH     UNIT         ?PR?_SETANGYCALANGVAL?CALIBRATION
            CODE    6F8CH     000CH     UNIT         ?PR?_MODRTU_8TO16?MODBUSRTU
            CODE    6F98H     000CH     UNIT         ?PR?_GETMCUTCALTEMPVAL?CALMCUT
            CODE    6FA4H     000CH     UNIT         ?PR?_GETMCUTCALADCVAL?CALMCUT
            CODE    6FB0H     000BH     UNIT         ?PR?_SETTEMPXCALCNT?CALIBRATION
            CODE    6FBBH     000BH     UNIT         ?PR?_SETANGXCALCNT?CALIBRATION
            CODE    6FC6H     000BH     UNIT         ?PR?_SETTEMPYCALCNT?CALIBRATION
            CODE    6FD1H     000BH     UNIT         ?PR?_SETANGYCALCNT?CALIBRATION
BL51 BANKED LINKER/LOCATER V6.22                                                      08/24/2017  22:40:46  PAGE 7


            CODE    6FDCH     000BH     UNIT         ?PR?_MODRTU_WRCRC?MODBUSRTU
            CODE    6FE7H     000BH     UNIT         ?PR?SUB_SYSRST?SUB
            CODE    6FF2H     000BH     UNIT         ?PR?_SETMCUTCALCNT?CALMCUT
            CODE    6FFDH     000AH     UNIT         ?PR?COMM_TIMERINIT?COMM
            CODE    7007H     000AH     UNIT         ?PR?DELAY_MS_?DELAY
            CODE    7011H     0009H     UNIT         ?PR?ADC_GETXVAL?ADCDRV
            CODE    701AH     0009H     UNIT         ?PR?ADC_GETYVAL?ADCDRV
            CODE    7023H     0009H     UNIT         ?PR?ADC_GETTEMP?ADCDRV
            CODE    702CH     0009H     UNIT         ?PR?TEMPXCALCPRM?CALIBRATION
            CODE    7035H     0009H     UNIT         ?PR?TEMPYCALCPRM?CALIBRATION
            CODE    703EH     0009H     UNIT         ?PR?ANGXCALCPRM?CALIBRATION
            CODE    7047H     0009H     UNIT         ?PR?ANGYCALCPRM?CALIBRATION
            CODE    7050H     0009H     UNIT         ?PR?RAM_CALDATAINIT?FLASH
            CODE    7059H     0009H     UNIT         ?PR?ANGXCALC?SENSOR
            CODE    7062H     0009H     UNIT         ?PR?ANGYCALC?SENSOR
            CODE    706BH     0009H     UNIT         ?PR?GETXFTVAL?SENSOR
            CODE    7074H     0009H     UNIT         ?PR?GETYFTVAL?SENSOR
            CODE    707DH     0009H     UNIT         ?PR?GETXOFTVAL?SENSOR
            CODE    7086H     0009H     UNIT         ?PR?GETYOFTVAL?SENSOR
            CODE    708FH     0008H     UNIT         ?PR?_SETTEMPCALCNT?CALIBRATION
            CODE    7097H     0008H     UNIT         ?PR?_SETANGCALCNT?CALIBRATION
            CODE    709FH     0008H     UNIT         ?PR?_GETXOFFSET?SENSOR
            CODE    70A7H     0008H     UNIT         ?PR?_GETYOFFSET?SENSOR
            CODE    70AFH     0007H     UNIT         ?PR?GETANGXSYSZERO?ANGAPP
            CODE    70B6H     0007H     UNIT         ?PR?GETANGYSYSZERO?ANGAPP
            CODE    70BDH     0007H     UNIT         ?PR?GETANGXUSRZERO?ANGAPP
            CODE    70C4H     0007H     UNIT         ?PR?GETANGYUSRZERO?ANGAPP
            CODE    70CBH     0007H     UNIT         ?PR?GETANGXINST?ANGAPP
            CODE    70D2H     0007H     UNIT         ?PR?GETANGYINST?ANGAPP
            CODE    70D9H     0007H     UNIT         ?PR?GETANGXSET?ANGAPP
            CODE    70E0H     0007H     UNIT         ?PR?GETANGYSET?ANGAPP
            CODE    70E7H     0007H     UNIT         ?PR?GETANGPSET?ANGAPP
            CODE    70EEH     0007H     UNIT         ?PR?GETANGXZEROUSR?ANGAPP
            CODE    70F5H     0007H     UNIT         ?PR?GETANGYZEROUSR?ANGAPP
            CODE    70FCH     0007H     UNIT         ?PR?GETANGXRELSYS?ANGAPP
            CODE    7103H     0007H     UNIT         ?PR?GETANGYRELSYS?ANGAPP
            CODE    710AH     0007H     UNIT         ?PR?MAIN_TEMP?MAIN
            CODE    7111H     0007H     UNIT         ?PR?GETXANG?SENSOR
            CODE    7118H     0007H     UNIT         ?PR?GETYANG?SENSOR
            CODE    711FH     0006H     UNIT         ?PR?_SETANGXSYSZERO?ANGAPP
            CODE    7125H     0006H     UNIT         ?PR?_SETANGYSYSZERO?ANGAPP
            CODE    712BH     0006H     UNIT         ?PR?_SETANGXUSRZERO?ANGAPP
            CODE    7131H     0006H     UNIT         ?PR?_SETANGYUSRZERO?ANGAPP
            CODE    7137H     0006H     UNIT         ?PR?_SETANGXINST?ANGAPP
            CODE    713DH     0006H     UNIT         ?PR?_SETANGYINST?ANGAPP
            CODE    7143H     0006H     UNIT         ?PR?GETTEMPXCALCNT?CALIBRATION
            CODE    7149H     0006H     UNIT         ?PR?GETANGXCALCNT?CALIBRATION
            CODE    714FH     0006H     UNIT         ?PR?GETANGYCALCNT?CALIBRATION
            CODE    7155H     0006H     UNIT         ?PR?COMM_SENDSTA?COMM
            CODE    715BH     0006H     UNIT         ?PR?GETFILTERCNT?SENSOR
            CODE    7161H     0006H     UNIT         ?PR?_SETFILTERCNT?SENSOR
            CODE    7167H     0006H     UNIT         ?PR?GETMCUTCALCNT?CALMCUT
            CODE    716DH     0006H     UNIT         ?PR?MCUT_CALSTOP?CALMCUT
            CODE    7173H     0004H     UNIT         ?PR?ADC_VREFINIT?ADCDRV
            CODE    7177H     0004H     UNIT         ?PR?ADC_ISRINIT?ADCDRV
            CODE    717BH     0004H     UNIT         ?PR?_TEMP_SETCALCNT?CALIBRATION
            CODE    717FH     0004H     UNIT         ?PR?_ANG_SETCALCNT?CALIBRATION
BL51 BANKED LINKER/LOCATER V6.22                                                      08/24/2017  22:40:46  PAGE 8


            CODE    7183H     0004H     UNIT         ?PR?COMM_SENDSTOP?COMM
            CODE    7187H     0004H     UNIT         ?PR?_MCUT_SETCALCNT?CALMCUT
            CODE    718BH     0003H     UNIT         ?PR?MCUT_CALSTA?CALMCUT



OVERLAY MAP OF MODULE:   .\obj\164-0001-20131104 (?C_STARTUP)


SEGMENT                                        BIT_GROUP          DATA_GROUP          XDATA_GROUP
  +--> CALLED SEGMENT                       START    LENGTH     START    LENGTH     START    LENGTH
---------------------------------------------------------------------------------------------------
?C_C51STARTUP                               -----    -----      -----    -----      -----    -----
  +--> ?PR?MAIN?MAIN
  +--> ?C_INITSEG

?PR?MAIN?MAIN                               -----    -----      -----    -----      -----    -----
  +--> ?PR?INIT_ALL?INIT
  +--> ?PR?FLASH_CALDATAINIT?FLASH
  +--> ?PR?MAIN_TEMP?MAIN
  +--> ?PR?_DELAY_MS?DELAY
  +--> ?PR?SNPROC?SENSOR
  +--> ?PR?TIMER2_TASKINMAIN?TIMER
  +--> ?PR?SEND_TIMEPROC?SEND

?PR?INIT_ALL?INIT                           -----    -----      -----    -----      -----    -----
  +--> ?PR?SYS_PORTINIT?INIT
  +--> ?PR?SYS_CLKINIT?INIT
  +--> ?PR?COMM_HARDWAREINIT?COMM
  +--> ?PR?COMM_SOFTWAREINIT?COMM
  +--> ?PR?TIMER2_INIT?TIMER
  +--> ?PR?INIT_SYSTEMPARA?INIT
  +--> ?PR?ANGINIT?ANGAPP
  +--> ?PR?ADC_INIT?ADCDRV
  +--> ?PR?ADC_ENABLE?ADCDRV
  +--> ?PR?CALIBMTINIT?CALMCUT

?PR?COMM_SOFTWAREINIT?COMM                  -----    -----      0021H    0003H      -----    -----

?PR?TIMER2_INIT?TIMER                       -----    -----      -----    -----      -----    -----
  +--> ?CO?SEND

?PR?INIT_SYSTEMPARA?INIT                    -----    -----      -----    -----      -----    -----
  +--> ?CO?SEND

?PR?ANGINIT?ANGAPP                          -----    -----      -----    -----      -----    -----
  +--> ?PR?SNINIT?SENSOR
  +--> ?PR?_SETANGXINST?ANGAPP
  +--> ?PR?_SETANGYINST?ANGAPP
  +--> ?PR?_SETANGXSYSZERO?ANGAPP
  +--> ?PR?_SETANGYSYSZERO?ANGAPP
  +--> ?PR?_SETANGXUSRZERO?ANGAPP
  +--> ?PR?_SETANGYUSRZERO?ANGAPP

?PR?SNINIT?SENSOR                           -----    -----      -----    -----      -----    -----
  +--> ?PR?CALIBINIT?CALIBRATION
  +--> ?PR?_SETFILTERCNT?SENSOR
BL51 BANKED LINKER/LOCATER V6.22                                                      08/24/2017  22:40:46  PAGE 9


  +--> ?PR?SNXDATAINIT?SENSOR
  +--> ?PR?_SNXFILTER?SENSOR
  +--> ?PR?_GETXOFFSET?SENSOR
  +--> ?PR?ANGXCALC?SENSOR
  +--> ?PR?SNYDATAINIT?SENSOR
  +--> ?PR?_SNYFILTER?SENSOR
  +--> ?PR?_GETYOFFSET?SENSOR
  +--> ?PR?ANGYCALC?SENSOR

?PR?CALIBINIT?CALIBRATION                   -----    -----      -----    -----      -----    -----
  +--> ?PR?_SETTEMPXCALCNT?CALIBRATION
  +--> ?PR?_GETTEMPXCALTEMPVAL?CALIBRATION
  +--> ?PR?_GETTEMPXCALADCVAL?CALIBRATION
  +--> ?PR?_SETTEMPXCALTEMPVAL?CALIBRATION
  +--> ?PR?_SETTEMPXCALADCVAL?CALIBRATION
  +--> ?PR?_SETTEMPYCALCNT?CALIBRATION
  +--> ?PR?_GETTEMPYCALTEMPVAL?CALIBRATION
  +--> ?PR?_GETTEMPYCALADCVAL?CALIBRATION
  +--> ?PR?_SETTEMPYCALTEMPVAL?CALIBRATION
  +--> ?PR?_SETTEMPYCALADCVAL?CALIBRATION
  +--> ?PR?_SETANGXCALCNT?CALIBRATION
  +--> ?PR?_GETANGXCALANGVAL?CALIBRATION
  +--> ?PR?_GETANGXCALADCVAL?CALIBRATION
  +--> ?PR?_SETANGXCALANGVAL?CALIBRATION
  +--> ?PR?_SETANGXCALADCVAL?CALIBRATION
  +--> ?PR?_SETANGYCALCNT?CALIBRATION
  +--> ?PR?_GETANGYCALANGVAL?CALIBRATION
  +--> ?PR?_GETANGYCALADCVAL?CALIBRATION
  +--> ?PR?_SETANGYCALANGVAL?CALIBRATION
  +--> ?PR?_SETANGYCALADCVAL?CALIBRATION

?PR?_SETTEMPXCALCNT?CALIBRATION             -----    -----      -----    -----      -----    -----
  +--> ?PR?_TEMP_SETCALCNT?CALIBRATION

?PR?_GETTEMPXCALTEMPVAL?CALIBRATION         -----    -----      -----    -----      -----    -----
  +--> ?PR?_TEMP_RDTEMPVAL?CALIBRATION

?PR?_GETTEMPXCALADCVAL?CALIBRATION          -----    -----      -----    -----      -----    -----
  +--> ?PR?_TEMP_RDADCVAL?CALIBRATION

?PR?_SETTEMPXCALTEMPVAL?CALIBRATION         -----    -----      -----    -----      -----    -----
  +--> ?PR?_TEMP_WRTEMPVAL?CALIBRATION

?PR?_TEMP_WRTEMPVAL?CALIBRATION             -----    -----      0026H    0006H      -----    -----

?PR?_SETTEMPXCALADCVAL?CALIBRATION          -----    -----      -----    -----      -----    -----
  +--> ?PR?_TEMP_WRADCVAL?CALIBRATION

?PR?_TEMP_WRADCVAL?CALIBRATION              -----    -----      0026H    0006H      -----    -----

?PR?_SETTEMPYCALCNT?CALIBRATION             -----    -----      -----    -----      -----    -----
  +--> ?PR?_TEMP_SETCALCNT?CALIBRATION

?PR?_GETTEMPYCALTEMPVAL?CALIBRATION         -----    -----      -----    -----      -----    -----
  +--> ?PR?_TEMP_RDTEMPVAL?CALIBRATION

?PR?_GETTEMPYCALADCVAL?CALIBRATION          -----    -----      -----    -----      -----    -----
BL51 BANKED LINKER/LOCATER V6.22                                                      08/24/2017  22:40:46  PAGE 10


  +--> ?PR?_TEMP_RDADCVAL?CALIBRATION

?PR?_SETTEMPYCALTEMPVAL?CALIBRATION         -----    -----      -----    -----      -----    -----
  +--> ?PR?_TEMP_WRTEMPVAL?CALIBRATION

?PR?_SETTEMPYCALADCVAL?CALIBRATION          -----    -----      -----    -----      -----    -----
  +--> ?PR?_TEMP_WRADCVAL?CALIBRATION

?PR?_SETANGXCALCNT?CALIBRATION              -----    -----      -----    -----      -----    -----
  +--> ?PR?_ANG_SETCALCNT?CALIBRATION

?PR?_GETANGXCALANGVAL?CALIBRATION           -----    -----      -----    -----      -----    -----
  +--> ?PR?_ANG_RDANGVAL?CALIBRATION

?PR?_GETANGXCALADCVAL?CALIBRATION           -----    -----      -----    -----      -----    -----
  +--> ?PR?_ANG_RDADCVAL?CALIBRATION

?PR?_SETANGXCALANGVAL?CALIBRATION           -----    -----      0039H    0005H      -----    -----
  +--> ?PR?_ANG_WRANGVAL?CALIBRATION

?PR?_ANG_WRANGVAL?CALIBRATION               -----    -----      003EH    0008H      -----    -----

?PR?_SETANGXCALADCVAL?CALIBRATION           -----    -----      -----    -----      -----    -----
  +--> ?PR?_ANG_WRADCVAL?CALIBRATION

?PR?_ANG_WRADCVAL?CALIBRATION               -----    -----      0039H    0006H      -----    -----

?PR?_SETANGYCALCNT?CALIBRATION              -----    -----      -----    -----      -----    -----
  +--> ?PR?_ANG_SETCALCNT?CALIBRATION

?PR?_GETANGYCALANGVAL?CALIBRATION           -----    -----      -----    -----      -----    -----
  +--> ?PR?_ANG_RDANGVAL?CALIBRATION

?PR?_GETANGYCALADCVAL?CALIBRATION           -----    -----      -----    -----      -----    -----
  +--> ?PR?_ANG_RDADCVAL?CALIBRATION

?PR?_SETANGYCALANGVAL?CALIBRATION           -----    -----      0039H    0005H      -----    -----
  +--> ?PR?_ANG_WRANGVAL?CALIBRATION

?PR?_SETANGYCALADCVAL?CALIBRATION           -----    -----      -----    -----      -----    -----
  +--> ?PR?_ANG_WRADCVAL?CALIBRATION

?PR?SNXDATAINIT?SENSOR                      -----    -----      -----    -----      -----    -----
  +--> ?PR?_SN_DATAINIT?SENSOR

?PR?_SN_DATAINIT?SENSOR                     -----    -----      0021H    0009H      -----    -----

?PR?_SNXFILTER?SENSOR                       -----    -----      -----    -----      -----    -----
  +--> ?PR?_SNFILTER?SENSOR

?PR?_SNFILTER?SENSOR                        -----    -----      0021H    0006H      -----    -----
  +--> ?PR?_VALINRANGE?FILTER
  +--> ?PR?_FILTER_1ST?FILTER

?PR?_FILTER_1ST?FILTER                      -----    -----      0027H    0007H      -----    -----

?PR?_GETXOFFSET?SENSOR                      -----    -----      -----    -----      -----    -----
BL51 BANKED LINKER/LOCATER V6.22                                                      08/24/2017  22:40:46  PAGE 11


  +--> ?PR?_GETOFFSET?SENSOR

?PR?_GETOFFSET?SENSOR                       -----    -----      0021H    0006H      -----    -----

?PR?ANGXCALC?SENSOR                         -----    -----      -----    -----      -----    -----
  +--> ?PR?_ANG_CALC?SENSOR

?PR?_ANG_CALC?SENSOR                        -----    -----      0021H    0007H      -----    -----
  +--> ?PR?_GETANGCALCVAL?SENSOR
  +--> ?PR?ASIN?ASIN

?PR?_GETANGCALCVAL?SENSOR                   -----    -----      0028H    0006H      -----    -----

?PR?ASIN?ASIN                               -----    -----      -----    -----      -----    -----
  +--> ?PR?SQRT?SQRT
  +--> ?PR?ATAN?ATAN

?PR?SQRT?SQRT                               -----    -----      004AH    0004H      -----    -----

?PR?ATAN?ATAN                               0020H.2  0000H.2    004AH    0004H      -----    -----

?PR?SNYDATAINIT?SENSOR                      -----    -----      -----    -----      -----    -----
  +--> ?PR?_SN_DATAINIT?SENSOR

?PR?_SNYFILTER?SENSOR                       -----    -----      -----    -----      -----    -----
  +--> ?PR?_SNFILTER?SENSOR

?PR?_GETYOFFSET?SENSOR                      -----    -----      -----    -----      -----    -----
  +--> ?PR?_GETOFFSET?SENSOR

?PR?ANGYCALC?SENSOR                         -----    -----      -----    -----      -----    -----
  +--> ?PR?_ANG_CALC?SENSOR

?PR?ADC_INIT?ADCDRV                         -----    -----      -----    -----      -----    -----
  +--> ?PR?ADC_SETINIT?ADCDRV
  +--> ?PR?ADC_VREFINIT?ADCDRV
  +--> ?PR?ADC_ISRINIT?ADCDRV
  +--> ?PR?ADCENTITYINIT?ADCDRV

?PR?CALIBMTINIT?CALMCUT                     -----    -----      -----    -----      -----    -----
  +--> ?PR?_SETMCUTCALCNT?CALMCUT
  +--> ?PR?_GETMCUTCALTEMPVAL?CALMCUT
  +--> ?PR?_GETMCUTCALADCVAL?CALMCUT
  +--> ?PR?_SETMCUTCALTEMPVAL?CALMCUT
  +--> ?PR?_SETMCUTCALADCVAL?CALMCUT

?PR?_SETMCUTCALCNT?CALMCUT                  -----    -----      -----    -----      -----    -----
  +--> ?PR?_MCUT_SETCALCNT?CALMCUT

?PR?_GETMCUTCALTEMPVAL?CALMCUT              -----    -----      -----    -----      -----    -----
  +--> ?PR?_MCUT_RDTEMPVAL?CALMCUT

?PR?_GETMCUTCALADCVAL?CALMCUT               -----    -----      -----    -----      -----    -----
  +--> ?PR?_MCUT_RDADCVAL?CALMCUT

?PR?_SETMCUTCALTEMPVAL?CALMCUT              -----    -----      -----    -----      -----    -----
  +--> ?PR?_MCUT_WRTEMPVAL?CALMCUT
BL51 BANKED LINKER/LOCATER V6.22                                                      08/24/2017  22:40:46  PAGE 12



?PR?_MCUT_WRTEMPVAL?CALMCUT                 -----    -----      0026H    0006H      -----    -----

?PR?_SETMCUTCALADCVAL?CALMCUT               -----    -----      -----    -----      -----    -----
  +--> ?PR?_MCUT_WRADCVAL?CALMCUT

?PR?_MCUT_WRADCVAL?CALMCUT                  -----    -----      0026H    0006H      -----    -----

?PR?FLASH_CALDATAINIT?FLASH                 -----    -----      0021H    0001H      -----    -----
  +--> ?PR?_FLASH_BUFRD?FLASH
  +--> ?PR?FLASHCHK?FLASH
  +--> ?PR?RAM_CALDATAINIT?FLASH
  +--> ?PR?FLASH_CALDATAUPDATE?FLASH
  +--> ?PR?_RAM_BUF2CALDATA?FLASH
  +--> ?PR?_FLASH_CHECKSUM?FLASH
  +--> ?PR?FLASHAREA_USER?FLASH
  +--> ?PR?_FLASH_CALDATAUPDATE_USER?FLASH
  +--> ?PR?GETANGXCALCNT?CALIBRATION
  +--> ?PR?GETANGYCALCNT?CALIBRATION
  +--> ?PR?ADC_XCALSTOP?CMDSUB
  +--> ?PR?ADC_YCALSTOP?CMDSUB
  +--> ?PR?TEMP_CALSTOP?CMDSUB
  +--> ?PR?MCUT_CALSTOP?CALMCUT
  +--> ?CO?SEND

?PR?_FLASH_BUFRD?FLASH                      0020H.2  0000H.1    0022H    0009H      -----    -----

?PR?RAM_CALDATAINIT?FLASH                   -----    -----      -----    -----      -----    -----
  +--> ?PR?ANGCALDATAINIT?CALIBRATION
  +--> ?PR?TEMPCALDATAINIT?CALIBRATION
  +--> ?PR?MTCALDATAINIT?CALMCUT

?PR?ANGCALDATAINIT?CALIBRATION              -----    -----      -----    -----      -----    -----
  +--> ?PR?_SETANGCALCNT?CALIBRATION

?PR?_SETANGCALCNT?CALIBRATION               -----    -----      -----    -----      -----    -----
  +--> ?PR?_SETANGXCALCNT?CALIBRATION
  +--> ?PR?_SETANGYCALCNT?CALIBRATION

?PR?TEMPCALDATAINIT?CALIBRATION             -----    -----      0022H    0001H      -----    -----
  +--> ?PR?_SETTEMPCALCNT?CALIBRATION

?PR?_SETTEMPCALCNT?CALIBRATION              -----    -----      -----    -----      -----    -----
  +--> ?PR?_SETTEMPXCALCNT?CALIBRATION
  +--> ?PR?_SETTEMPYCALCNT?CALIBRATION

?PR?MTCALDATAINIT?CALMCUT                   -----    -----      0022H    0001H      -----    -----
  +--> ?PR?_SETMCUTCALCNT?CALMCUT

?PR?FLASH_CALDATAUPDATE?FLASH               -----    -----      -----    -----      -----    -----
  +--> ?PR?_RAM_CALDATA2BUF?FLASH
  +--> ?PR?_FLASHUPDATE?FLASH

?PR?_RAM_CALDATA2BUF?FLASH                  -----    -----      0042H    0006H      -----    -----
  +--> ?PR?_GETANGXCALANGVAL?CALIBRATION
  +--> ?PR?_GETANGYCALANGVAL?CALIBRATION
  +--> ?PR?_GETANGXCALADCVAL?CALIBRATION
BL51 BANKED LINKER/LOCATER V6.22                                                      08/24/2017  22:40:46  PAGE 13


  +--> ?PR?_GETANGYCALADCVAL?CALIBRATION
  +--> ?PR?_GETTEMPXCALTEMPVAL?CALIBRATION
  +--> ?PR?_GETTEMPXCALADCVAL?CALIBRATION
  +--> ?PR?_GETTEMPYCALADCVAL?CALIBRATION
  +--> ?PR?GETANGXCALCNT?CALIBRATION
  +--> ?PR?GETTEMPXCALCNT?CALIBRATION
  +--> ?PR?GETANGXSYSZERO?ANGAPP
  +--> ?PR?GETANGYSYSZERO?ANGAPP
  +--> ?PR?GETMCUTCALCNT?CALMCUT
  +--> ?PR?_GETMCUTCALTEMPVAL?CALMCUT
  +--> ?PR?_GETMCUTCALADCVAL?CALMCUT
  +--> ?PR?GETFILTERCNT?SENSOR
  +--> ?PR?GETANGXUSRZERO?ANGAPP
  +--> ?PR?GETANGYUSRZERO?ANGAPP
  +--> ?PR?GETANGXINST?ANGAPP
  +--> ?PR?GETANGYINST?ANGAPP
  +--> ?PR?GETANGXSET?ANGAPP
  +--> ?PR?GETANGYSET?ANGAPP
  +--> ?PR?GETANGPSET?ANGAPP
  +--> ?PR?_FLASH_CHECKSUM?FLASH

?PR?_FLASH_CHECKSUM?FLASH                   -----    -----      0048H    0005H      -----    -----

?PR?_FLASHUPDATE?FLASH                      0020H.2  0000H.1    0042H    0007H      -----    -----
  +--> ?PR?_FLASH_PAGEERASE?FLASH
  +--> ?PR?_DELAY_MS?DELAY
  +--> ?PR?_FLASH_BUFWR?FLASH

?PR?_FLASH_PAGEERASE?FLASH                  0020H.3  0000H.1    -----    -----      -----    -----

?PR?_DELAY_MS?DELAY                         -----    -----      -----    -----      -----    -----
  +--> ?PR?DELAY_MS_?DELAY

?PR?DELAY_MS_?DELAY                         -----    -----      -----    -----      -----    -----
  +--> ?PR?DELAY_100US?DELAY

?PR?_FLASH_BUFWR?FLASH                      0020H.3  0000H.1    0049H    000BH      -----    -----

?PR?_RAM_BUF2CALDATA?FLASH                  -----    -----      0022H    0004H      -----    -----
  +--> ?PR?_SETANGXCALANGVAL?CALIBRATION
  +--> ?PR?_SETANGYCALANGVAL?CALIBRATION
  +--> ?PR?_SETANGXCALADCVAL?CALIBRATION
  +--> ?PR?_SETANGYCALADCVAL?CALIBRATION
  +--> ?PR?_SETTEMPXCALTEMPVAL?CALIBRATION
  +--> ?PR?_SETTEMPXCALADCVAL?CALIBRATION
  +--> ?PR?_SETTEMPYCALADCVAL?CALIBRATION
  +--> ?PR?_SETANGCALCNT?CALIBRATION
  +--> ?PR?_SETTEMPCALCNT?CALIBRATION
  +--> ?PR?_SETANGXSYSZERO?ANGAPP
  +--> ?PR?_SETANGYSYSZERO?ANGAPP
  +--> ?PR?_SETMCUTCALCNT?CALMCUT
  +--> ?PR?_SETMCUTCALTEMPVAL?CALMCUT
  +--> ?PR?_SETMCUTCALADCVAL?CALMCUT
  +--> ?PR?_SETFILTERCNT?SENSOR
  +--> ?PR?_SETANGXUSRZERO?ANGAPP
  +--> ?PR?_SETANGYUSRZERO?ANGAPP
  +--> ?PR?_SETANGXINST?ANGAPP
BL51 BANKED LINKER/LOCATER V6.22                                                      08/24/2017  22:40:46  PAGE 14


  +--> ?PR?_SETANGYINST?ANGAPP

?PR?FLASHAREA_USER?FLASH                    -----    -----      -----    -----      -----    -----
  +--> ?PR?_FLASH_BUFRD?FLASH
  +--> ?PR?FLASHCHK?FLASH
  +--> ?PR?_FLASH_CHECKSUM?FLASH
  +--> ?PR?RAM_CALDATAINIT_USER?FLASH
  +--> ?PR?_FLASH_CALDATAUPDATE_USER?FLASH
  +--> ?PR?_RAM_BUF2CALDATA?FLASH

?PR?RAM_CALDATAINIT_USER?FLASH              -----    -----      -----    -----      -----    -----
  +--> ?PR?_SETANGXUSRZERO?ANGAPP
  +--> ?PR?_SETANGYUSRZERO?ANGAPP
  +--> ?PR?_SETANGXINST?ANGAPP
  +--> ?PR?_SETANGYINST?ANGAPP
  +--> ?PR?INIT_SYSTEMPARA?INIT

?PR?_FLASH_CALDATAUPDATE_USER?FLASH         -----    -----      0039H    0009H      -----    -----
  +--> ?PR?_RAM_CALDATA2BUF?FLASH
  +--> ?PR?_FLASHUPDATE?FLASH

?PR?ADC_XCALSTOP?CMDSUB                     -----    -----      0022H    0001H      -----    -----
  +--> ?PR?_SUB_BUFBUBBLE32S?SUB
  +--> ?PR?ANGXCALCPRM?CALIBRATION

?PR?_SUB_BUFBUBBLE32S?SUB                   -----    -----      0023H    0009H      -----    -----
  +--> ?PR?_SUB_SBUFSWITCH?SUB
  +--> ?PR?_SUB_UBUFSWITCH?SUB

?PR?_SUB_SBUFSWITCH?SUB                     -----    -----      002CH    0009H      -----    -----

?PR?_SUB_UBUFSWITCH?SUB                     -----    -----      003DH    0007H      -----    -----

?PR?ANGXCALCPRM?CALIBRATION                 -----    -----      -----    -----      -----    -----
  +--> ?PR?_ANG_CALCPRM?CALIBRATION

?PR?_ANG_CALCPRM?CALIBRATION                -----    -----      0023H    000CH      -----    -----
  +--> ?PR?SIN?SIN

?PR?SIN?SIN                                 0020H.2  0000H.1    004AH    0004H      -----    -----

?PR?ADC_YCALSTOP?CMDSUB                     -----    -----      0022H    0001H      -----    -----
  +--> ?PR?_SUB_BUFBUBBLE32S?SUB
  +--> ?PR?ANGYCALCPRM?CALIBRATION

?PR?ANGYCALCPRM?CALIBRATION                 -----    -----      -----    -----      -----    -----
  +--> ?PR?_ANG_CALCPRM?CALIBRATION

?PR?TEMP_CALSTOP?CMDSUB                     -----    -----      -----    -----      -----    -----
  +--> ?PR?TEMPSORTANDCALCPRM?CMDSUB

?PR?TEMPSORTANDCALCPRM?CMDSUB               -----    -----      -----    -----      -----    -----
  +--> ?PR?_SUB_BUFBUBBLE16U?SUB
  +--> ?PR?TEMPXCALCPRM?CALIBRATION
  +--> ?PR?TEMPYCALCPRM?CALIBRATION

?PR?_SUB_BUFBUBBLE16U?SUB                   -----    -----      0031H    000CH      -----    -----
BL51 BANKED LINKER/LOCATER V6.22                                                      08/24/2017  22:40:46  PAGE 15


  +--> ?PR?_SUB_UBUFSWITCH?SUB
  +--> ?PR?_SUB_16SBUFSWITCH?SUB

?PR?_SUB_16SBUFSWITCH?SUB                   -----    -----      003DH    0007H      -----    -----

?PR?TEMPXCALCPRM?CALIBRATION                -----    -----      -----    -----      -----    -----
  +--> ?PR?_TEMP_CALCPRM?CALIBRATION

?PR?_TEMP_CALCPRM?CALIBRATION               -----    -----      0031H    0004H      -----    -----

?PR?TEMPYCALCPRM?CALIBRATION                -----    -----      -----    -----      -----    -----
  +--> ?PR?_TEMP_CALCPRM?CALIBRATION

?PR?MCUT_CALSTOP?CALMCUT                    -----    -----      -----    -----      -----    -----
  +--> ?PR?MCUTCALCPRM?CALMCUT

?PR?MCUTCALCPRM?CALMCUT                     -----    -----      -----    -----      -----    -----
  +--> ?PR?_SUB_BUFBUBBLE16S?SUB
  +--> ?PR?_MCUT_CALCPRM?CALMCUT

?PR?_SUB_BUFBUBBLE16S?SUB                   -----    -----      0025H    0009H      -----    -----
  +--> ?PR?_SUB_16SBUFSWITCH?SUB
  +--> ?PR?_SUB_UBUFSWITCH?SUB

?PR?_MCUT_CALCPRM?CALMCUT                   -----    -----      0025H    0008H      -----    -----

?PR?SNPROC?SENSOR                           -----    -----      -----    -----      -----    -----
  +--> ?PR?ADC_GETXVAL?ADCDRV
  +--> ?PR?GET_MCUTEMP?SENSOR
  +--> ?PR?ADC_GETYVAL?ADCDRV

?PR?GET_MCUTEMP?SENSOR                      -----    -----      -----    -----      -----    -----
  +--> ?PR?ADC_GETTEMP?ADCDRV

?PR?TIMER2_TASKINMAIN?TIMER                 -----    -----      -----    -----      -----    -----
  +--> ?PR?SUB_SENDANGXY?SUB

?PR?SUB_SENDANGXY?SUB                       -----    -----      -----    -----      -----    -----
  +--> ?CO?SUB
  +--> ?PR?_COMM_PUTSTR?COMM
  +--> ?PR?GETXANGALLSETVAL?ANGAPP
  +--> ?PR?_COMM_PUTINT32S?SUB
  +--> ?PR?GETYANGALLSETVAL?ANGAPP
  +--> ?PR?COMM_PUTNEWLINESTA?SUB

?PR?_COMM_PUTSTR?COMM                       -----    -----      0039H    0003H      -----    -----
  +--> ?PR?_COMM_PUTCHAR?COMM

?PR?_COMM_PUTCHAR?COMM                      -----    -----      003CH    0003H      -----    -----

?PR?GETXANGALLSETVAL?ANGAPP                 -----    -----      003AH    0004H      -----    -----
  +--> ?PR?GETXANG?SENSOR
  +--> ?PR?_SETANGZERO?ANGAPP
  +--> ?PR?_SETANGZEROADD?ANGAPP

?PR?_SETANGZERO?ANGAPP                      -----    -----      003EH    0004H      -----    -----

BL51 BANKED LINKER/LOCATER V6.22                                                      08/24/2017  22:40:46  PAGE 16


?PR?_SETANGZEROADD?ANGAPP                   -----    -----      003EH    0004H      -----    -----

?PR?_COMM_PUTINT32S?SUB                     -----    -----      -----    -----      -----    -----
  +--> ?PR?_SUB_INT32S2STR?SUB
  +--> ?PR?_COMM_PUTSTR?COMM

?PR?_SUB_INT32S2STR?SUB                     -----    -----      002CH    0007H      -----    -----

?PR?GETYANGALLSETVAL?ANGAPP                 -----    -----      003AH    0004H      -----    -----
  +--> ?PR?GETYANG?SENSOR
  +--> ?PR?_SETANGZERO?ANGAPP
  +--> ?PR?_SETANGZEROADD?ANGAPP

?PR?COMM_PUTNEWLINESTA?SUB                  -----    -----      -----    -----      -----    -----
  +--> ?PR?_COMM_PUTCHAR?COMM
  +--> ?PR?COMM_SENDSTA?COMM

?PR?SEND_TIMEPROC?SEND                      -----    -----      -----    -----      -----    -----
  +--> ?PR?_COMM_GETCHAR?COMM
  +--> ?PR?_CUSTOMPRO?MODBUSRTU
  +--> ?PR?_MODRTU_RXPROC?MODBUSRTU
  +--> ?PR?_SEND_RDEAL?SEND
  +--> ?PR?_SEND_CDEAL?SEND
  +--> ?PR?_SEND_SDEAL?SEND
  +--> ?PR?_SEND_UDEAL?SEND
  +--> ?PR?_SEND_WDEAL?SEND
  +--> ?PR?_SEND_TDEAL?SEND

?PR?_COMM_GETCHAR?COMM                      -----    -----      0021H    0006H      -----    -----

?PR?_CUSTOMPRO?MODBUSRTU                    -----    -----      0021H    0005H      0C54H    0001H
  +--> ?PR?_CHKCODE?MODBUSRTU
  +--> ?PR?GETXANGALLSETVAL?ANGAPP
  +--> ?PR?_FLOATTOINT?MODBUSRTU
  +--> ?PR?GETYANGALLSETVAL?ANGAPP
  +--> ?PR?_SUMCHK?MODBUSRTU
  +--> ?PR?FLASH_USERDATAUPDATE?FLASH
  +--> ?PR?_COMM_PUTSTR?COMM
  +--> ?PR?COMM_SENDSTA?COMM
  +--> ?PR?_DELAY_MS?DELAY
  +--> ?CO?SEND

?PR?_CHKCODE?MODBUSRTU                      -----    -----      0026H    0003H      -----    -----

?PR?_FLOATTOINT?MODBUSRTU                   -----    -----      003AH    000CH      -----    -----

?PR?_SUMCHK?MODBUSRTU                       -----    -----      0026H    0006H      0C55H    0001H

?PR?FLASH_USERDATAUPDATE?FLASH              -----    -----      -----    -----      -----    -----
  +--> ?PR?_FLASH_CALDATAUPDATE_USER?FLASH

?PR?_MODRTU_RXPROC?MODBUSRTU                -----    -----      0021H    0004H      -----    -----
  +--> ?PR?_MODRTU_CHKCRC?MODBUSRTU
  +--> ?PR?_MODRTU_RDREG?MODBUSRTU
  +--> ?PR?_MODRTU_WRREG?MODBUSRTU
  +--> ?PR?_MODRTU_RLYERROR?MODBUSRTU

BL51 BANKED LINKER/LOCATER V6.22                                                      08/24/2017  22:40:46  PAGE 17


?PR?_MODRTU_CHKCRC?MODBUSRTU                -----    -----      -----    -----      -----    -----
  +--> ?PR?_MODBUSCRCCNT?MODBUSCRC

?PR?_MODBUSCRCCNT?MODBUSCRC                 -----    -----      0035H    0003H      -----    -----
  +--> ?CO?MODBUSCRC

?PR?_MODRTU_RDREG?MODBUSRTU                 -----    -----      0025H    000DH      -----    -----
  +--> ?PR?_MODRTU_8TO16?MODBUSRTU
  +--> ?PR?_MODRTU_RDVAL?MODBUSRTU
  +--> ?PR?_MODRTU_RLYERROR?MODBUSRTU
  +--> ?PR?_MODBUSCRCCNT?MODBUSCRC
  +--> ?PR?_MODRTU_WRCRC?MODBUSRTU
  +--> ?PR?_COMM_PUTSTR?COMM
  +--> ?PR?COMM_SENDSTA?COMM

?PR?_MODRTU_RDVAL?MODBUSRTU                 -----    -----      0032H    0008H      0C54H    0004H
  +--> ?PR?GETXANGALLSETVAL?ANGAPP
  +--> ?PR?GETYANGALLSETVAL?ANGAPP
  +--> ?PR?GETANGP?ANGAPP
  +--> ?PR?GETANGXINST?ANGAPP
  +--> ?PR?GETANGYINST?ANGAPP
  +--> ?PR?GETANGXSET?ANGAPP
  +--> ?PR?GETANGYSET?ANGAPP
  +--> ?PR?GETANGPSET?ANGAPP
  +--> ?PR?GET_MCUTEMP?SENSOR
  +--> ?PR?_GETTEMPXCALTEMPVAL?CALIBRATION
  +--> ?PR?_GETTEMPXCALADCVAL?CALIBRATION
  +--> ?PR?_GETTEMPYCALADCVAL?CALIBRATION
  +--> ?PR?GETXOFTVAL?SENSOR
  +--> ?PR?_FLOATTOINT?MODBUSRTU
  +--> ?PR?_GETANGXCALADCVAL?CALIBRATION
  +--> ?PR?_GETANGXCALANGVAL?CALIBRATION
  +--> ?PR?GETYOFTVAL?SENSOR
  +--> ?PR?_GETANGYCALADCVAL?CALIBRATION
  +--> ?PR?_GETANGYCALANGVAL?CALIBRATION
  +--> ?PR?GETXFTVAL?SENSOR
  +--> ?PR?GETYFTVAL?SENSOR
  +--> ?PR?GETXANG?SENSOR
  +--> ?PR?GETYANG?SENSOR
  +--> ?PR?GETANGXRELSYS?ANGAPP
  +--> ?PR?GETANGYRELSYS?ANGAPP
  +--> ?PR?GETANGXZEROUSR?ANGAPP
  +--> ?PR?GETANGYZEROUSR?ANGAPP
  +--> ?PR?GETANGXSYSZERO?ANGAPP
  +--> ?PR?GETANGYSYSZERO?ANGAPP
  +--> ?PR?GETANGXUSRZERO?ANGAPP
  +--> ?PR?GETANGYUSRZERO?ANGAPP
  +--> ?PR?GETANGXCALCNT?CALIBRATION
  +--> ?PR?GETTEMPXCALCNT?CALIBRATION
  +--> ?PR?GETFILTERCNT?SENSOR
  +--> ?PR?_MODRTU_RD16U?MODBUSRTU

?PR?GETANGP?ANGAPP                          -----    -----      -----    -----      -----    -----
  +--> ?PR?GETXANGALLSETVAL?ANGAPP
  +--> ?PR?GETYANGALLSETVAL?ANGAPP
  +--> ?PR?_PANGCALC?ANGAPP

BL51 BANKED LINKER/LOCATER V6.22                                                      08/24/2017  22:40:46  PAGE 18


?PR?_PANGCALC?ANGAPP                        -----    -----      003AH    0010H      -----    -----
  +--> ?PR?SIN?SIN
  +--> ?PR?SQRT?SQRT
  +--> ?PR?ASIN?ASIN

?PR?_MODRTU_RLYERROR?MODBUSRTU              -----    -----      0032H    0003H      -----    -----
  +--> ?PR?_MODBUSCRCCNT?MODBUSCRC
  +--> ?PR?_COMM_PUTSTR?COMM
  +--> ?PR?COMM_SENDSTA?COMM

?PR?_MODRTU_WRREG?MODBUSRTU                 -----    -----      0025H    000CH      -----    -----
  +--> ?PR?_MODRTU_8TO16?MODBUSRTU
  +--> ?PR?_MODRTU_WRVAL?MODBUSRTU
  +--> ?PR?_MODRTU_RLYERROR?MODBUSRTU
  +--> ?PR?_MODBUSCRCCNT?MODBUSCRC
  +--> ?PR?_MODRTU_WRCRC?MODBUSRTU
  +--> ?PR?_COMM_PUTSTR?COMM
  +--> ?PR?COMM_SENDSTA?COMM
  +--> ?PR?FLASH_USERDATAUPDATE?FLASH

?PR?_MODRTU_WRVAL?MODBUSRTU                 -----    -----      0031H    0008H      0C54H    0008H
  +--> ?PR?_MODRTU_WR16U?MODBUSRTU
  +--> ?PR?_SETANGXINST?ANGAPP
  +--> ?PR?_SETANGYINST?ANGAPP
  +--> ?PR?_MODRTU_SETZERO?MODBUSRTU
  +--> ?PR?_MODRTU_WRADDR?MODBUSRTU
  +--> ?PR?_MODRTU_WRBAUD?MODBUSRTU
  +--> ?PR?GETANGXRELSYS?ANGAPP
  +--> ?PR?_SETANGXUSRZERO?ANGAPP
  +--> ?PR?FLASH_USERDATAUPDATE?FLASH
  +--> ?PR?_SETANGCALCNT?CALIBRATION
  +--> ?PR?GETANGXCALCNT?CALIBRATION
  +--> ?PR?_SETANGXCALANGVAL?CALIBRATION
  +--> ?PR?GETXOFTVAL?SENSOR
  +--> ?PR?_SETANGXCALADCVAL?CALIBRATION
  +--> ?PR?_SETANGYCALANGVAL?CALIBRATION
  +--> ?PR?GETYOFTVAL?SENSOR
  +--> ?PR?_SETANGYCALADCVAL?CALIBRATION
  +--> ?PR?FLASH_CALDATAUPDATE?FLASH
  +--> ?PR?GETXANG?SENSOR
  +--> ?PR?_SETANGXSYSZERO?ANGAPP
  +--> ?PR?GETYANG?SENSOR
  +--> ?PR?_SETANGYSYSZERO?ANGAPP
  +--> ?PR?GETANGYRELSYS?ANGAPP
  +--> ?PR?_SETANGYUSRZERO?ANGAPP
  +--> ?PR?_SETFILTERCNT?SENSOR

?PR?_MODRTU_SETZERO?MODBUSRTU               -----    -----      0039H    0002H      -----    -----
  +--> ?PR?_MODRTU_8TO16?MODBUSRTU
  +--> ?PR?GETANGXRELSYS?ANGAPP
  +--> ?PR?_SETANGXUSRZERO?ANGAPP
  +--> ?PR?GETANGYRELSYS?ANGAPP
  +--> ?PR?_SETANGYUSRZERO?ANGAPP

?PR?_SEND_RDEAL?SEND                        -----    -----      0021H    0005H      -----    -----
  +--> ?CO?SEND
  +--> ?PR?_STRNCMP?STRNCMP
BL51 BANKED LINKER/LOCATER V6.22                                                      08/24/2017  22:40:46  PAGE 19


  +--> ?PR?SUB_SENDPRMTALL?SUB
  +--> ?PR?SUB_SENDANGXYP?SUB
  +--> ?PR?SUB_SENDANGXY?SUB
  +--> ?PR?SUB_SENDSOFTVER?SUB
  +--> ?PR?SUB_SENDSYSNUM?SUB
  +--> ?PR?_SUB_STR2INT8U?SUB
  +--> ?PR?_SUB_SENDTEMPCAL?SUB
  +--> ?PR?_SUB_SENDMCUTEMPCAL?SUB
  +--> ?PR?SUB_SENDERR?SUB

?PR?_STRNCMP?STRNCMP                        -----    -----      002CH    0008H      -----    -----

?PR?SUB_SENDPRMTALL?SUB                     -----    -----      -----    -----      -----    -----
  +--> ?CO?SUB
  +--> ?PR?_COMM_PUTSTR?COMM
  +--> ?PR?_COMM_PUTINT16U?SUB
  +--> ?PR?GETXFTVAL?SENSOR
  +--> ?PR?_COMM_PUTCHAR?COMM
  +--> ?PR?GETXOFTVAL?SENSOR
  +--> ?PR?GETXANG?SENSOR
  +--> ?PR?_COMM_PUTINT32S?SUB
  +--> ?PR?GETYFTVAL?SENSOR
  +--> ?PR?GETYOFTVAL?SENSOR
  +--> ?PR?GETYANG?SENSOR
  +--> ?PR?GET_MCUTEMP?SENSOR
  +--> ?PR?_GETMT?CALMCUT
  +--> ?PR?COMM_PUTNEWLINESTA?SUB

?PR?_COMM_PUTINT16U?SUB                     -----    -----      -----    -----      -----    -----
  +--> ?PR?_SUB_INT16U2STR?SUB
  +--> ?PR?_COMM_PUTSTR?COMM

?PR?_SUB_INT16U2STR?SUB                     -----    -----      0039H    0005H      -----    -----

?PR?_GETMT?CALMCUT                          -----    -----      0026H    0003H      -----    -----

?PR?SUB_SENDANGXYP?SUB                      -----    -----      -----    -----      -----    -----
  +--> ?CO?SUB
  +--> ?PR?_COMM_PUTSTR?COMM
  +--> ?PR?GETXANGALLSETVAL?ANGAPP
  +--> ?PR?_COMM_PUTINT32S?SUB
  +--> ?PR?GETYANGALLSETVAL?ANGAPP
  +--> ?PR?GETANGP?ANGAPP
  +--> ?PR?COMM_PUTNEWLINESTA?SUB

?PR?SUB_SENDSOFTVER?SUB                     -----    -----      -----    -----      -----    -----
  +--> ?CO?SUB
  +--> ?PR?_COMM_PUTSTR?COMM
  +--> ?PR?COMM_PUTNEWLINESTA?SUB

?PR?SUB_SENDSYSNUM?SUB                      -----    -----      -----    -----      -----    -----
  +--> ?CO?SUB
  +--> ?PR?_COMM_PUTSTR?COMM
  +--> ?PR?COMM_PUTNEWLINESTA?SUB

?PR?_SUB_SENDTEMPCAL?SUB                    -----    -----      0026H    0001H      -----    -----
  +--> ?CO?SUB
BL51 BANKED LINKER/LOCATER V6.22                                                      08/24/2017  22:40:46  PAGE 20


  +--> ?PR?_COMM_PUTSTR?COMM
  +--> ?PR?_COMM_PUTINT8U?SUB
  +--> ?PR?_COMM_PUTCHAR?COMM
  +--> ?PR?_GETTEMPXCALTEMPVAL?CALIBRATION
  +--> ?PR?_COMM_PUTINT16U?SUB
  +--> ?PR?_GETTEMPXCALADCVAL?CALIBRATION
  +--> ?PR?_COMM_PUTINT16S?SUB
  +--> ?PR?_GETTEMPYCALADCVAL?CALIBRATION
  +--> ?PR?COMM_PUTNEWLINESTA?SUB

?PR?_COMM_PUTINT8U?SUB                      -----    -----      -----    -----      -----    -----
  +--> ?PR?_SUB_INT8U2STR?SUB
  +--> ?PR?_COMM_PUTSTR?COMM

?PR?_COMM_PUTINT16S?SUB                     -----    -----      -----    -----      -----    -----
  +--> ?PR?_SUB_INT16S2STR?SUB
  +--> ?PR?_COMM_PUTSTR?COMM

?PR?_SUB_INT16S2STR?SUB                     -----    -----      -----    -----      -----    -----
  +--> ?PR?_SUB_INT16U2STR?SUB

?PR?_SUB_SENDMCUTEMPCAL?SUB                 -----    -----      0026H    0001H      -----    -----
  +--> ?CO?SUB
  +--> ?PR?_COMM_PUTSTR?COMM
  +--> ?PR?_COMM_PUTINT8U?SUB
  +--> ?PR?_COMM_PUTCHAR?COMM
  +--> ?PR?_GETMCUTCALTEMPVAL?CALMCUT
  +--> ?PR?_COMM_PUTINT16S?SUB
  +--> ?PR?_GETMCUTCALADCVAL?CALMCUT
  +--> ?PR?_COMM_PUTINT16U?SUB
  +--> ?PR?COMM_PUTNEWLINESTA?SUB

?PR?SUB_SENDERR?SUB                         -----    -----      -----    -----      -----    -----
  +--> ?CO?SUB
  +--> ?PR?_COMM_PUTSTR?COMM
  +--> ?PR?COMM_PUTNEWLINESTA?SUB

?PR?_SEND_CDEAL?SEND                        -----    -----      0021H    0004H      -----    -----
  +--> ?CO?SEND
  +--> ?PR?_STRNCMP?STRNCMP
  +--> ?PR?SUB_SENDERR?SUB
  +--> ?PR?_SETANGXSYSZERO?ANGAPP
  +--> ?PR?_SETANGYSYSZERO?ANGAPP
  +--> ?PR?_COMM_PUTSTR?COMM
  +--> ?PR?SUB_SENDOK?SUB
  +--> ?PR?_SETANGXUSRZERO?ANGAPP
  +--> ?PR?_SETANGYUSRZERO?ANGAPP
  +--> ?PR?TEMP_CALSTA?CMDSUB
  +--> ?PR?TEMP_CALSTOP?CMDSUB
  +--> ?PR?MCUT_CALSTA?CALMCUT
  +--> ?PR?MCUT_CALSTOP?CALMCUT

?PR?SUB_SENDOK?SUB                          -----    -----      -----    -----      -----    -----
  +--> ?CO?SUB
  +--> ?PR?_COMM_PUTSTR?COMM
  +--> ?PR?COMM_PUTNEWLINESTA?SUB

BL51 BANKED LINKER/LOCATER V6.22                                                      08/24/2017  22:40:46  PAGE 21


?PR?_SEND_SDEAL?SEND                        -----    -----      0021H    000BH      -----    -----
  +--> ?CO?SEND
  +--> ?PR?_STRNCMP?STRNCMP
  +--> ?PR?_COMM_PUTSTR?COMM
  +--> ?PR?SUB_SENDOK?SUB
  +--> ?PR?SUB_SENDERR?SUB
  +--> ?PR?SUB_SENDANGXY?SUB
  +--> ?PR?_SUB_STR2INT8U?SUB
  +--> ?PR?_SETFILTERCNT?SENSOR
  +--> ?PR?GETXANG?SENSOR
  +--> ?PR?_SETANGXSYSZERO?ANGAPP
  +--> ?PR?GETYANG?SENSOR
  +--> ?PR?_SETANGYSYSZERO?ANGAPP
  +--> ?PR?GETANGXRELSYS?ANGAPP
  +--> ?PR?_SETANGXUSRZERO?ANGAPP
  +--> ?PR?GETANGYRELSYS?ANGAPP
  +--> ?PR?_SETANGYUSRZERO?ANGAPP
  +--> ?PR?_SUB_STR2INT32S?SUB
  +--> ?PR?_SETANGXINST?ANGAPP
  +--> ?PR?_SETANGYINST?ANGAPP
  +--> ?PR?_SETTEMPCALCNT?CALIBRATION
  +--> ?PR?_SETMCUTCALCNT?CALMCUT
  +--> ?PR?_SUB_STR2INT8S?SUB
  +--> ?PR?GET_MCUTEMP?SENSOR
  +--> ?PR?_MCUT_CALSAMP?CALMCUT
  +--> ?PR?GETXFTVAL?SENSOR
  +--> ?PR?GETYFTVAL?SENSOR
  +--> ?PR?_TEMP_CALSAMP?CMDSUB
  +--> ?PR?_TEMP_CALTREFSET?CMDSUB
  +--> ?PR?_DELAY_MS?DELAY
  +--> ?PR?SUB_SYSRST?SUB

?PR?_SUB_STR2INT32S?SUB                     -----    -----      002CH    000AH      -----    -----

?PR?_SUB_STR2INT8S?SUB                      -----    -----      002CH    0003H      -----    -----
  +--> ?PR?_SUB_STR2INT8U?SUB

?PR?_MCUT_CALSAMP?CALMCUT                   -----    -----      002CH    0004H      -----    -----
  +--> ?PR?_MCUT_CALVALWR?CALMCUT
  +--> ?PR?_SUB_SENDMCUT?SUB

?PR?_MCUT_CALVALWR?CALMCUT                  -----    -----      0030H    0003H      -----    -----

?PR?_SUB_SENDMCUT?SUB                       -----    -----      0030H    0004H      -----    -----
  +--> ?CO?SUB
  +--> ?PR?_COMM_PUTSTR?COMM
  +--> ?PR?_COMM_PUTINT16S?SUB
  +--> ?PR?_COMM_PUTINT16U?SUB
  +--> ?PR?COMM_PUTNEWLINESTA?SUB

?PR?_TEMP_CALSAMP?CMDSUB                    -----    -----      002CH    0007H      -----    -----
  +--> ?PR?_TEMP_CALVALWR?CMDSUB
  +--> ?PR?_SUB_SENDADCTXY?SUB

?PR?_TEMP_CALVALWR?CMDSUB                   -----    -----      0033H    0007H      -----    -----

?PR?_SUB_SENDADCTXY?SUB                     -----    -----      0033H    0006H      -----    -----
BL51 BANKED LINKER/LOCATER V6.22                                                      08/24/2017  22:40:46  PAGE 22


  +--> ?CO?SUB
  +--> ?PR?_COMM_PUTSTR?COMM
  +--> ?PR?_COMM_PUTINT16U?SUB
  +--> ?PR?COMM_PUTNEWLINESTA?SUB

?PR?_TEMP_CALTREFSET?CMDSUB                 -----    -----      002CH    0005H      -----    -----
  +--> ?PR?TEMP_CALSTOP?CMDSUB

?PR?_SEND_UDEAL?SEND                        -----    -----      0021H    0004H      -----    -----
  +--> ?CO?SEND
  +--> ?PR?_STRNCMP?STRNCMP
  +--> ?PR?FLASH_CALDATAUPDATE?FLASH
  +--> ?PR?FLASH_USERDATAUPDATE?FLASH
  +--> ?PR?_COMM_PUTSTR?COMM
  +--> ?PR?SUB_SENDOK?SUB
  +--> ?PR?SUB_SENDERR?SUB

?PR?_SEND_WDEAL?SEND                        -----    -----      0021H    000AH      -----    -----
  +--> ?CO?SEND
  +--> ?PR?_STRNCMP?STRNCMP
  +--> ?PR?_SUB_STR2INT16S?SUB
  +--> ?PR?_SUB_STR2INT16U?SUB
  +--> ?PR?_SUB_STR2INT8U?SUB
  +--> ?PR?_TEMP_CALVALWR?CMDSUB
  +--> ?PR?SUB_SENDERR?SUB
  +--> ?PR?_STRNCPY?STRNCPY
  +--> ?PR?_COMM_PUTSTR?COMM
  +--> ?PR?SUB_SENDOK?SUB

?PR?_SUB_STR2INT16S?SUB                     -----    -----      002BH    0008H      -----    -----
  +--> ?PR?_SUB_STR2INT16U?SUB

?PR?_SUB_STR2INT16U?SUB                     -----    -----      0033H    0006H      -----    -----

?PR?_STRNCPY?STRNCPY                        -----    -----      002BH    000AH      -----    -----

?PR?_SEND_TDEAL?SEND                        -----    -----      0021H    0001H      -----    -----
  +--> ?CO?SEND
  +--> ?PR?_STRNCMP?STRNCMP
  +--> ?PR?SUB_SENDTCALTEST?SUB

?PR?SUB_SENDTCALTEST?SUB                    -----    -----      0022H    0004H      -----    -----
  +--> ?PR?GET_MCUTEMP?SENSOR
  +--> ?PR?_COMM_PUTINT16U?SUB
  +--> ?PR?_COMM_PUTCHAR?COMM
  +--> ?PR?_COMM_PUTINT16S?SUB
  +--> ?PR?COMM_PUTNEWLINESTA?SUB

*** NEW ROOT ***************************************************

?PR?ADC_ISR?ADCDRV                          -----    -----      -----    -----      -----    -----
  +--> ?PR?_ADC_SAVEANDSWITCH?ADCDRV

?PR?_ADC_SAVEANDSWITCH?ADCDRV               -----    -----      0054H    0003H      -----    -----
  +--> ?CO?ADCDRV
  +--> ?PR?_ADCFILTER?ADCDRV

BL51 BANKED LINKER/LOCATER V6.22                                                      08/24/2017  22:40:46  PAGE 23


?PR?_ADCFILTER?ADCDRV                       -----    -----      0057H    0005H      -----    -----
  +--> ?PR?_VALINRANGE?FILTER
  +--> ?PR?_SLIDEWINFILTER?FILTER

?PR?_SLIDEWINFILTER?FILTER                  -----    -----      005CH    0012H      -----    -----

*** NEW ROOT ***************************************************

?PR?COMM_ISR?COMM                           -----    -----      006EH    0002H      -----    -----
  +--> ?PR?_COMM_GETTXCHAR?COMM
  +--> ?PR?COMM_SENDSTOP?COMM
  +--> ?PR?_COMM_PUTRXCHAR?COMM
  +--> ?PR?COMM_TIMERINIT?COMM

?PR?_COMM_GETTXCHAR?COMM                    -----    -----      0070H    0006H      -----    -----

?PR?_COMM_PUTRXCHAR?COMM                    -----    -----      0070H    0003H      -----    -----

*** NEW ROOT ***************************************************

?PR?TIMER2_ISR?TIMER                        -----    -----      -----    -----      -----    -----
  +--> ?PR?TIMER2_TASKINISR?TIMER

?PR?TIMER2_TASKINISR?TIMER                  -----    -----      -----    -----      -----    -----
  +--> ?PR?COMM_TIMERPROC?COMM
  +--> ?CO?SEND



SYMBOL TABLE OF MODULE:  .\obj\164-0001-20131104 (?C_STARTUP)

  VALUE           TYPE          NAME
  ----------------------------------

  -------         MODULE        ?C_STARTUP
  C:51DFH         SEGMENT       ?C_C51STARTUP
  I:0076H         SEGMENT       ?STACK
  C:0000H         PUBLIC        ?C_STARTUP
  D:00E0H         SYMBOL        ACC
  D:00F0H         SYMBOL        B
  D:0083H         SYMBOL        DPH
  D:0082H         SYMBOL        DPL
  N:0000H         SYMBOL        IBPSTACK
  N:0100H         SYMBOL        IBPSTACKTOP
  N:0080H         SYMBOL        IDATALEN
  C:51E2H         SYMBOL        IDATALOOP
  N:0000H         SYMBOL        PBPSTACK
  N:0100H         SYMBOL        PBPSTACKTOP
  N:0000H         SYMBOL        PDATALEN
  N:0000H         SYMBOL        PDATASTART
  N:0000H         SYMBOL        PPAGE
  N:0000H         SYMBOL        PPAGEENABLE
  D:00A0H         SYMBOL        PPAGE_SFR
  D:0081H         SYMBOL        SP
  C:51DFH         SYMBOL        STARTUP1
  N:0000H         SYMBOL        XBPSTACK
  N:0000H         SYMBOL        XBPSTACKTOP
BL51 BANKED LINKER/LOCATER V6.22                                                      08/24/2017  22:40:46  PAGE 24


  N:0000H         SYMBOL        XDATALEN
  N:0000H         SYMBOL        XDATASTART
  C:0000H         LINE#         126
  C:51DFH         LINE#         133
  C:51E1H         LINE#         134
  C:51E2H         LINE#         135
  C:51E3H         LINE#         136
  C:51E5H         LINE#         185
  C:51E8H         LINE#         196
  -------         ENDMOD        ?C_STARTUP

  -------         MODULE        ADCDRV
  C:0000H         SYMBOL        _ICE_DUMMY_
  C:6F08H         PUBLIC        Adc_Init
  D:00A0H         PUBLIC        P2
  D:00BCH         PUBLIC        ADC0CF
  D:00E6H         PUBLIC        EIE1
  C:5C74H         SYMBOL        _Adc_SaveAndSwitch
  C:7011H         PUBLIC        Adc_GetXVal
  C:701AH         PUBLIC        Adc_GetYVal
  D:00E8H         PUBLIC        ADC0CN
  D:00A7H         PUBLIC        SFRPAGE
  C:7173H         SYMBOL        Adc_VrefInit
  C:52F7H         PUBLIC        Adc_Isr
  X:0858H         PUBLIC        x_axis_adc
  X:08E0H         PUBLIC        y_axis_adc
  D:00BBH         PUBLIC        ADC0MX
  D:00D1H         PUBLIC        REF0CN
  C:63C3H         SYMBOL        AdcEntityInit
  B:00E8H.5       PUBLIC        AD0INT
  C:7023H         PUBLIC        Adc_GetTemp
  C:68DBH         SYMBOL        Adc_SetInit
  I:0019H         PUBLIC        AdcSwitchId
  C:7177H         SYMBOL        Adc_IsrInit
  C:0026H         PUBLIC        Adc_Enable
  I:001AH         PUBLIC        AdcEndTag
  D:00BEH         PUBLIC        ADC0H
  X:0968H         PUBLIC        temp_adc
  D:00BDH         PUBLIC        ADC0L
  I:001BH         PUBLIC        AdcEndId
  C:6BE1H         SYMBOL        PinIdTab
  C:551BH         SYMBOL        _AdcFilter
  D:00BDH         PUBLIC        ADC0
  C:6BEEH         SYMBOL        PinMuxTab
  -------         PROC          ADC_INIT
  C:6F08H         LINE#         45
  C:6F08H         LINE#         46
  C:6F08H         LINE#         47
  C:6F0BH         LINE#         48
  C:6F0EH         LINE#         49
  C:6F11H         LINE#         50
  -------         ENDPROC       ADC_INIT
  -------         PROC          ADC_ENABLE
  C:0026H         LINE#         53
  C:0026H         LINE#         54
  C:0026H         LINE#         55
  C:0029H         LINE#         56
BL51 BANKED LINKER/LOCATER V6.22                                                      08/24/2017  22:40:46  PAGE 25


  -------         ENDPROC       ADC_ENABLE
  -------         PROC          ADC_GETXVAL
  C:7011H         LINE#         64
  C:7011H         LINE#         65
  C:7011H         LINE#         66
  C:7019H         LINE#         67
  -------         ENDPROC       ADC_GETXVAL
  -------         PROC          ADC_GETYVAL
  C:701AH         LINE#         75
  C:701AH         LINE#         76
  C:701AH         LINE#         77
  C:7022H         LINE#         78
  -------         ENDPROC       ADC_GETYVAL
  -------         PROC          ADC_GETTEMP
  C:7023H         LINE#         86
  C:7023H         LINE#         87
  C:7023H         LINE#         88
  C:702BH         LINE#         89
  -------         ENDPROC       ADC_GETTEMP
  -------         PROC          ADC_SETINIT
  -------         DO            
  D:0007H         SYMBOL        SfrPage_
  -------         ENDDO         
  C:68DBH         LINE#         110
  C:68DBH         LINE#         111
  C:68DDH         LINE#         114
  C:68E0H         LINE#         115
  C:68E3H         LINE#         116
  C:68E6H         LINE#         117
  C:68E9H         LINE#         118
  C:68ECH         LINE#         119
  C:68EFH         LINE#         120
  C:68F2H         LINE#         121
  C:68F5H         LINE#         122
  C:68F8H         LINE#         123
  C:68FBH         LINE#         124
  C:68FEH         LINE#         125
  C:6900H         LINE#         126
  C:6903H         LINE#         127
  C:6906H         LINE#         128
  C:6908H         LINE#         129
  -------         ENDPROC       ADC_SETINIT
  -------         PROC          ADC_VREFINIT
  C:7173H         LINE#         131
  C:7173H         LINE#         132
  C:7173H         LINE#         133
  C:7176H         LINE#         134
  -------         ENDPROC       ADC_VREFINIT
  -------         PROC          ADC_ISRINIT
  C:7177H         LINE#         136
  C:7177H         LINE#         137
  C:7177H         LINE#         138
  C:717AH         LINE#         139
  -------         ENDPROC       ADC_ISRINIT
  -------         PROC          _ADCFILTER
  D:0057H         SYMBOL        p_adc
  D:005AH         SYMBOL        val
BL51 BANKED LINKER/LOCATER V6.22                                                      08/24/2017  22:40:46  PAGE 26


  C:551BH         LINE#         148
  C:5525H         LINE#         149
  C:5525H         LINE#         150
  C:553AH         LINE#         151
  C:553AH         LINE#         153
  C:5589H         LINE#         154
  C:5589H         LINE#         156
  C:5589H         LINE#         157
  C:5598H         LINE#         158
  C:559FH         LINE#         159
  C:559FH         LINE#         160
  -------         ENDPROC       _ADCFILTER
  -------         PROC          ADCENTITYINIT
  C:63C3H         LINE#         218
  C:63C3H         LINE#         219
  C:63C3H         LINE#         221
  C:63C8H         LINE#         222
  C:63CAH         LINE#         223
  C:63CCH         LINE#         224
  C:63D2H         LINE#         226
  C:63DCH         LINE#         228
  C:63E2H         LINE#         229
  C:63E5H         LINE#         230
  C:63E7H         LINE#         231
  C:63EDH         LINE#         233
  C:63F5H         LINE#         235
  C:63FBH         LINE#         236
  C:63FEH         LINE#         237
  C:6400H         LINE#         238
  C:6406H         LINE#         240
  -------         ENDPROC       ADCENTITYINIT
  -------         PROC          _ADC_SAVEANDSWITCH
  D:0004H         SYMBOL        val
  -------         DO            
  D:0054H         SYMBOL        adc_ent
  -------         ENDDO         
  C:5C74H         LINE#         264
  C:5C78H         LINE#         265
  C:5C78H         LINE#         267
  C:5C81H         LINE#         271
  C:5C89H         LINE#         272
  C:5C89H         LINE#         273
  C:5C9DH         LINE#         274
  C:5C9DH         LINE#         275
  C:5CA9H         LINE#         276
  C:5CABH         LINE#         277
  C:5CB3H         LINE#         279
  C:5CBCH         LINE#         281
  C:5CC6H         LINE#         282
  C:5CC9H         LINE#         284
  C:5CCFH         LINE#         285
  C:5CD8H         LINE#         286
  C:5CDBH         LINE#         287
  -------         ENDPROC       _ADC_SAVEANDSWITCH
  -------         PROC          ADC_ISR
  -------         DO            
  X:0852H         SYMBOL        sum
BL51 BANKED LINKER/LOCATER V6.22                                                      08/24/2017  22:40:46  PAGE 27


  X:0856H         SYMBOL        cnt
  -------         ENDDO         
  C:52F7H         LINE#         295
  C:5314H         LINE#         300
  C:5316H         LINE#         301
  C:532CH         LINE#         302
  C:533FH         LINE#         303
  C:533FH         LINE#         304
  C:5351H         LINE#         305
  C:535BH         LINE#         306
  C:5362H         LINE#         307
  C:5364H         LINE#         309
  C:5367H         LINE#         310
  -------         ENDPROC       ADC_ISR
  -------         ENDMOD        ADCDRV

  -------         MODULE        ANGAPP
  C:0000H         SYMBOL        _ICE_DUMMY_
  C:7131H         PUBLIC        _SetAngYUsrZero
  C:6293H         PUBLIC        GetXAngAllSetVal
  C:62DFH         PUBLIC        GetYAngAllSetVal
  D:00A0H         PUBLIC        P2
  C:711FH         PUBLIC        _SetAngXSysZero
  C:7125H         PUBLIC        _SetAngYSysZero
  C:6909H         PUBLIC        GetAngP
  X:0BEBH         SYMBOL        angp
  C:5729H         PUBLIC        AngInit
  X:0BEFH         SYMBOL        angx_usrzero
  X:0BF3H         SYMBOL        angy_usrzero
  C:70CBH         PUBLIC        GetAngXInst
  C:70D2H         PUBLIC        GetAngYInst
  X:0BF7H         SYMBOL        angx_syszero
  X:0BFBH         SYMBOL        angy_syszero
  C:70E7H         PUBLIC        GetAngPSet
  C:7137H         PUBLIC        _SetAngXInst
  C:713DH         PUBLIC        _SetAngYInst
  C:70D9H         PUBLIC        GetAngXSet
  C:70E0H         PUBLIC        GetAngYSet
  X:0BFFH         SYMBOL        angx_inst
  X:0C03H         SYMBOL        angy_inst
  X:0C07H         SYMBOL        angp_set
  C:49C6H         SYMBOL        _PAngCalc
  X:0C0BH         SYMBOL        angx_set
  X:0C0FH         SYMBOL        angy_set
  C:6A28H         PUBLIC        _SetAngZero
  C:70EEH         PUBLIC        GetAngXZeroUsr
  C:70BDH         PUBLIC        GetAngXUsrZero
  C:70F5H         PUBLIC        GetAngYZeroUsr
  C:70C4H         PUBLIC        GetAngYUsrZero
  C:6B33H         PUBLIC        _SetAngZeroAdd
  X:0C13H         SYMBOL        BufZerox_usr
  C:70AFH         PUBLIC        GetAngXSysZero
  X:0C17H         SYMBOL        BufZeroy_usr
  C:70B6H         PUBLIC        GetAngYSysZero
  C:70FCH         PUBLIC        GetAngXRelSys
  C:7103H         PUBLIC        GetAngYRelSys
  X:0C1BH         SYMBOL        BufZerox_sys
BL51 BANKED LINKER/LOCATER V6.22                                                      08/24/2017  22:40:46  PAGE 28


  X:0C1FH         SYMBOL        BufZeroy_sys
  C:712BH         PUBLIC        _SetAngXUsrZero
  -------         PROC          ANGINIT
  C:5729H         LINE#         41
  C:5729H         LINE#         42
  C:5729H         LINE#         43
  C:572CH         LINE#         45
  C:5736H         LINE#         47
  C:5741H         LINE#         48
  C:574CH         LINE#         49
  C:5757H         LINE#         50
  C:5762H         LINE#         51
  C:576DH         LINE#         52
  C:5778H         LINE#         57
  C:5782H         LINE#         58
  C:578CH         LINE#         59
  C:5796H         LINE#         60
  C:57A0H         LINE#         62
  -------         ENDPROC       ANGINIT
  -------         PROC          _PANGCALC
  D:0004H         SYMBOL        angx
  D:003EH         SYMBOL        angy
  -------         DO            
  D:0042H         SYMBOL        x
  D:0004H         SYMBOL        y
  D:0046H         SYMBOL        s
  -------         ENDDO         
  C:49C6H         LINE#         70
  C:49C6H         LINE#         71
  C:49C6H         LINE#         74
  C:49D2H         LINE#         75
  C:49F0H         LINE#         76
  C:49FBH         LINE#         77
  C:4A0EH         LINE#         79
  C:4A1AH         LINE#         80
  C:4A30H         LINE#         81
  C:4A33H         LINE#         82
  C:4A3EH         LINE#         84
  C:4A54H         LINE#         85
  C:4A68H         LINE#         86
  C:4A68H         LINE#         87
  C:4A71H         LINE#         88
  C:4A71H         LINE#         89
  C:4A9AH         LINE#         90
  C:4A9DH         LINE#         91
  -------         ENDPROC       _PANGCALC
  -------         PROC          GETANGP
  C:6909H         LINE#         99
  C:6909H         LINE#         100
  C:6909H         LINE#         102
  C:6930H         LINE#         103
  C:6936H         LINE#         104
  -------         ENDPROC       GETANGP
  -------         PROC          GETANGXSYSZERO
  C:70AFH         LINE#         106
  C:70AFH         LINE#         107
  C:70AFH         LINE#         108
BL51 BANKED LINKER/LOCATER V6.22                                                      08/24/2017  22:40:46  PAGE 29


  C:70B5H         LINE#         109
  -------         ENDPROC       GETANGXSYSZERO
  -------         PROC          GETANGYSYSZERO
  C:70B6H         LINE#         110
  C:70B6H         LINE#         111
  C:70B6H         LINE#         112
  C:70BCH         LINE#         113
  -------         ENDPROC       GETANGYSYSZERO
  -------         PROC          GETANGXUSRZERO
  C:70BDH         LINE#         114
  C:70BDH         LINE#         115
  C:70BDH         LINE#         116
  C:70C3H         LINE#         117
  -------         ENDPROC       GETANGXUSRZERO
  -------         PROC          GETANGYUSRZERO
  C:70C4H         LINE#         118
  C:70C4H         LINE#         119
  C:70C4H         LINE#         120
  C:70CAH         LINE#         121
  -------         ENDPROC       GETANGYUSRZERO
  -------         PROC          GETANGXINST
  C:70CBH         LINE#         123
  C:70CBH         LINE#         124
  C:70CBH         LINE#         125
  C:70D1H         LINE#         126
  -------         ENDPROC       GETANGXINST
  -------         PROC          GETANGYINST
  C:70D2H         LINE#         127
  C:70D2H         LINE#         128
  C:70D2H         LINE#         129
  C:70D8H         LINE#         130
  -------         ENDPROC       GETANGYINST
  -------         PROC          GETANGXSET
  C:70D9H         LINE#         132
  C:70D9H         LINE#         133
  C:70D9H         LINE#         134
  C:70DFH         LINE#         135
  -------         ENDPROC       GETANGXSET
  -------         PROC          GETANGYSET
  C:70E0H         LINE#         136
  C:70E0H         LINE#         137
  C:70E0H         LINE#         138
  C:70E6H         LINE#         139
  -------         ENDPROC       GETANGYSET
  -------         PROC          GETANGPSET
  C:70E7H         LINE#         140
  C:70E7H         LINE#         141
  C:70E7H         LINE#         142
  C:70EDH         LINE#         143
  -------         ENDPROC       GETANGPSET
  -------         PROC          GETANGXZEROUSR
  C:70EEH         LINE#         145
  C:70EEH         LINE#         146
  C:70EEH         LINE#         147
  C:70F4H         LINE#         148
  -------         ENDPROC       GETANGXZEROUSR
  -------         PROC          GETANGYZEROUSR
BL51 BANKED LINKER/LOCATER V6.22                                                      08/24/2017  22:40:46  PAGE 30


  C:70F5H         LINE#         149
  C:70F5H         LINE#         150
  C:70F5H         LINE#         151
  C:70FBH         LINE#         152
  -------         ENDPROC       GETANGYZEROUSR
  -------         PROC          GETANGXRELSYS
  C:70FCH         LINE#         154
  C:70FCH         LINE#         155
  C:70FCH         LINE#         156
  C:7102H         LINE#         157
  -------         ENDPROC       GETANGXRELSYS
  -------         PROC          GETANGYRELSYS
  C:7103H         LINE#         158
  C:7103H         LINE#         159
  C:7103H         LINE#         160
  C:7109H         LINE#         161
  -------         ENDPROC       GETANGYRELSYS
  -------         PROC          _SETANGXSYSZERO
  D:0004H         SYMBOL        zore
  C:711FH         LINE#         170
  C:711FH         LINE#         171
  C:711FH         LINE#         172
  -------         ENDPROC       _SETANGXSYSZERO
  -------         PROC          _SETANGYSYSZERO
  D:0004H         SYMBOL        zore
  C:7125H         LINE#         174
  C:7125H         LINE#         175
  C:7125H         LINE#         176
  -------         ENDPROC       _SETANGYSYSZERO
  -------         PROC          _SETANGXUSRZERO
  D:0004H         SYMBOL        zore
  C:712BH         LINE#         179
  C:712BH         LINE#         180
  C:712BH         LINE#         181
  -------         ENDPROC       _SETANGXUSRZERO
  -------         PROC          _SETANGYUSRZERO
  D:0004H         SYMBOL        zore
  C:7131H         LINE#         183
  C:7131H         LINE#         184
  C:7131H         LINE#         185
  -------         ENDPROC       _SETANGYUSRZERO
  -------         PROC          _SETANGXINST
  D:0004H         SYMBOL        ang_inst
  C:7137H         LINE#         188
  C:7137H         LINE#         189
  C:7137H         LINE#         190
  -------         ENDPROC       _SETANGXINST
  -------         PROC          _SETANGYINST
  D:0004H         SYMBOL        ang_inst
  C:713DH         LINE#         192
  C:713DH         LINE#         193
  C:713DH         LINE#         194
  -------         ENDPROC       _SETANGYINST
  -------         PROC          L?0028
  -------         ENDPROC       L?0028
  -------         PROC          _SETANGZERO
  D:0001H         SYMBOL        angval
BL51 BANKED LINKER/LOCATER V6.22                                                      08/24/2017  22:40:46  PAGE 31


  D:003EH         SYMBOL        setval
  C:6A28H         LINE#         206
  C:6A30H         LINE#         207
  C:6A30H         LINE#         208
  -------         ENDPROC       _SETANGZERO
  -------         PROC          _SETANGZEROADD
  D:0001H         SYMBOL        angval
  D:003EH         SYMBOL        setval
  C:6B33H         LINE#         211
  C:6B3BH         LINE#         212
  C:6B3BH         LINE#         213
  -------         ENDPROC       _SETANGZEROADD
  -------         PROC          GETXANGALLSETVAL
  -------         DO            
  D:003AH         SYMBOL        tmp
  -------         ENDDO         
  C:6293H         LINE#         222
  C:6293H         LINE#         223
  C:6293H         LINE#         225
  C:629EH         LINE#         226
  C:62A8H         LINE#         227
  C:62B6H         LINE#         228
  C:62BFH         LINE#         229
  C:62CDH         LINE#         230
  C:62D6H         LINE#         231
  C:62DEH         LINE#         233
  -------         ENDPROC       GETXANGALLSETVAL
  -------         PROC          GETYANGALLSETVAL
  -------         DO            
  D:003AH         SYMBOL        tmp
  -------         ENDDO         
  C:62DFH         LINE#         241
  C:62DFH         LINE#         242
  C:62DFH         LINE#         244
  C:62EAH         LINE#         245
  C:62F4H         LINE#         246
  C:6302H         LINE#         247
  C:630BH         LINE#         248
  C:6319H         LINE#         249
  C:6322H         LINE#         250
  C:632AH         LINE#         251
  -------         ENDPROC       GETYANGALLSETVAL
  -------         ENDMOD        ANGAPP

  -------         MODULE        CALIBRATION
  C:0000H         SYMBOL        _ICE_DUMMY_
  C:6EA8H         SYMBOL        _Ang_WrAngVal
  C:7097H         PUBLIC        _SetAngCalCnt
  C:708FH         PUBLIC        _SetTempCalCnt
  C:6C74H         SYMBOL        _Temp_WrTempVal
  X:0000H         PUBLIC        Ang_Xcal
  D:00A0H         PUBLIC        P2
  X:0166H         PUBLIC        Ang_Ycal
  X:02CCH         PUBLIC        Temp_Xcal
  X:03A9H         PUBLIC        Temp_Ycal
  C:703EH         PUBLIC        AngXCalcPrm
  C:7047H         PUBLIC        AngYCalcPrm
BL51 BANKED LINKER/LOCATER V6.22                                                      08/24/2017  22:40:46  PAGE 32


  C:702CH         PUBLIC        TempXCalcPrm
  C:7035H         PUBLIC        TempYCalcPrm
  C:356FH         SYMBOL        _Ang_CalcPrm
  C:3DC9H         SYMBOL        _Temp_CalcPrm
  C:413FH         PUBLIC        AngCalDataInit
  C:5F2EH         PUBLIC        TempCalDataInit
  C:7149H         PUBLIC        GetAngXCalCnt
  C:714FH         PUBLIC        GetAngYCalCnt
  C:7143H         PUBLIC        GetTempXCalCnt
  C:6F50H         PUBLIC        _GetAngXCalAdcVal
  C:6F68H         PUBLIC        _GetAngYCalAdcVal
  C:6F44H         PUBLIC        _GetTempXCalAdcVal
  C:6F5CH         PUBLIC        _GetTempYCalAdcVal
  X:0486H         SYMBOL        temp_buf
  C:6FBBH         PUBLIC        _SetAngXCalCnt
  C:6FD1H         PUBLIC        _SetAngYCalCnt
  C:6FB0H         PUBLIC        _SetTempXCalCnt
  C:6FC6H         PUBLIC        _SetTempYCalCnt
  C:6E38H         SYMBOL        _Ang_RdAdcVal
  C:717FH         SYMBOL        _Ang_SetCalCnt
  C:6E16H         SYMBOL        _Temp_RdAdcVal
  C:717BH         SYMBOL        _Temp_SetCalCnt
  C:6D51H         PUBLIC        _SetAngXCalAdcVal
  C:6D7BH         PUBLIC        _SetAngYCalAdcVal
  C:6D3CH         PUBLIC        _SetTempXCalAdcVal
  C:6D66H         PUBLIC        _SetTempYCalAdcVal
  C:6F20H         PUBLIC        _GetAngXCalAngVal
  C:6F38H         PUBLIC        _GetAngYCalAngVal
  C:6F14H         PUBLIC        _GetTempXCalTempVal
  C:6F2CH         PUBLIC        _GetTempYCalTempVal
  C:6E9AH         SYMBOL        _Ang_RdAngVal
  C:6C5DH         SYMBOL        _Temp_RdTempVal
  C:6F74H         PUBLIC        _SetAngXCalAngVal
  C:6F80H         PUBLIC        _SetAngYCalAngVal
  C:6D12H         PUBLIC        _SetTempXCalTempVal
  C:6E49H         SYMBOL        _Ang_WrAdcVal
  C:6D27H         PUBLIC        _SetTempYCalTempVal
  C:6E27H         SYMBOL        _Temp_WrAdcVal
  C:4727H         PUBLIC        CalibInit
  -------         PROC          _TEMP_SETCALCNT
  D:0001H         SYMBOL        p_cal
  D:0005H         SYMBOL        num
  C:717BH         LINE#         32
  C:717BH         LINE#         33
  C:717BH         LINE#         34
  -------         ENDPROC       _TEMP_SETCALCNT
  -------         PROC          _TEMP_RDTEMPVAL
  D:0001H         SYMBOL        p_cal
  D:0005H         SYMBOL        posid
  C:6C5DH         LINE#         44
  C:6C5DH         LINE#         45
  C:6C5DH         LINE#         46
  C:6C73H         LINE#         47
  -------         ENDPROC       _TEMP_RDTEMPVAL
  -------         PROC          _TEMP_RDADCVAL
  D:0001H         SYMBOL        p_cal
  D:0005H         SYMBOL        posid
BL51 BANKED LINKER/LOCATER V6.22                                                      08/24/2017  22:40:46  PAGE 33


  C:6E16H         LINE#         56
  C:6E16H         LINE#         57
  C:6E16H         LINE#         58
  C:6E26H         LINE#         59
  -------         ENDPROC       _TEMP_RDADCVAL
  -------         PROC          _TEMP_WRTEMPVAL
  D:0001H         SYMBOL        p_cal
  D:0004H         SYMBOL        val
  D:002BH         SYMBOL        posid
  C:6C74H         LINE#         68
  C:6C74H         LINE#         69
  C:6C74H         LINE#         70
  -------         ENDPROC       _TEMP_WRTEMPVAL
  -------         PROC          _TEMP_WRADCVAL
  D:0001H         SYMBOL        p_cal
  D:0004H         SYMBOL        val
  D:002BH         SYMBOL        posid
  C:6E27H         LINE#         80
  C:6E27H         LINE#         81
  C:6E27H         LINE#         82
  -------         ENDPROC       _TEMP_WRADCVAL
  -------         PROC          _TEMP_CALCPRM
  D:0031H         SYMBOL        p_cal
  -------         DO            
  D:0034H         SYMBOL        i
  -------         ENDDO         
  C:3DC9H         LINE#         92
  C:3DCFH         LINE#         93
  C:3DCFH         LINE#         95
  C:3DE6H         LINE#         96
  C:3DE6H         LINE#         97
  C:3E75H         LINE#         98
  C:3EEFH         LINE#         99
  C:3EF4H         LINE#         100
  -------         ENDPROC       _TEMP_CALCPRM
  -------         PROC          _ANG_SETCALCNT
  D:0001H         SYMBOL        p_cal
  D:0005H         SYMBOL        num
  C:717FH         LINE#         109
  C:717FH         LINE#         110
  C:717FH         LINE#         111
  -------         ENDPROC       _ANG_SETCALCNT
  -------         PROC          _ANG_RDANGVAL
  D:0001H         SYMBOL        p_cal
  D:0005H         SYMBOL        posid
  C:6E9AH         LINE#         120
  C:6E9AH         LINE#         121
  C:6E9AH         LINE#         122
  C:6EA7H         LINE#         123
  -------         ENDPROC       _ANG_RDANGVAL
  -------         PROC          _ANG_RDADCVAL
  D:0001H         SYMBOL        p_cal
  D:0005H         SYMBOL        posid
  C:6E38H         LINE#         132
  C:6E38H         LINE#         133
  C:6E38H         LINE#         134
  C:6E48H         LINE#         135
BL51 BANKED LINKER/LOCATER V6.22                                                      08/24/2017  22:40:46  PAGE 34


  -------         ENDPROC       _ANG_RDADCVAL
  -------         PROC          _ANG_WRANGVAL
  D:0001H         SYMBOL        p_cal
  D:0004H         SYMBOL        val
  D:0045H         SYMBOL        posid
  C:6EA8H         LINE#         143
  C:6EA8H         LINE#         144
  C:6EA8H         LINE#         145
  -------         ENDPROC       _ANG_WRANGVAL
  -------         PROC          _ANG_WRADCVAL
  D:0001H         SYMBOL        p_cal
  D:0004H         SYMBOL        val
  D:003EH         SYMBOL        posid
  C:6E49H         LINE#         155
  C:6E49H         LINE#         156
  C:6E49H         LINE#         157
  -------         ENDPROC       _ANG_WRADCVAL
  -------         PROC          _ANG_CALCPRM
  D:0023H         SYMBOL        p_cal
  -------         DO            
  D:0026H         SYMBOL        ang0
  D:002AH         SYMBOL        ang1
  D:002EH         SYMBOL        i
  -------         ENDDO         
  C:356FH         LINE#         167
  C:3575H         LINE#         168
  C:3575H         LINE#         173
  C:358CH         LINE#         174
  C:358CH         LINE#         175
  C:35BCH         LINE#         176
  C:35F2H         LINE#         177
  C:3679H         LINE#         178
  C:36E5H         LINE#         179
  C:36EAH         LINE#         180
  -------         ENDPROC       _ANG_CALCPRM
  -------         PROC          GETTEMPXCALCNT
  C:7143H         LINE#         190
  C:7143H         LINE#         191
  C:7143H         LINE#         192
  C:7148H         LINE#         193
  -------         ENDPROC       GETTEMPXCALCNT
  -------         PROC          GETANGXCALCNT
  C:7149H         LINE#         197
  C:7149H         LINE#         198
  C:7149H         LINE#         199
  C:714EH         LINE#         200
  -------         ENDPROC       GETANGXCALCNT
  -------         PROC          GETANGYCALCNT
  C:714FH         LINE#         207
  C:714FH         LINE#         208
  C:714FH         LINE#         209
  C:7154H         LINE#         210
  -------         ENDPROC       GETANGYCALCNT
  -------         PROC          _SETTEMPXCALCNT
  D:0005H         SYMBOL        cnt
  C:6FB0H         LINE#         220
  C:6FB2H         LINE#         221
BL51 BANKED LINKER/LOCATER V6.22                                                      08/24/2017  22:40:46  PAGE 35


  C:6FB2H         LINE#         222
  -------         ENDPROC       _SETTEMPXCALCNT
  -------         PROC          _SETANGXCALCNT
  D:0005H         SYMBOL        cnt
  C:6FBBH         LINE#         225
  C:6FBDH         LINE#         226
  C:6FBDH         LINE#         227
  -------         ENDPROC       _SETANGXCALCNT
  -------         PROC          _SETTEMPYCALCNT
  D:0005H         SYMBOL        cnt
  C:6FC6H         LINE#         230
  C:6FC8H         LINE#         231
  C:6FC8H         LINE#         232
  -------         ENDPROC       _SETTEMPYCALCNT
  -------         PROC          _SETANGYCALCNT
  D:0005H         SYMBOL        cnt
  C:6FD1H         LINE#         235
  C:6FD3H         LINE#         236
  C:6FD3H         LINE#         237
  -------         ENDPROC       _SETANGYCALCNT
  -------         PROC          _SETTEMPCALCNT
  D:0006H         SYMBOL        cnt
  C:708FH         LINE#         240
  C:7091H         LINE#         241
  C:7091H         LINE#         242
  C:7094H         LINE#         243
  -------         ENDPROC       _SETTEMPCALCNT
  -------         PROC          _SETANGCALCNT
  D:0006H         SYMBOL        cnt
  C:7097H         LINE#         246
  C:7099H         LINE#         247
  C:7099H         LINE#         248
  C:709CH         LINE#         249
  -------         ENDPROC       _SETANGCALCNT
  -------         PROC          _GETTEMPXCALTEMPVAL
  D:0005H         SYMBOL        pos
  C:6F14H         LINE#         261
  C:6F16H         LINE#         262
  C:6F16H         LINE#         263
  C:6F1FH         LINE#         264
  -------         ENDPROC       _GETTEMPXCALTEMPVAL
  -------         PROC          _GETANGXCALANGVAL
  D:0005H         SYMBOL        pos
  C:6F20H         LINE#         271
  C:6F22H         LINE#         272
  C:6F22H         LINE#         273
  C:6F2BH         LINE#         274
  -------         ENDPROC       _GETANGXCALANGVAL
  -------         PROC          _GETTEMPYCALTEMPVAL
  D:0005H         SYMBOL        pos
  C:6F2CH         LINE#         282
  C:6F2EH         LINE#         283
  C:6F2EH         LINE#         284
  C:6F37H         LINE#         285
  -------         ENDPROC       _GETTEMPYCALTEMPVAL
  -------         PROC          _GETANGYCALANGVAL
  D:0005H         SYMBOL        pos
BL51 BANKED LINKER/LOCATER V6.22                                                      08/24/2017  22:40:46  PAGE 36


  C:6F38H         LINE#         292
  C:6F3AH         LINE#         293
  C:6F3AH         LINE#         294
  C:6F43H         LINE#         295
  -------         ENDPROC       _GETANGYCALANGVAL
  -------         PROC          _GETTEMPXCALADCVAL
  D:0005H         SYMBOL        pos
  C:6F44H         LINE#         303
  C:6F46H         LINE#         304
  C:6F46H         LINE#         305
  C:6F4FH         LINE#         306
  -------         ENDPROC       _GETTEMPXCALADCVAL
  -------         PROC          _GETANGXCALADCVAL
  D:0005H         SYMBOL        pos
  C:6F50H         LINE#         313
  C:6F52H         LINE#         314
  C:6F52H         LINE#         315
  C:6F5BH         LINE#         316
  -------         ENDPROC       _GETANGXCALADCVAL
  -------         PROC          _GETTEMPYCALADCVAL
  D:0005H         SYMBOL        pos
  C:6F5CH         LINE#         323
  C:6F5EH         LINE#         324
  C:6F5EH         LINE#         325
  C:6F67H         LINE#         326
  -------         ENDPROC       _GETTEMPYCALADCVAL
  -------         PROC          _GETANGYCALADCVAL
  D:0005H         SYMBOL        pos
  C:6F68H         LINE#         333
  C:6F6AH         LINE#         334
  C:6F6AH         LINE#         335
  C:6F73H         LINE#         336
  -------         ENDPROC       _GETANGYCALADCVAL
  -------         PROC          _SETTEMPXCALTEMPVAL
  D:0082H         SYMBOL        val
  D:0007H         SYMBOL        pos
  C:6D12H         LINE#         348
  C:6D18H         LINE#         349
  C:6D18H         LINE#         350
  -------         ENDPROC       _SETTEMPXCALTEMPVAL
  -------         PROC          _SETANGXCALANGVAL
  D:0004H         SYMBOL        val
  D:003DH         SYMBOL        pos
  C:6F74H         LINE#         358
  C:6F74H         LINE#         359
  C:6F74H         LINE#         360
  -------         ENDPROC       _SETANGXCALANGVAL
  -------         PROC          _SETTEMPYCALTEMPVAL
  D:0082H         SYMBOL        val
  D:0007H         SYMBOL        pos
  C:6D27H         LINE#         368
  C:6D2DH         LINE#         369
  C:6D2DH         LINE#         370
  -------         ENDPROC       _SETTEMPYCALTEMPVAL
  -------         PROC          _SETANGYCALANGVAL
  D:0004H         SYMBOL        val
  D:003DH         SYMBOL        pos
BL51 BANKED LINKER/LOCATER V6.22                                                      08/24/2017  22:40:46  PAGE 37


  C:6F80H         LINE#         378
  C:6F80H         LINE#         379
  C:6F80H         LINE#         380
  -------         ENDPROC       _SETANGYCALANGVAL
  -------         PROC          _SETTEMPXCALADCVAL
  D:0082H         SYMBOL        val
  D:0007H         SYMBOL        pos
  C:6D3CH         LINE#         389
  C:6D42H         LINE#         390
  C:6D42H         LINE#         391
  -------         ENDPROC       _SETTEMPXCALADCVAL
  -------         PROC          _SETANGXCALADCVAL
  D:0082H         SYMBOL        val
  D:0007H         SYMBOL        pos
  C:6D51H         LINE#         400
  C:6D57H         LINE#         401
  C:6D57H         LINE#         402
  -------         ENDPROC       _SETANGXCALADCVAL
  -------         PROC          _SETTEMPYCALADCVAL
  D:0082H         SYMBOL        val
  D:0007H         SYMBOL        pos
  C:6D66H         LINE#         410
  C:6D6CH         LINE#         411
  C:6D6CH         LINE#         412
  -------         ENDPROC       _SETTEMPYCALADCVAL
  -------         PROC          _SETANGYCALADCVAL
  D:0082H         SYMBOL        val
  D:0007H         SYMBOL        pos
  C:6D7BH         LINE#         420
  C:6D81H         LINE#         421
  C:6D81H         LINE#         422
  -------         ENDPROC       _SETANGYCALADCVAL
  -------         PROC          TEMPXCALCPRM
  C:702CH         LINE#         429
  C:702CH         LINE#         430
  C:702CH         LINE#         431
  -------         ENDPROC       TEMPXCALCPRM
  -------         PROC          TEMPYCALCPRM
  C:7035H         LINE#         436
  C:7035H         LINE#         437
  C:7035H         LINE#         438
  -------         ENDPROC       TEMPYCALCPRM
  -------         PROC          ANGXCALCPRM
  C:703EH         LINE#         445
  C:703EH         LINE#         446
  C:703EH         LINE#         447
  -------         ENDPROC       ANGXCALCPRM
  -------         PROC          ANGYCALCPRM
  C:7047H         LINE#         453
  C:7047H         LINE#         454
  C:7047H         LINE#         455
  -------         ENDPROC       ANGYCALCPRM
  -------         PROC          TEMPCALDATAINIT
  -------         DO            
  D:0022H         SYMBOL        i
  -------         ENDDO         
  C:5F2EH         LINE#         472
BL51 BANKED LINKER/LOCATER V6.22                                                      08/24/2017  22:40:46  PAGE 38


  C:5F2EH         LINE#         473
  C:5F2EH         LINE#         475
  C:5F33H         LINE#         476
  C:5F36H         LINE#         477
  C:5F36H         LINE#         478
  C:5F60H         LINE#         479
  C:5F71H         LINE#         480
  C:5F82H         LINE#         481
  C:5F89H         LINE#         482
  -------         ENDPROC       TEMPCALDATAINIT
  -------         PROC          ANGCALDATAINIT
  -------         DO            
  D:0003H         SYMBOL        i
  -------         ENDDO         
  C:413FH         LINE#         491
  C:413FH         LINE#         492
  C:413FH         LINE#         494
  C:4144H         LINE#         495
  C:4146H         LINE#         496
  C:4146H         LINE#         497
  C:4165H         LINE#         498
  C:4187H         LINE#         500
  C:41A6H         LINE#         501
  C:41C8H         LINE#         502
  C:41D1H         LINE#         504
  C:41DBH         LINE#         505
  C:41E5H         LINE#         506
  C:41EFH         LINE#         507
  C:41F9H         LINE#         508
  C:4203H         LINE#         509
  C:420DH         LINE#         511
  C:4217H         LINE#         512
  C:4221H         LINE#         513
  C:422BH         LINE#         514
  C:4235H         LINE#         515
  C:423FH         LINE#         516
  C:4249H         LINE#         518
  -------         ENDPROC       ANGCALDATAINIT
  -------         PROC          CALIBINIT
  C:4727H         LINE#         528
  C:4727H         LINE#         529
  C:4727H         LINE#         530
  C:4733H         LINE#         531
  C:473FH         LINE#         532
  C:4749H         LINE#         533
  C:4753H         LINE#         534
  C:475DH         LINE#         535
  C:4767H         LINE#         538
  C:4773H         LINE#         539
  C:477FH         LINE#         540
  C:4789H         LINE#         541
  C:4793H         LINE#         542
  C:479DH         LINE#         543
  C:47A7H         LINE#         546
  C:47B1H         LINE#         547
  C:47BBH         LINE#         548
  C:47C5H         LINE#         549
BL51 BANKED LINKER/LOCATER V6.22                                                      08/24/2017  22:40:46  PAGE 39


  C:47CFH         LINE#         550
  C:47D9H         LINE#         553
  C:47E3H         LINE#         554
  C:47EDH         LINE#         555
  C:47F7H         LINE#         556
  C:4801H         LINE#         557
  -------         ENDPROC       CALIBINIT
  -------         ENDMOD        CALIBRATION

  -------         MODULE        CMDSUB
  C:0000H         SYMBOL        _ICE_DUMMY_
  C:59E8H         PUBLIC        TempSortAndCalcPrm
  D:0012H         PUBLIC        px_axis
  D:0014H         PUBLIC        py_axis
  D:00A0H         PUBLIC        P2
  X:0C23H         SYMBOL        temp_xcalref
  X:0C25H         SYMBOL        temp_ycalref
  C:5D43H         PUBLIC        _Temp_CalSamp
  C:463FH         PUBLIC        _Temp_CalTRefSet
  X:0C27H         PUBLIC        SendSpeedNum
  C:6CD0H         PUBLIC        Temp_CalStop
  C:6DCEH         PUBLIC        Temp_CalSta
  X:0C28H         PUBLIC        SystemVer
  X:0C38H         PUBLIC        SendActPosi
  X:0C39H         PUBLIC        ACalXId
  X:0C3AH         PUBLIC        ACalYId
  C:5818H         PUBLIC        _Temp_CalValWr
  C:540DH         PUBLIC        Adc_XCalStop
  C:5494H         PUBLIC        Adc_YCalStop
  -------         PROC          TEMPSORTANDCALCPRM
  C:59E8H         LINE#         81
  C:59E8H         LINE#         82
  C:59E8H         LINE#         84
  C:5A52H         LINE#         86
  C:5A55H         LINE#         87
  -------         ENDPROC       TEMPSORTANDCALCPRM
  -------         PROC          _TEMP_CALVALWR
  D:0033H         SYMBOL        id
  D:0004H         SYMBOL        temp
  D:0036H         SYMBOL        x
  D:0038H         SYMBOL        y
  C:5818H         LINE#         97
  C:581EH         LINE#         98
  C:581EH         LINE#         99
  C:5828H         LINE#         100
  C:5849H         LINE#         102
  C:586AH         LINE#         103
  C:588BH         LINE#         104
  C:588DH         LINE#         105
  -------         ENDPROC       _TEMP_CALVALWR
  -------         PROC          TEMP_CALSTA
  C:6DCEH         LINE#         113
  C:6DCEH         LINE#         114
  C:6DCEH         LINE#         115
  C:6DD7H         LINE#         116
  C:6DDDH         LINE#         117
  C:6DDFH         LINE#         118
BL51 BANKED LINKER/LOCATER V6.22                                                      08/24/2017  22:40:46  PAGE 40


  -------         ENDPROC       TEMP_CALSTA
  -------         PROC          TEMP_CALSTOP
  C:6CD0H         LINE#         126
  C:6CD0H         LINE#         127
  C:6CD0H         LINE#         128
  C:6CDBH         LINE#         129
  C:6CE0H         LINE#         130
  C:6CE3H         LINE#         131
  C:6CE5H         LINE#         132
  -------         ENDPROC       TEMP_CALSTOP
  -------         PROC          _TEMP_CALSAMP
  D:0007H         SYMBOL        id
  D:002DH         SYMBOL        temp
  D:002FH         SYMBOL        x
  D:0031H         SYMBOL        y
  C:5D43H         LINE#         134
  C:5D4BH         LINE#         135
  C:5D4BH         LINE#         136
  C:5D53H         LINE#         137
  C:5D56H         LINE#         139
  C:5D59H         LINE#         140
  C:5D59H         LINE#         141
  C:5D63H         LINE#         142
  C:5D6BH         LINE#         143
  C:5D6BH         LINE#         144
  C:5D95H         LINE#         145
  C:5D97H         LINE#         147
  C:5DA6H         LINE#         148
  C:5DA8H         LINE#         149
  -------         ENDPROC       _TEMP_CALSAMP
  -------         PROC          _TEMP_CALTREFSET
  D:002CH         SYMBOL        id
  -------         DO            
  D:0007H         SYMBOL        i
  D:002DH         SYMBOL        x
  D:002FH         SYMBOL        y
  -------         ENDDO         
  C:463FH         LINE#         157
  C:4641H         LINE#         158
  C:4641H         LINE#         162
  C:465DH         LINE#         163
  C:467EH         LINE#         164
  C:469FH         LINE#         166
  C:46B8H         LINE#         167
  C:46B8H         LINE#         168
  C:46E8H         LINE#         169
  C:4718H         LINE#         170
  C:471BH         LINE#         171
  C:4721H         LINE#         172
  C:4724H         LINE#         173
  C:4726H         LINE#         174
  -------         ENDPROC       _TEMP_CALTREFSET
  -------         PROC          ADC_XCALSTOP
  -------         DO            
  D:0022H         SYMBOL        n
  -------         ENDDO         
  C:540DH         LINE#         221
BL51 BANKED LINKER/LOCATER V6.22                                                      08/24/2017  22:40:46  PAGE 41


  C:540DH         LINE#         222
  C:540DH         LINE#         223
  C:5422H         LINE#         225
  C:542DH         LINE#         226
  C:5438H         LINE#         227
  C:543DH         LINE#         228
  C:548EH         LINE#         230
  C:5491H         LINE#         231
  C:5493H         LINE#         232
  -------         ENDPROC       ADC_XCALSTOP
  -------         PROC          ADC_YCALSTOP
  -------         DO            
  D:0022H         SYMBOL        n
  -------         ENDDO         
  C:5494H         LINE#         269
  C:5494H         LINE#         270
  C:5494H         LINE#         271
  C:54A9H         LINE#         273
  C:54B4H         LINE#         274
  C:54BFH         LINE#         275
  C:54C4H         LINE#         276
  C:5515H         LINE#         278
  C:5518H         LINE#         279
  C:551AH         LINE#         280
  -------         ENDPROC       ADC_YCALSTOP
  -------         ENDMOD        CMDSUB

  -------         MODULE        COMM
  C:0000H         SYMBOL        _ICE_DUMMY_
  D:0090H         PUBLIC        P1
  D:00A0H         PUBLIC        P2
  B:00A8H.7       PUBLIC        EA
  C:002EH         PUBLIC        Comm_TimerProc
  C:6FFDH         PUBLIC        Comm_TimerInit
  D:00A7H         PUBLIC        SFRPAGE
  C:4F7EH         PUBLIC        _Comm_GetChar
  X:06B0H         SYMBOL        CommTimer
  D:00B8H         PUBLIC        IP
  C:5976H         PUBLIC        Comm_Isr
  C:7183H         PUBLIC        Comm_SendStop
  C:7155H         PUBLIC        Comm_SendSta
  D:00ABH         PUBLIC        SBCON0
  B:0098H.7       PUBLIC        OVR0
  C:526BH         PUBLIC        _Comm_PutChar
  X:06B2H         PUBLIC        CommBuf
  C:6B51H         PUBLIC        Comm_HardwareInit
  B:00A8H.4       PUBLIC        ES0
  B:0098H.0       PUBLIC        RI0
  B:0098H.1       PUBLIC        TI0
  B:0020H.0       PUBLIC        CommRxFlag
  C:50C3H         PUBLIC        Comm_SoftwareInit
  B:0020H.1       PUBLIC        CommTxFlag
  C:4ED9H         PUBLIC        _Comm_GetTxChar
  D:0099H         PUBLIC        SBUF0
  C:6AB0H         PUBLIC        _Comm_PutStr
  D:00ACH         PUBLIC        SBRL0
  D:0098H         PUBLIC        SCON0
BL51 BANKED LINKER/LOCATER V6.22                                                      08/24/2017  22:40:46  PAGE 42


  C:5625H         PUBLIC        _Comm_PutRxChar
  -------         PROC          COMM_ISR
  -------         DO            
  D:006EH         SYMBOL        temp
  D:006FH         SYMBOL        err
  -------         ENDDO         
  C:5976H         LINE#         29
  C:5993H         LINE#         34
  C:5996H         LINE#         35
  C:5998H         LINE#         36
  C:59A3H         LINE#         37
  C:59A9H         LINE#         38
  C:59ACH         LINE#         40
  C:59AEH         LINE#         41
  C:59B0H         LINE#         43
  C:59B3H         LINE#         44
  C:59B5H         LINE#         45
  C:59B5H         LINE#         46
  C:59B5H         LINE#         48
  C:59B8H         LINE#         49
  C:59BAH         LINE#         50
  C:59BDH         LINE#         52
  C:59C0H         LINE#         54
  C:59C0H         LINE#         55
  C:59C5H         LINE#         56
  C:59C8H         LINE#         58
  C:59C8H         LINE#         59
  C:59C8H         LINE#         61
  C:59CBH         LINE#         62
  C:59CDH         LINE#         63
  C:59CDH         LINE#         64
  -------         ENDPROC       COMM_ISR
  -------         PROC          COMM_HARDWAREINIT
  -------         DO            
  D:0007H         SYMBOL        SfrPage_
  -------         ENDDO         
  C:6B51H         LINE#         66
  C:6B51H         LINE#         67
  C:6B53H         LINE#         70
  C:6B56H         LINE#         71
  C:6B59H         LINE#         75
  C:6B5FH         LINE#         76
  C:6B62H         LINE#         90
  C:6B65H         LINE#         91
  C:6B67H         LINE#         93
  C:6B6AH         LINE#         94
  C:6B6CH         LINE#         95
  C:6B6EH         LINE#         96
  -------         ENDPROC       COMM_HARDWAREINIT
  -------         PROC          COMM_SOFTWAREINIT
  -------         DO            
  D:0021H         SYMBOL        p_buf
  -------         ENDDO         
  C:50C3H         LINE#         98
  C:50C3H         LINE#         99
  C:50C3H         LINE#         100
  C:50CCH         LINE#         102
BL51 BANKED LINKER/LOCATER V6.22                                                      08/24/2017  22:40:46  PAGE 43


  C:50D8H         LINE#         103
  C:50F3H         LINE#         104
  C:510EH         LINE#         105
  C:511DH         LINE#         106
  C:5136H         LINE#         107
  C:5151H         LINE#         108
  -------         ENDPROC       COMM_SOFTWAREINIT
  -------         PROC          COMM_SENDSTA
  C:7155H         LINE#         129
  C:7155H         LINE#         130
  C:7155H         LINE#         131
  C:7158H         LINE#         132
  C:715AH         LINE#         133
  -------         ENDPROC       COMM_SENDSTA
  -------         PROC          COMM_SENDSTOP
  C:7183H         LINE#         135
  C:7183H         LINE#         136
  C:7183H         LINE#         137
  C:7186H         LINE#         138
  -------         ENDPROC       COMM_SENDSTOP
  -------         PROC          _COMM_GETTXCHAR
  D:0070H         SYMBOL        err
  -------         DO            
  D:0073H         SYMBOL        p_buf
  D:0007H         SYMBOL        c
  -------         ENDDO         
  C:4ED9H         LINE#         147
  C:4EDFH         LINE#         148
  C:4EEBH         LINE#         151
  C:4EEDH         LINE#         152
  C:4EFCH         LINE#         153
  C:4F0CH         LINE#         154
  C:4F1AH         LINE#         155
  C:4F46H         LINE#         156
  C:4F61H         LINE#         157
  C:4F61H         LINE#         158
  C:4F6BH         LINE#         159
  C:4F6DH         LINE#         160
  C:4F6EH         LINE#         161
  C:4F6EH         LINE#         163
  C:4F79H         LINE#         164
  C:4F7BH         LINE#         165
  C:4F7DH         LINE#         166
  C:4F7DH         LINE#         167
  -------         ENDPROC       _COMM_GETTXCHAR
  -------         PROC          _COMM_PUTCHAR
  D:0007H         SYMBOL        c
  -------         DO            
  D:003CH         SYMBOL        p_buf
  -------         ENDDO         
  C:526BH         LINE#         176
  C:526BH         LINE#         177
  C:5277H         LINE#         179
  C:5279H         LINE#         180
  C:5288H         LINE#         181
  C:5298H         LINE#         182
  C:52A6H         LINE#         183
BL51 BANKED LINKER/LOCATER V6.22                                                      08/24/2017  22:40:46  PAGE 44


  C:52D2H         LINE#         184
  C:52EDH         LINE#         185
  C:52EDH         LINE#         186
  C:52EFH         LINE#         187
  C:52F2H         LINE#         188
  C:52F2H         LINE#         190
  C:52F4H         LINE#         191
  C:52F6H         LINE#         192
  C:52F6H         LINE#         193
  -------         ENDPROC       _COMM_PUTCHAR
  -------         PROC          _COMM_PUTRXCHAR
  D:0007H         SYMBOL        c
  -------         DO            
  D:0070H         SYMBOL        p_buf
  -------         ENDDO         
  C:5625H         LINE#         206
  C:5625H         LINE#         207
  C:5631H         LINE#         209
  C:5633H         LINE#         210
  C:563FH         LINE#         211
  C:564CH         LINE#         212
  C:5660H         LINE#         213
  C:568BH         LINE#         214
  C:56A6H         LINE#         215
  C:56A6H         LINE#         216
  C:56A6H         LINE#         217
  C:56A8H         LINE#         218
  -------         ENDPROC       _COMM_PUTRXCHAR
  -------         PROC          _COMM_GETCHAR
  D:0021H         SYMBOL        err
  -------         DO            
  D:0024H         SYMBOL        p_buf
  D:0007H         SYMBOL        c
  -------         ENDDO         
  C:4F7EH         LINE#         226
  C:4F84H         LINE#         227
  C:4F90H         LINE#         230
  C:4F92H         LINE#         231
  C:4F9EH         LINE#         232
  C:4FABH         LINE#         233
  C:4FBFH         LINE#         234
  C:4FEAH         LINE#         235
  C:5005H         LINE#         236
  C:5005H         LINE#         237
  C:500FH         LINE#         238
  C:5011H         LINE#         239
  C:5012H         LINE#         240
  C:5012H         LINE#         242
  C:501DH         LINE#         243
  C:501FH         LINE#         244
  C:5021H         LINE#         245
  C:5021H         LINE#         246
  -------         ENDPROC       _COMM_GETCHAR
  -------         PROC          _COMM_PUTSTR
  D:0039H         SYMBOL        ptr
  D:0005H         SYMBOL        n
  -------         DO            
BL51 BANKED LINKER/LOCATER V6.22                                                      08/24/2017  22:40:46  PAGE 45


  D:0006H         SYMBOL        i
  -------         ENDDO         
  C:6AB0H         LINE#         249
  C:6AB6H         LINE#         250
  C:6AB6H         LINE#         252
  C:6ABDH         LINE#         253
  C:6ACDH         LINE#         254
  C:6AD0H         LINE#         255
  -------         ENDPROC       _COMM_PUTSTR
  -------         PROC          COMM_TIMERINIT
  C:6FFDH         LINE#         263
  C:6FFDH         LINE#         264
  C:6FFDH         LINE#         265
  C:7006H         LINE#         266
  -------         ENDPROC       COMM_TIMERINIT
  -------         PROC          COMM_TIMERPROC
  C:002EH         LINE#         268
  C:002EH         LINE#         269
  C:002EH         LINE#         270
  C:003DH         LINE#         271
  C:003DH         LINE#         272
  C:0048H         LINE#         273
  C:004AH         LINE#         274
  C:004AH         LINE#         275
  -------         ENDPROC       COMM_TIMERPROC
  -------         ENDMOD        COMM

  -------         MODULE        DELAY
  C:0000H         SYMBOL        _ICE_DUMMY_
  D:00A0H         PUBLIC        P2
  C:7007H         PUBLIC        delay_ms_
  C:6C8BH         PUBLIC        _delay_ms
  C:6E7CH         PUBLIC        delay_100us
  -------         PROC          DELAY_100US
  -------         DO            
  D:0006H         SYMBOL        i
  -------         ENDDO         
  C:6E7CH         LINE#         25
  C:6E7CH         LINE#         26
  C:6E7CH         LINE#         29
  C:6E8AH         LINE#         30
  -------         ENDPROC       DELAY_100US
  -------         PROC          DELAY_MS_
  -------         DO            
  D:0005H         SYMBOL        i
  -------         ENDDO         
  C:7007H         LINE#         32
  C:7007H         LINE#         33
  C:7007H         LINE#         36
  C:7009H         LINE#         37
  C:700CH         LINE#         38
  C:7010H         LINE#         39
  -------         ENDPROC       DELAY_MS_
  -------         PROC          _DELAY_MS
  D:0002H         SYMBOL        n
  -------         DO            
  D:0082H         SYMBOL        i
BL51 BANKED LINKER/LOCATER V6.22                                                      08/24/2017  22:40:46  PAGE 46


  -------         ENDDO         
  C:6C8BH         LINE#         41
  C:6C8FH         LINE#         42
  C:6C8FH         LINE#         45
  C:6C9BH         LINE#         46
  C:6C9EH         LINE#         47
  C:6CA1H         LINE#         48
  -------         ENDPROC       _DELAY_MS
  -------         ENDMOD        DELAY

  -------         MODULE        FILTER
  C:0000H         SYMBOL        _ICE_DUMMY_
  C:48EBH         PUBLIC        _SlideWinFilter
  C:6A47H         PUBLIC        _ValInRange
  C:5ED1H         PUBLIC        _Filter_1st
  -------         PROC          _VALINRANGE
  D:0006H         SYMBOL        old_val
  D:0004H         SYMBOL        new_val
  D:0002H         SYMBOL        range
  C:6A47H         LINE#         26
  C:6A47H         LINE#         27
  C:6A47H         LINE#         28
  C:6A65H         LINE#         29
  C:6A68H         LINE#         31
  C:6A6AH         LINE#         32
  -------         ENDPROC       _VALINRANGE
  -------         PROC          _SLIDEWINFILTER
  D:005CH         SYMBOL        pbufpos
  D:005FH         SYMBOL        pbufcnt
  D:0062H         SYMBOL        pbuf
  D:0065H         SYMBOL        val
  D:0067H         SYMBOL        ftcnt
  -------         DO            
  D:0069H         SYMBOL        data_ram
  D:006DH         SYMBOL        i
  -------         ENDDO         
  C:48EBH         LINE#         41
  C:48F1H         LINE#         42
  C:48F1H         LINE#         43
  C:48FAH         LINE#         45
  C:4908H         LINE#         46
  C:4908H         LINE#         47
  C:490CH         LINE#         48
  C:490CH         LINE#         50
  C:4938H         LINE#         51
  C:4943H         LINE#         54
  C:4954H         LINE#         55
  C:4954H         LINE#         56
  C:4959H         LINE#         57
  C:495EH         LINE#         58
  C:495EH         LINE#         60
  C:495EH         LINE#         61
  C:496BH         LINE#         62
  C:496BH         LINE#         63
  C:499BH         LINE#         64
  C:499FH         LINE#         65
  C:49C5H         LINE#         66
BL51 BANKED LINKER/LOCATER V6.22                                                      08/24/2017  22:40:46  PAGE 47


  C:49C5H         LINE#         67
  C:49C5H         LINE#         68
  -------         ENDPROC       _SLIDEWINFILTER
  -------         PROC          _FILTER_1ST
  D:0027H         SYMBOL        old_val
  D:002BH         SYMBOL        new_val
  D:002DH         SYMBOL        filtercnt
  C:5ED1H         LINE#         77
  C:5ED9H         LINE#         78
  C:5ED9H         LINE#         79
  C:5F2DH         LINE#         80
  -------         ENDPROC       _FILTER_1ST
  -------         ENDMOD        FILTER

  -------         MODULE        FLASH
  C:0000H         SYMBOL        _ICE_DUMMY_
  D:00A0H         PUBLIC        P2
  B:00A8H.7       PUBLIC        EA
  D:008FH         PUBLIC        PSCTL
  C:6EB6H         SYMBOL        FlashChk
  D:00A7H         PUBLIC        SFRPAGE
  C:60FFH         SYMBOL        _Flash_BufRd
  C:7050H         SYMBOL        Ram_CalDataInit
  C:687DH         SYMBOL        Ram_CalDataInit_User
  D:00FFH         PUBLIC        VDM0CN
  X:04B0H         PUBLIC        DispBuf
  C:5DA9H         SYMBOL        _Flash_BufWr
  C:6961H         SYMBOL        _Flash_PageErase
  C:6524H         PUBLIC        Flash_CalDataUpdate
  C:6256H         SYMBOL        _Flash_CalDataUpdate_User
  C:6C2DH         PUBLIC        Flash_UserDataUpdate
  C:684BH         SYMBOL        _FlashUpdate
  C:2D58H         SYMBOL        _Ram_Buf2CalData
  C:29E1H         SYMBOL        _Ram_CalData2Buf
  D:00EFH         PUBLIC        RSTSRC
  D:00ACH         PUBLIC        SBRL0
  C:6717H         SYMBOL        _Flash_CheckSum
  C:6146H         SYMBOL        FlashArea_User
  C:424AH         PUBLIC        Flash_CalDataInit
  D:00B7H         PUBLIC        FLKEY
  -------         PROC          FLASH_CALDATAINIT
  -------         DO            
  D:0021H         SYMBOL        SfrPage_
  -------         ENDDO         
  C:424AH         LINE#         40
  C:424AH         LINE#         41
  C:424AH         LINE#         42
  C:424DH         LINE#         43
  C:4260H         LINE#         44
  C:4268H         LINE#         45
  C:4268H         LINE#         46
  C:426BH         LINE#         47
  C:426EH         LINE#         48
  C:4271H         LINE#         50
  C:4271H         LINE#         51
  C:4276H         LINE#         52
  C:4279H         LINE#         53
BL51 BANKED LINKER/LOCATER V6.22                                                      08/24/2017  22:40:46  PAGE 48


  C:4289H         LINE#         54
  C:4289H         LINE#         55
  C:428CH         LINE#         56
  C:428EH         LINE#         58
  C:428EH         LINE#         59
  C:42A1H         LINE#         60
  C:42B1H         LINE#         61
  C:42B1H         LINE#         62
  C:42B4H         LINE#         63
  C:42B9H         LINE#         64
  C:42CAH         LINE#         65
  C:42CCH         LINE#         67
  C:42CCH         LINE#         68
  C:42CFH         LINE#         69
  C:42D4H         LINE#         70
  C:42D4H         LINE#         71
  C:42D4H         LINE#         73
  C:42D4H         LINE#         75
  C:42DCH         LINE#         76
  C:42E4H         LINE#         78
  C:42EAH         LINE#         79
  C:42EDH         LINE#         81
  C:42F3H         LINE#         82
  C:42F6H         LINE#         84
  C:42FCH         LINE#         85
  C:42FFH         LINE#         87
  C:4302H         LINE#         88
  C:431DH         LINE#         90
  C:4320H         LINE#         92
  C:434BH         LINE#         93
  C:434EH         LINE#         94
  -------         ENDPROC       FLASH_CALDATAINIT
  -------         PROC          FLASH_CALDATAUPDATE
  C:6524H         LINE#         102
  C:6524H         LINE#         103
  C:6524H         LINE#         104
  C:6529H         LINE#         105
  C:653CH         LINE#         106
  C:6541H         LINE#         107
  C:6554H         LINE#         108
  -------         ENDPROC       FLASH_CALDATAUPDATE
  -------         PROC          FLASH_USERDATAUPDATE
  C:6C2DH         LINE#         111
  C:6C2DH         LINE#         112
  C:6C2DH         LINE#         114
  C:6C30H         LINE#         115
  -------         ENDPROC       FLASH_USERDATAUPDATE
  -------         PROC          _FLASHUPDATE
  D:0042H         SYMBOL        addr
  D:0044H         SYMBOL        buf
  D:0047H         SYMBOL        n
  -------         DO            
  B:0020H.2       SYMBOL        ea_temp
  -------         ENDDO         
  C:684BH         LINE#         119
  C:6855H         LINE#         120
  C:6855H         LINE#         121
BL51 BANKED LINKER/LOCATER V6.22                                                      08/24/2017  22:40:46  PAGE 49


  C:6859H         LINE#         122
  C:685BH         LINE#         124
  C:685EH         LINE#         125
  C:6865H         LINE#         126
  C:6878H         LINE#         128
  C:687CH         LINE#         129
  -------         ENDPROC       _FLASHUPDATE
  C:6252H         SYMBOL        L?0094
  -------         PROC          L?0093
  -------         ENDPROC       L?0093
  C:6252H         SYMBOL        L?0094
  -------         PROC          _FLASH_CALDATAUPDATE_USER
  D:0039H         SYMBOL        page
  D:003AH         SYMBOL        addr
  D:003CH         SYMBOL        buf
  D:003FH         SYMBOL        n
  -------         DO            
  D:0041H         SYMBOL        sum
  D:0082H         SYMBOL        pread
  -------         ENDDO         
  C:6256H         LINE#         138
  C:6262H         LINE#         139
  C:6262H         LINE#         143
  C:626EH         LINE#         145
  C:6272H         LINE#         146
  C:6277H         LINE#         148
  C:627FH         LINE#         149
  C:6292H         LINE#         150
  -------         ENDPROC       _FLASH_CALDATAUPDATE_USER
  -------         PROC          RAM_CALDATAINIT
  C:7050H         LINE#         158
  C:7050H         LINE#         159
  C:7050H         LINE#         160
  C:7053H         LINE#         161
  C:7056H         LINE#         162
  -------         ENDPROC       RAM_CALDATAINIT
  -------         PROC          _RAM_CALDATA2BUF
  D:0042H         SYMBOL        page
  -------         DO            
  D:0043H         SYMBOL        i
  D:0044H         SYMBOL        j
  D:0046H         SYMBOL        k
  -------         ENDDO         
  C:29E1H         LINE#         165
  C:29E3H         LINE#         166
  C:29E3H         LINE#         169
  C:29ECH         LINE#         170
  C:29ECH         LINE#         171
  C:29EEH         LINE#         172
  C:29EEH         LINE#         174
  C:2A01H         LINE#         175
  C:2A14H         LINE#         176
  C:2A29H         LINE#         177
  C:2A3EH         LINE#         179
  C:2A47H         LINE#         180
  C:2A4DH         LINE#         181
  C:2A50H         LINE#         182
BL51 BANKED LINKER/LOCATER V6.22                                                      08/24/2017  22:40:46  PAGE 50


  C:2A50H         LINE#         183
  C:2A74H         LINE#         184
  C:2A7BH         LINE#         186
  C:2A86H         LINE#         187
  C:2A89H         LINE#         188
  C:2A89H         LINE#         190
  C:2AAFH         LINE#         191
  C:2AD5H         LINE#         192
  C:2AFBH         LINE#         193
  C:2B04H         LINE#         194
  C:2B0FH         LINE#         195
  C:2B20H         LINE#         196
  C:2B31H         LINE#         197
  C:2B4AH         LINE#         200
  C:2B5CH         LINE#         201
  C:2B6EH         LINE#         202
  C:2B81H         LINE#         204
  C:2B92H         LINE#         205
  C:2B95H         LINE#         206
  C:2B95H         LINE#         207
  C:2BBBH         LINE#         208
  C:2BE1H         LINE#         209
  C:2BEAH         LINE#         211
  C:2BF5H         LINE#         212
  C:2BFCH         LINE#         213
  C:2BFCH         LINE#         214
  C:2C0AH         LINE#         215
  C:2C14H         LINE#         217
  C:2C14H         LINE#         218
  C:2C14H         LINE#         219
  C:2C17H         LINE#         220
  C:2C20H         LINE#         221
  C:2C20H         LINE#         222
  C:2C28H         LINE#         223
  C:2C30H         LINE#         224
  C:2C38H         LINE#         225
  C:2C40H         LINE#         226
  C:2C4FH         LINE#         229
  C:2C55H         LINE#         231
  C:2C67H         LINE#         232
  C:2C79H         LINE#         234
  C:2C8BH         LINE#         235
  C:2C9DH         LINE#         237
  C:2CAFH         LINE#         238
  C:2CC1H         LINE#         239
  C:2CD3H         LINE#         240
  C:2CEBH         LINE#         243
  C:2CF1H         LINE#         244
  C:2CF4H         LINE#         245
  C:2CF4H         LINE#         246
  C:2D18H         LINE#         247
  C:2D1FH         LINE#         249
  C:2D2AH         LINE#         250
  C:2D31H         LINE#         251
  C:2D31H         LINE#         252
  C:2D3FH         LINE#         253
  C:2D49H         LINE#         256
BL51 BANKED LINKER/LOCATER V6.22                                                      08/24/2017  22:40:46  PAGE 51


  C:2D4FH         LINE#         257
  C:2D57H         LINE#         258
  C:2D57H         LINE#         259
  -------         ENDPROC       _RAM_CALDATA2BUF
  -------         PROC          _RAM_BUF2CALDATA
  D:0022H         SYMBOL        page
  -------         DO            
  D:0023H         SYMBOL        i
  D:0024H         SYMBOL        j
  -------         ENDDO         
  C:2D58H         LINE#         265
  C:2D5AH         LINE#         266
  C:2D5AH         LINE#         268
  C:2D63H         LINE#         269
  C:2D63H         LINE#         270
  C:2D65H         LINE#         271
  C:2D65H         LINE#         278
  C:2D79H         LINE#         279
  C:2D8DH         LINE#         280
  C:2DA2H         LINE#         281
  C:2DB7H         LINE#         283
  C:2DC0H         LINE#         284
  C:2DC6H         LINE#         285
  C:2DC9H         LINE#         286
  C:2DC9H         LINE#         287
  C:2DEDH         LINE#         288
  C:2DF4H         LINE#         291
  C:2DFFH         LINE#         292
  C:2E02H         LINE#         293
  C:2E02H         LINE#         294
  C:2E28H         LINE#         295
  C:2E4EH         LINE#         296
  C:2E74H         LINE#         298
  C:2E7DH         LINE#         299
  C:2E88H         LINE#         300
  C:2E99H         LINE#         301
  C:2EAAH         LINE#         302
  C:2EC2H         LINE#         304
  C:2ED4H         LINE#         305
  C:2EE6H         LINE#         306
  C:2EF7H         LINE#         308
  C:2F08H         LINE#         309
  C:2F0BH         LINE#         310
  C:2F0BH         LINE#         311
  C:2F31H         LINE#         312
  C:2F57H         LINE#         313
  C:2F60H         LINE#         317
  C:2F60H         LINE#         318
  C:2F69H         LINE#         319
  C:2F69H         LINE#         320
  C:2F71H         LINE#         321
  C:2F79H         LINE#         322
  C:2F81H         LINE#         323
  C:2F89H         LINE#         324
  C:2F98H         LINE#         327
  C:2F9EH         LINE#         329
  C:2FB0H         LINE#         330
BL51 BANKED LINKER/LOCATER V6.22                                                      08/24/2017  22:40:46  PAGE 52


  C:2FC2H         LINE#         332
  C:2FD4H         LINE#         333
  C:2FE6H         LINE#         338
  C:2FFAH         LINE#         340
  C:3000H         LINE#         342
  C:3003H         LINE#         343
  C:3003H         LINE#         344
  C:3027H         LINE#         345
  C:302EH         LINE#         347
  C:302EH         LINE#         348
  -------         ENDPROC       _RAM_BUF2CALDATA
  C:670DH         SYMBOL        L?0092
  -------         PROC          L?0091
  -------         ENDPROC       L?0091
  C:670DH         SYMBOL        L?0092
  -------         PROC          _FLASH_CHECKSUM
  D:0001H         SYMBOL        addr
  D:0048H         SYMBOL        n
  -------         DO            
  D:004AH         SYMBOL        pread
  D:0004H         SYMBOL        i
  D:0007H         SYMBOL        sum
  -------         ENDDO         
  C:6717H         LINE#         352
  C:671BH         LINE#         353
  C:671BH         LINE#         355
  C:671DH         LINE#         356
  C:6723H         LINE#         357
  C:672EH         LINE#         358
  C:672EH         LINE#         359
  C:673CH         LINE#         360
  C:6743H         LINE#         361
  C:6743H         LINE#         362
  -------         ENDPROC       _FLASH_CHECKSUM
  -------         PROC          _FLASH_PAGEERASE
  D:0006H         SYMBOL        addr
  -------         DO            
  D:0082H         SYMBOL        pwrite
  B:0020H.3       SYMBOL        ea_temp
  -------         ENDDO         
  C:6961H         LINE#         371
  C:6961H         LINE#         372
  C:6961H         LINE#         373
  C:6965H         LINE#         376
  C:6969H         LINE#         377
  C:696BH         LINE#         378
  C:696EH         LINE#         379
  C:6971H         LINE#         380
  C:6974H         LINE#         381
  C:6977H         LINE#         382
  C:697AH         LINE#         383
  C:697DH         LINE#         384
  C:6980H         LINE#         385
  C:6982H         LINE#         386
  C:6985H         LINE#         387
  C:6989H         LINE#         388
  -------         ENDPROC       _FLASH_PAGEERASE
BL51 BANKED LINKER/LOCATER V6.22                                                      08/24/2017  22:40:46  PAGE 53


  -------         PROC          _FLASH_BUFWR
  D:0006H         SYMBOL        addr
  D:004BH         SYMBOL        buf
  D:004EH         SYMBOL        n
  -------         DO            
  D:0050H         SYMBOL        pwrite
  B:0020H.3       SYMBOL        ea_temp
  D:0052H         SYMBOL        i
  -------         ENDDO         
  C:5DA9H         LINE#         397
  C:5DAFH         LINE#         398
  C:5DAFH         LINE#         399
  C:5DB3H         LINE#         403
  C:5DB7H         LINE#         404
  C:5DB9H         LINE#         405
  C:5DC9H         LINE#         406
  C:5DCCH         LINE#         407
  C:5DCFH         LINE#         408
  C:5DD2H         LINE#         409
  C:5DD5H         LINE#         410
  C:5DD8H         LINE#         411
  C:5DDBH         LINE#         412
  C:5DDEH         LINE#         413
  C:5DFCH         LINE#         414
  C:5DFFH         LINE#         415
  C:5E09H         LINE#         416
  C:5E0DH         LINE#         417
  -------         ENDPROC       _FLASH_BUFWR
  C:60EFH         SYMBOL        L?0090
  -------         PROC          L?0089
  -------         ENDPROC       L?0089
  C:60EFH         SYMBOL        L?0090
  -------         PROC          _FLASH_BUFRD
  D:0006H         SYMBOL        addr
  D:0024H         SYMBOL        buf
  D:0027H         SYMBOL        n
  -------         DO            
  D:0029H         SYMBOL        pread
  B:0020H.2       SYMBOL        ea_temp
  D:0006H         SYMBOL        i
  -------         ENDDO         
  C:60FFH         LINE#         426
  C:6105H         LINE#         427
  C:6105H         LINE#         428
  C:6109H         LINE#         431
  C:610DH         LINE#         432
  C:610FH         LINE#         433
  C:611BH         LINE#         434
  C:611BH         LINE#         435
  C:613AH         LINE#         436
  C:6141H         LINE#         437
  C:6145H         LINE#         438
  -------         ENDPROC       _FLASH_BUFRD
  -------         PROC          FLASHCHK
  -------         DO            
  D:0007H         SYMBOL        temp
  -------         ENDDO         
BL51 BANKED LINKER/LOCATER V6.22                                                      08/24/2017  22:40:46  PAGE 54


  C:6EB6H         LINE#         447
  C:6EB6H         LINE#         448
  C:6EB6H         LINE#         449
  C:6EBBH         LINE#         450
  C:6EC1H         LINE#         452
  C:6EC3H         LINE#         453
  -------         ENDPROC       FLASHCHK
  -------         PROC          FLASHAREA_USER
  C:6146H         LINE#         462
  C:6146H         LINE#         463
  C:6146H         LINE#         464
  C:6159H         LINE#         465
  C:6169H         LINE#         466
  C:6169H         LINE#         467
  C:616CH         LINE#         468
  C:616FH         LINE#         469
  C:617FH         LINE#         470
  C:6181H         LINE#         472
  C:6181H         LINE#         473
  C:6186H         LINE#         474
  C:619BH         LINE#         476
  C:619BH         LINE#         478
  -------         ENDPROC       FLASHAREA_USER
  -------         PROC          RAM_CALDATAINIT_USER
  C:687DH         LINE#         489
  C:687DH         LINE#         490
  C:687DH         LINE#         492
  C:6888H         LINE#         493
  C:6893H         LINE#         497
  C:689EH         LINE#         498
  C:68A9H         LINE#         499
  -------         ENDPROC       RAM_CALDATAINIT_USER
  -------         ENDMOD        FLASH

  -------         MODULE        INIT
  C:0000H         SYMBOL        _ICE_DUMMY_
  D:00A0H         PUBLIC        P2
  C:5CDCH         PUBLIC        Init_SystemPara
  D:00A7H         PUBLIC        SFRPAGE
  D:00A4H         PUBLIC        P0MDOUT
  D:00A6H         PUBLIC        P2MDOUT
  C:6B6FH         PUBLIC        Init_All
  X:0C4AH         PUBLIC        ModuleNum
  D:00E1H         PUBLIC        XBR0
  D:00C7H         PUBLIC        XBR2
  D:00FFH         PUBLIC        VDM0CN
  D:00F1H         PUBLIC        P0MDIN
  D:00F2H         PUBLIC        P1MDIN
  D:00D4H         PUBLIC        P0SKIP
  D:00D5H         PUBLIC        P1SKIP
  D:008FH         PUBLIC        CLKSEL
  D:00A1H         PUBLIC        OSCICN
  C:6BFBH         SYMBOL        Sys_ClkInit
  C:6A6BH         PUBLIC        Sys_PortInit
  D:00EFH         PUBLIC        RSTSRC
  -------         PROC          INIT_SYSTEMPARA
  C:5CDCH         LINE#         26
BL51 BANKED LINKER/LOCATER V6.22                                                      08/24/2017  22:40:46  PAGE 55


  C:5CDCH         LINE#         27
  C:5CDCH         LINE#         28
  C:5CE2H         LINE#         29
  C:5CE6H         LINE#         30
  C:5CFEH         LINE#         32
  C:5D08H         LINE#         33
  C:5D0EH         LINE#         34
  C:5D14H         LINE#         36
  C:5D1DH         LINE#         37
  C:5D22H         LINE#         40
  C:5D28H         LINE#         41
  C:5D2CH         LINE#         42
  C:5D30H         LINE#         43
  C:5D32H         LINE#         44
  C:5D34H         LINE#         45
  C:5D37H         LINE#         46
  C:5D3AH         LINE#         47
  C:5D3CH         LINE#         48
  C:5D3EH         LINE#         49
  C:5D42H         LINE#         52
  -------         ENDPROC       INIT_SYSTEMPARA
  -------         PROC          SYS_CLKINIT
  -------         DO            
  D:0007H         SYMBOL        SfrPage_
  -------         ENDDO         
  C:6BFBH         LINE#         54
  C:6BFBH         LINE#         55
  C:6BFDH         LINE#         57
  C:6C00H         LINE#         59
  C:6C03H         LINE#         63
  C:6C06H         LINE#         64
  C:6C0BH         LINE#         65
  C:6C0EH         LINE#         66
  C:6C11H         LINE#         68
  C:6C13H         LINE#         69
  -------         ENDPROC       SYS_CLKINIT
  -------         PROC          SYS_PORTINIT
  -------         DO            
  D:0007H         SYMBOL        SfrPage_
  -------         ENDDO         
  C:6A6BH         LINE#         71
  C:6A6BH         LINE#         72
  C:6A6BH         LINE#         73
  C:6A6DH         LINE#         74
  C:6A70H         LINE#         75
  C:6A73H         LINE#         76
  C:6A76H         LINE#         77
  C:6A79H         LINE#         78
  C:6A7CH         LINE#         79
  C:6A7FH         LINE#         81
  C:6A82H         LINE#         82
  C:6A85H         LINE#         83
  C:6A88H         LINE#         84
  C:6A8BH         LINE#         85
  C:6A8DH         LINE#         86
  -------         ENDPROC       SYS_PORTINIT
  -------         PROC          INIT_ALL
BL51 BANKED LINKER/LOCATER V6.22                                                      08/24/2017  22:40:46  PAGE 56


  C:6B6FH         LINE#         88
  C:6B6FH         LINE#         89
  C:6B6FH         LINE#         90
  C:6B72H         LINE#         91
  C:6B75H         LINE#         93
  C:6B78H         LINE#         94
  C:6B7BH         LINE#         96
  C:6B7EH         LINE#         97
  C:6B81H         LINE#         98
  C:6B84H         LINE#         99
  C:6B87H         LINE#         100
  C:6B8AH         LINE#         101
  -------         ENDPROC       INIT_ALL
  -------         ENDMOD        INIT

  -------         MODULE        KEY
  C:0000H         SYMBOL        _ICE_DUMMY_
  D:00A0H         PUBLIC        P2
  X:0C63H         PUBLIC        KeyEnb
  -------         ENDMOD        KEY

  -------         MODULE        MAIN
  C:0000H         SYMBOL        _ICE_DUMMY_
  C:710AH         PUBLIC        Main_Temp
  D:00A0H         PUBLIC        P2
  B:00A8H.7       PUBLIC        EA
  B:00A0H.5       PUBLIC        LED_S
  D:00A7H         PUBLIC        SFRPAGE
  B:00A0H.7       PUBLIC        LED_X
  B:00A0H.6       PUBLIC        LED_Y
  D:00D9H         PUBLIC        PCA0MD
  C:69B2H         PUBLIC        main
  X:0C5CH         PUBLIC        AlarmHighLow
  X:0C5EH         PUBLIC        MenuId
  X:0C5FH         PUBLIC        TempA
  -------         PROC          MAIN_TEMP
  C:710AH         LINE#         27
  C:710AH         LINE#         28
  C:710AH         LINE#         29
  C:710CH         LINE#         30
  C:710EH         LINE#         31
  C:7110H         LINE#         32
  -------         ENDPROC       MAIN_TEMP
  -------         PROC          MAIN
  C:69B2H         LINE#         34
  C:69B2H         LINE#         35
  C:69B2H         LINE#         36
  C:69B5H         LINE#         37
  C:69B8H         LINE#         38
  C:69BBH         LINE#         39
  C:69BDH         LINE#         40
  C:69C0H         LINE#         41
  C:69C5H         LINE#         42
  C:69C8H         LINE#         43
  C:69CEH         LINE#         44
  C:69CEH         LINE#         45
  C:69CEH         LINE#         46
BL51 BANKED LINKER/LOCATER V6.22                                                      08/24/2017  22:40:46  PAGE 57


  C:69D1H         LINE#         47
  C:69D4H         LINE#         48
  C:69D7H         LINE#         51
  -------         ENDPROC       MAIN
  -------         ENDMOD        MAIN

  -------         MODULE        MODBUSCRC
  C:0000H         SYMBOL        _ICE_DUMMY_
  D:00A0H         PUBLIC        P2
  C:67B0H         PUBLIC        _ModbusCrcCnt
  C:302FH         SYMBOL        CrcTabHi
  C:312FH         SYMBOL        CrcTabLi
  -------         PROC          _MODBUSCRCCNT
  D:0035H         SYMBOL        ptr
  D:0005H         SYMBOL        len
  -------         DO            
  D:0002H         SYMBOL        index
  D:0007H         SYMBOL        crchi
  D:0004H         SYMBOL        crcli
  -------         ENDDO         
  C:67B0H         LINE#         114
  C:67B6H         LINE#         115
  C:67B6H         LINE#         119
  C:67B8H         LINE#         120
  C:67BAH         LINE#         122
  C:67C0H         LINE#         123
  C:67C0H         LINE#         124
  C:67D0H         LINE#         125
  C:67D6H         LINE#         126
  C:67DCH         LINE#         127
  C:67DEH         LINE#         128
  C:67E4H         LINE#         129
  -------         ENDPROC       _MODBUSCRCCNT
  -------         ENDMOD        MODBUSCRC

  -------         MODULE        MODBUSRTU
  C:0000H         SYMBOL        _ICE_DUMMY_
  D:00A0H         PUBLIC        P2
  C:6456H         SYMBOL        _ModRtu_RlyError
  C:698AH         PUBLIC        _ModRtu_WrAddr
  C:69D9H         PUBLIC        _ModRtu_WrBaud
  X:0C40H         PUBLIC        AngRange
  D:00A7H         PUBLIC        SFRPAGE
  C:6818H         PUBLIC        _ModRtu_SetZero
  C:603FH         PUBLIC        _ChkCode
  C:4552H         SYMBOL        _ModRtu_RdReg
  C:0C20H         PUBLIC        _ModRtu_RdVal
  X:0C42H         SYMBOL        checkcode
  C:6622H         PUBLIC        _ModRtu_RxProc
  C:6FDCH         PUBLIC        _ModRtu_WrCrc
  C:434FH         SYMBOL        _ModRtu_WrReg
  X:0C44H         SYMBOL        udflashtag
  C:172BH         PUBLIC        _ModRtu_WrVal
  C:1E4DH         PUBLIC        _CustomPro
  X:0C45H         PUBLIC        baudsetnum
  C:6F8CH         PUBLIC        _ModRtu_8to16
  C:6EEEH         PUBLIC        _ModRtu_Rd16u
BL51 BANKED LINKER/LOCATER V6.22                                                      08/24/2017  22:40:46  PAGE 58


  D:00ACH         PUBLIC        SBRL0
  C:6AD7H         PUBLIC        _ModRtu_Wr16u
  C:515CH         SYMBOL        _FloatToInt
  C:5F97H         PUBLIC        _Sumchk
  C:6CE6H         PUBLIC        _ModRtu_ChkCrc
  X:0C49H         PUBLIC        Addr
  C:5152H         SYMBOL        L?0775
  -------         PROC          L?0774
  -------         ENDPROC       L?0774
  C:5152H         SYMBOL        L?0775
  -------         PROC          _FLOATTOINT
  D:003AH         SYMBOL        ang
  D:003EH         SYMBOL        highlow
  -------         DO            
  D:0040H         SYMBOL        temp
  D:0044H         SYMBOL        vol
  -------         ENDDO         
  C:515CH         LINE#         29
  C:5164H         LINE#         30
  C:5164H         LINE#         34
  C:5176H         LINE#         35
  C:517EH         LINE#         37
  C:518EH         LINE#         38
  C:518EH         LINE#         39
  C:51A1H         LINE#         40
  C:51AEH         LINE#         41
  C:51B0H         LINE#         43
  C:51B0H         LINE#         44
  C:51C3H         LINE#         45
  C:51DAH         LINE#         46
  C:51DAH         LINE#         47
  C:51DEH         LINE#         48
  -------         ENDPROC       _FLOATTOINT
  -------         PROC          _MODRTU_CHKCRC
  D:0001H         SYMBOL        buf
  D:0005H         SYMBOL        len
  C:6CE6H         LINE#         56
  C:6CE6H         LINE#         57
  C:6CE6H         LINE#         58
  C:6CECH         LINE#         59
  C:6CECH         LINE#         60
  C:6CEFH         LINE#         61
  C:6CEFH         LINE#         62
  C:6CF6H         LINE#         63
  C:6CF6H         LINE#         64
  C:6CF9H         LINE#         65
  C:6CF9H         LINE#         67
  C:6CF9H         LINE#         68
  C:6CFBH         LINE#         69
  C:6CFBH         LINE#         70
  -------         ENDPROC       _MODRTU_CHKCRC
  -------         PROC          _CHKCODE
  D:0026H         SYMBOL        buf
  D:0005H         SYMBOL        len
  -------         DO            
  D:0007H         SYMBOL        i
  -------         ENDDO         
BL51 BANKED LINKER/LOCATER V6.22                                                      08/24/2017  22:40:46  PAGE 59


  C:603FH         LINE#         72
  C:6045H         LINE#         73
  C:6045H         LINE#         79
  C:604CH         LINE#         80
  C:6057H         LINE#         81
  C:6057H         LINE#         82
  C:606FH         LINE#         83
  C:6072H         LINE#         84
  C:6091H         LINE#         85
  C:6094H         LINE#         87
  C:6096H         LINE#         89
  -------         ENDPROC       _CHKCODE
  -------         PROC          L?0776
  -------         ENDPROC       L?0776
  -------         PROC          _SUMCHK
  D:0026H         SYMBOL        buf
  D:0029H         SYMBOL        len
  -------         DO            
  X:0C55H         SYMBOL        i
  D:002AH         SYMBOL        codedata
  -------         ENDDO         
  C:5F97H         LINE#         91
  C:5F9FH         LINE#         92
  C:5F9FH         LINE#         94
  C:5FA4H         LINE#         95
  C:5FC0H         LINE#         96
  C:5FC0H         LINE#         97
  C:5FD8H         LINE#         98
  C:5FE0H         LINE#         99
  C:5FE4H         LINE#         101
  -------         ENDPROC       _SUMCHK
  -------         PROC          _MODRTU_WRCRC
  D:0001H         SYMBOL        buf
  D:0004H         SYMBOL        crc
  C:6FDCH         LINE#         110
  C:6FDCH         LINE#         111
  C:6FDCH         LINE#         112
  C:6FE0H         LINE#         113
  -------         ENDPROC       _MODRTU_WRCRC
  -------         PROC          _MODRTU_8TO16
  D:0001H         SYMBOL        buf
  -------         DO            
  D:0006H         SYMBOL        temp
  -------         ENDDO         
  C:6F8CH         LINE#         122
  C:6F8CH         LINE#         123
  C:6F8CH         LINE#         126
  C:6F8FH         LINE#         127
  C:6F90H         LINE#         128
  C:6F97H         LINE#         129
  C:6F97H         LINE#         130
  -------         ENDPROC       _MODRTU_8TO16
  -------         PROC          _MODRTU_SETZERO
  D:0001H         SYMBOL        buf
  -------         DO            
  D:0039H         SYMBOL        temp
  -------         ENDDO         
BL51 BANKED LINKER/LOCATER V6.22                                                      08/24/2017  22:40:46  PAGE 60


  C:6818H         LINE#         138
  C:6818H         LINE#         139
  C:6818H         LINE#         140
  C:681FH         LINE#         142
  C:6827H         LINE#         143
  C:6827H         LINE#         144
  C:682DH         LINE#         145
  C:6830H         LINE#         146
  C:6832H         LINE#         147
  C:6838H         LINE#         148
  C:6838H         LINE#         149
  C:683FH         LINE#         150
  C:684AH         LINE#         151
  C:684AH         LINE#         152
  -------         ENDPROC       _MODRTU_SETZERO
  -------         PROC          L?0777
  -------         ENDPROC       L?0777
  -------         PROC          _MODRTU_WR16U
  D:0001H         SYMBOL        buf
  -------         DO            
  D:0006H         SYMBOL        temp
  D:0004H         SYMBOL        dat
  -------         ENDDO         
  C:6AD7H         LINE#         160
  C:6AD7H         LINE#         161
  C:6AD7H         LINE#         165
  C:6ADAH         LINE#         166
  C:6ADBH         LINE#         167
  C:6AE2H         LINE#         168
  C:6AF1H         LINE#         169
  C:6AF1H         LINE#         170
  -------         ENDPROC       _MODRTU_WR16U
  -------         PROC          _MODRTU_WRADDR
  D:0001H         SYMBOL        buf
  -------         DO            
  D:0006H         SYMBOL        temp
  -------         ENDDO         
  C:698AH         LINE#         178
  C:698AH         LINE#         179
  C:698AH         LINE#         182
  C:698DH         LINE#         183
  C:698EH         LINE#         184
  C:6995H         LINE#         185
  C:69AAH         LINE#         186
  C:69AFH         LINE#         187
  C:69B1H         LINE#         188
  -------         ENDPROC       _MODRTU_WRADDR
  -------         PROC          _MODRTU_WRBAUD
  D:0001H         SYMBOL        buf
  -------         DO            
  D:0006H         SYMBOL        temp
  -------         ENDDO         
  C:69D9H         LINE#         196
  C:69D9H         LINE#         197
  C:69D9H         LINE#         200
  C:69DCH         LINE#         201
  C:69DDH         LINE#         202
BL51 BANKED LINKER/LOCATER V6.22                                                      08/24/2017  22:40:46  PAGE 61


  C:69E4H         LINE#         203
  C:69F6H         LINE#         204
  C:69FBH         LINE#         205
  C:69FDH         LINE#         206
  -------         ENDPROC       _MODRTU_WRBAUD
  -------         PROC          _MODRTU_WRVAL
  D:0031H         SYMBOL        addr
  D:0033H         SYMBOL        buf
  D:0036H         SYMBOL        excode
  -------         DO            
  X:0C3BH         SYMBOL        vol32u
  X:0C3FH         SYMBOL        vol8u
  X:0C54H         SYMBOL        volf
  X:0C58H         SYMBOL        pc_data
  X:0C5AH         SYMBOL        vol16s
  -------         ENDDO         
  C:172BH         LINE#         215
  C:1735H         LINE#         216
  C:1735H         LINE#         223
  C:174DH         LINE#         224
  C:1885H         LINE#         225
  C:1885H         LINE#         226
  C:188BH         LINE#         227
  C:188BH         LINE#         228
  C:188DH         LINE#         229
  C:1893H         LINE#         230
  C:1893H         LINE#         231
  C:1895H         LINE#         233
  C:189EH         LINE#         234
  C:18A4H         LINE#         235
  C:18A7H         LINE#         239
  C:18A7H         LINE#         240
  C:18ADH         LINE#         241
  C:18B6H         LINE#         242
  C:18B6H         LINE#         243
  C:18BCH         LINE#         244
  C:18C5H         LINE#         246
  C:18C5H         LINE#         247
  C:18C5H         LINE#         248
  C:18C5H         LINE#         249
  C:18C5H         LINE#         251
  C:18C5H         LINE#         253
  C:18C5H         LINE#         254
  C:18C5H         LINE#         258
  C:18C5H         LINE#         259
  C:18C5H         LINE#         260
  C:18C5H         LINE#         262
  C:18C5H         LINE#         264
  C:18C5H         LINE#         265
  C:18C5H         LINE#         269
  C:18C5H         LINE#         270
  C:18C5H         LINE#         271
  C:18C5H         LINE#         272
  C:18DAH         LINE#         273
  C:18DDH         LINE#         274
  C:18DDH         LINE#         275
  C:18DDH         LINE#         276
BL51 BANKED LINKER/LOCATER V6.22                                                      08/24/2017  22:40:46  PAGE 62


  C:18DDH         LINE#         277
  C:18E0H         LINE#         278
  C:18E0H         LINE#         279
  C:18E0H         LINE#         283
  C:18E0H         LINE#         284
  C:18E0H         LINE#         285
  C:18E0H         LINE#         286
  C:18E0H         LINE#         287
  C:18E3H         LINE#         288
  C:18E3H         LINE#         289
  C:18E3H         LINE#         293
  C:18E3H         LINE#         294
  C:18E3H         LINE#         295
  C:18E3H         LINE#         296
  C:18E3H         LINE#         297
  C:18E6H         LINE#         298
  C:18E6H         LINE#         299
  C:18E6H         LINE#         303
  C:18E6H         LINE#         304
  C:18E6H         LINE#         305
  C:18E6H         LINE#         306
  C:18E6H         LINE#         307
  C:18E9H         LINE#         308
  C:18E9H         LINE#         309
  C:18E9H         LINE#         313
  C:18E9H         LINE#         314
  C:18E9H         LINE#         315
  C:18E9H         LINE#         316
  C:18E9H         LINE#         317
  C:18ECH         LINE#         318
  C:18ECH         LINE#         319
  C:18ECH         LINE#         320
  C:191EH         LINE#         321
  C:1932H         LINE#         322
  C:1932H         LINE#         323
  C:1935H         LINE#         324
  C:1937H         LINE#         325
  C:194EH         LINE#         326
  C:194EH         LINE#         327
  C:1955H         LINE#         328
  C:1955H         LINE#         329
  C:1958H         LINE#         330
  C:1958H         LINE#         331
  C:1958H         LINE#         332
  C:1958H         LINE#         333
  C:195BH         LINE#         334
  C:195BH         LINE#         335
  C:195BH         LINE#         336
  C:198DH         LINE#         337
  C:19A1H         LINE#         338
  C:19A1H         LINE#         339
  C:19A1H         LINE#         340
  C:19A4H         LINE#         341
  C:19BBH         LINE#         342
  C:19BBH         LINE#         343
  C:19BFH         LINE#         344
  C:19BFH         LINE#         345
BL51 BANKED LINKER/LOCATER V6.22                                                      08/24/2017  22:40:46  PAGE 63


  C:19C2H         LINE#         346
  C:19C2H         LINE#         347
  C:19C2H         LINE#         348
  C:19C2H         LINE#         349
  C:19C5H         LINE#         350
  C:19C5H         LINE#         351
  C:19C5H         LINE#         352
  C:19C5H         LINE#         353
  C:19C5H         LINE#         354
  C:19C5H         LINE#         355
  C:19C8H         LINE#         356
  C:19C8H         LINE#         357
  C:19C8H         LINE#         358
  C:19C8H         LINE#         359
  C:19CBH         LINE#         360
  C:19CBH         LINE#         361
  C:19CBH         LINE#         362
  C:19CBH         LINE#         363
  C:19CBH         LINE#         364
  C:19CBH         LINE#         366
  C:19CEH         LINE#         367
  C:19CEH         LINE#         368
  C:19CEH         LINE#         369
  C:19DEH         LINE#         370
  C:19F1H         LINE#         371
  C:19F1H         LINE#         372
  C:19F1H         LINE#         373
  C:19F1H         LINE#         374
  C:1A04H         LINE#         375
  C:1A04H         LINE#         376
  C:1A07H         LINE#         377
  C:1A07H         LINE#         378
  C:1A0AH         LINE#         382
  C:1A0AH         LINE#         383
  C:1A0AH         LINE#         384
  C:1A0AH         LINE#         385
  C:1A0AH         LINE#         386
  C:1A0AH         LINE#         387
  C:1A0AH         LINE#         388
  C:1A0AH         LINE#         389
  C:1A0AH         LINE#         390
  C:1A0AH         LINE#         391
  C:1A29H         LINE#         392
  C:1A3CH         LINE#         393
  C:1A3FH         LINE#         394
  C:1A3FH         LINE#         395
  C:1A3FH         LINE#         396
  C:1A4CH         LINE#         397
  C:1A5DH         LINE#         398
  C:1A65H         LINE#         399
  C:1A85H         LINE#         400
  C:1A85H         LINE#         401
  C:1A89H         LINE#         402
  C:1A8DH         LINE#         403
  C:1A91H         LINE#         404
  C:1A95H         LINE#         405
  C:1A99H         LINE#         406
BL51 BANKED LINKER/LOCATER V6.22                                                      08/24/2017  22:40:46  PAGE 64


  C:1A9DH         LINE#         407
  C:1AA5H         LINE#         409
  C:1AA8H         LINE#         410
  C:1AA8H         LINE#         411
  C:1AA8H         LINE#         412
  C:1AA8H         LINE#         413
  C:1AA8H         LINE#         414
  C:1AA8H         LINE#         415
  C:1AABH         LINE#         417
  C:1AABH         LINE#         418
  C:1AABH         LINE#         419
  C:1ADDH         LINE#         420
  C:1AE9H         LINE#         421
  C:1AFEH         LINE#         422
  C:1AFEH         LINE#         423
  C:1B0AH         LINE#         424
  C:1B0CH         LINE#         426
  C:1B0CH         LINE#         427
  C:1B20H         LINE#         428
  C:1B20H         LINE#         429
  C:1B2FH         LINE#         430
  C:1B2FH         LINE#         431
  C:1B3BH         LINE#         432
  C:1B3BH         LINE#         433
  C:1B3EH         LINE#         434
  C:1B4DH         LINE#         435
  C:1B4DH         LINE#         436
  C:1B6BH         LINE#         437
  C:1B90H         LINE#         438
  C:1B90H         LINE#         439
  C:1B99H         LINE#         440
  C:1BA3H         LINE#         441
  C:1BAEH         LINE#         442
  C:1BB9H         LINE#         443
  C:1BC4H         LINE#         444
  C:1BCFH         LINE#         445
  C:1BDAH         LINE#         446
  C:1BE5H         LINE#         447
  C:1BE5H         LINE#         448
  C:1BE5H         LINE#         450
  C:1BE5H         LINE#         451
  C:1BFCH         LINE#         452
  C:1C16H         LINE#         454
  C:1C16H         LINE#         455
  C:1C1EH         LINE#         456
  C:1C1EH         LINE#         457
  C:1C3AH         LINE#         458
  C:1C46H         LINE#         459
  C:1C49H         LINE#         461
  C:1C49H         LINE#         462
  C:1C66H         LINE#         463
  C:1C72H         LINE#         465
  C:1C72H         LINE#         466
  C:1C75H         LINE#         467
  C:1C75H         LINE#         468
  C:1C75H         LINE#         469
  C:1C95H         LINE#         470
BL51 BANKED LINKER/LOCATER V6.22                                                      08/24/2017  22:40:46  PAGE 65


  C:1CA1H         LINE#         471
  C:1CA1H         LINE#         472
  C:1CA4H         LINE#         473
  C:1CA4H         LINE#         474
  C:1CA7H         LINE#         475
  C:1CA7H         LINE#         476
  C:1CA7H         LINE#         477
  C:1CC7H         LINE#         478
  C:1CE0H         LINE#         479
  C:1CE0H         LINE#         480
  C:1CE6H         LINE#         481
  C:1CE9H         LINE#         482
  C:1CEBH         LINE#         483
  C:1CF6H         LINE#         484
  C:1D01H         LINE#         485
  C:1D04H         LINE#         486
  C:1D0AH         LINE#         487
  C:1D0DH         LINE#         488
  C:1D0FH         LINE#         489
  C:1D1AH         LINE#         490
  C:1D25H         LINE#         491
  C:1D28H         LINE#         492
  C:1D28H         LINE#         493
  C:1D28H         LINE#         494
  C:1D28H         LINE#         495
  C:1D28H         LINE#         496
  C:1D28H         LINE#         497
  C:1D2BH         LINE#         498
  C:1D2BH         LINE#         499
  C:1D2BH         LINE#         500
  C:1D5DH         LINE#         501
  C:1D69H         LINE#         502
  C:1D7FH         LINE#         503
  C:1D82H         LINE#         504
  C:1D82H         LINE#         505
  C:1D82H         LINE#         506
  C:1D82H         LINE#         507
  C:1D84H         LINE#         508
  C:1D84H         LINE#         509
  C:1D84H         LINE#         510
  C:1DB6H         LINE#         511
  C:1DC2H         LINE#         512
  C:1DD8H         LINE#         513
  C:1DDAH         LINE#         514
  C:1DDAH         LINE#         515
  C:1DDAH         LINE#         516
  C:1DDAH         LINE#         517
  C:1DDCH         LINE#         518
  C:1DDCH         LINE#         519
  C:1DDCH         LINE#         523
  C:1DDCH         LINE#         524
  C:1DDCH         LINE#         525
  C:1DDCH         LINE#         526
  C:1DDCH         LINE#         527
  C:1DDEH         LINE#         528
  C:1DDEH         LINE#         529
  C:1DDEH         LINE#         533
BL51 BANKED LINKER/LOCATER V6.22                                                      08/24/2017  22:40:46  PAGE 66


  C:1DDEH         LINE#         534
  C:1DDEH         LINE#         535
  C:1DDEH         LINE#         536
  C:1DDEH         LINE#         537
  C:1DE0H         LINE#         538
  C:1DE0H         LINE#         539
  C:1DE0H         LINE#         543
  C:1DE0H         LINE#         544
  C:1DE0H         LINE#         545
  C:1DE0H         LINE#         546
  C:1DF1H         LINE#         547
  C:1DF3H         LINE#         548
  C:1DF3H         LINE#         549
  C:1DF3H         LINE#         553
  C:1DF3H         LINE#         554
  C:1DF3H         LINE#         555
  C:1DF3H         LINE#         556
  C:1E12H         LINE#         557
  C:1E16H         LINE#         558
  C:1E18H         LINE#         559
  C:1E18H         LINE#         560
  C:1E18H         LINE#         561
  C:1E37H         LINE#         562
  C:1E3AH         LINE#         563
  C:1E3CH         LINE#         565
  C:1E3CH         LINE#         566
  C:1E3CH         LINE#         568
  C:1E3CH         LINE#         570
  C:1E3CH         LINE#         571
  C:1E3CH         LINE#         575
  C:1E3CH         LINE#         576
  C:1E3CH         LINE#         577
  C:1E3CH         LINE#         579
  C:1E3CH         LINE#         581
  C:1E3CH         LINE#         582
  C:1E3CH         LINE#         586
  C:1E3CH         LINE#         588
  C:1E3CH         LINE#         589
  C:1E3CH         LINE#         591
  C:1E3CH         LINE#         593
  C:1E3CH         LINE#         594
  C:1E3CH         LINE#         596
  C:1E3CH         LINE#         597
  C:1E3CH         LINE#         598
  C:1E3CH         LINE#         600
  C:1E3CH         LINE#         603
  C:1E3CH         LINE#         604
  C:1E3CH         LINE#         606
  C:1E3CH         LINE#         608
  C:1E3CH         LINE#         609
  C:1E3CH         LINE#         611
  C:1E3CH         LINE#         612
  C:1E3CH         LINE#         613
  C:1E3CH         LINE#         615
  C:1E3CH         LINE#         617
  C:1E3CH         LINE#         618
  C:1E3CH         LINE#         620
BL51 BANKED LINKER/LOCATER V6.22                                                      08/24/2017  22:40:46  PAGE 67


  C:1E3CH         LINE#         622
  C:1E3CH         LINE#         623
  C:1E3CH         LINE#         625
  C:1E3CH         LINE#         626
  C:1E3CH         LINE#         627
  C:1E3CH         LINE#         629
  C:1E3CH         LINE#         632
  C:1E3CH         LINE#         633
  C:1E3CH         LINE#         635
  C:1E3CH         LINE#         637
  C:1E3CH         LINE#         638
  C:1E3CH         LINE#         640
  C:1E3CH         LINE#         641
  C:1E3CH         LINE#         642
  C:1E3CH         LINE#         644
  C:1E3CH         LINE#         647
  C:1E3CH         LINE#         648
  C:1E3CH         LINE#         650
  C:1E47H         LINE#         651
  C:1E4AH         LINE#         652
  C:1E4AH         LINE#         653
  C:1E4CH         LINE#         654
  -------         ENDPROC       _MODRTU_WRVAL
  -------         PROC          _MODRTU_RD16U
  D:0001H         SYMBOL        buf
  D:0004H         SYMBOL        dat
  C:6EEEH         LINE#         662
  C:6EEEH         LINE#         663
  C:6EEEH         LINE#         664
  C:6EF4H         LINE#         665
  -------         ENDPROC       _MODRTU_RD16U
  -------         PROC          _MODRTU_RDVAL
  D:0032H         SYMBOL        addr
  D:0034H         SYMBOL        buf
  D:0037H         SYMBOL        excode
  -------         DO            
  X:0C54H         SYMBOL        pc_data
  X:0C56H         SYMBOL        vol16s
  -------         ENDDO         
  C:0C20H         LINE#         674
  C:0C2AH         LINE#         675
  C:0C2AH         LINE#         679
  C:11FAH         LINE#         680
  C:11FAH         LINE#         682
  C:11FFH         LINE#         683
  C:1204H         LINE#         685
  C:1209H         LINE#         687
  C:120EH         LINE#         688
  C:1213H         LINE#         690
  C:1218H         LINE#         691
  C:121DH         LINE#         693
  C:122FH         LINE#         694
  C:123AH         LINE#         695
  C:124DH         LINE#         697
  C:124DH         LINE#         698
  C:124DH         LINE#         699
  C:1250H         LINE#         700
BL51 BANKED LINKER/LOCATER V6.22                                                      08/24/2017  22:40:46  PAGE 68


  C:1253H         LINE#         701
  C:1256H         LINE#         702
  C:1259H         LINE#         703
  C:125CH         LINE#         704
  C:125FH         LINE#         705
  C:1262H         LINE#         706
  C:1265H         LINE#         707
  C:1268H         LINE#         708
  C:126BH         LINE#         709
  C:126EH         LINE#         710
  C:1271H         LINE#         711
  C:1274H         LINE#         712
  C:1277H         LINE#         713
  C:127AH         LINE#         714
  C:127DH         LINE#         715
  C:1280H         LINE#         716
  C:1283H         LINE#         717
  C:1286H         LINE#         718
  C:1289H         LINE#         719
  C:128CH         LINE#         720
  C:128CH         LINE#         721
  C:128CH         LINE#         722
  C:128CH         LINE#         723
  C:128CH         LINE#         724
  C:128CH         LINE#         725
  C:128CH         LINE#         726
  C:128CH         LINE#         727
  C:128CH         LINE#         728
  C:128CH         LINE#         729
  C:128FH         LINE#         730
  C:1292H         LINE#         731
  C:1295H         LINE#         732
  C:1298H         LINE#         733
  C:129BH         LINE#         734
  C:129EH         LINE#         735
  C:12A1H         LINE#         736
  C:12A4H         LINE#         737
  C:12A7H         LINE#         738
  C:12AAH         LINE#         739
  C:12ADH         LINE#         740
  C:12B3H         LINE#         741
  C:12B6H         LINE#         745
  C:12C2H         LINE#         746
  C:12C8H         LINE#         747
  C:12C8H         LINE#         748
  C:12C8H         LINE#         749
  C:12C8H         LINE#         750
  C:12C8H         LINE#         751
  C:12C8H         LINE#         752
  C:12C8H         LINE#         753
  C:12C8H         LINE#         754
  C:12C8H         LINE#         755
  C:12C8H         LINE#         756
  C:12C8H         LINE#         757
  C:12C8H         LINE#         758
  C:12C8H         LINE#         759
  C:12C8H         LINE#         760
BL51 BANKED LINKER/LOCATER V6.22                                                      08/24/2017  22:40:46  PAGE 69


  C:12C8H         LINE#         761
  C:12C8H         LINE#         762
  C:12C8H         LINE#         763
  C:12C8H         LINE#         764
  C:12C8H         LINE#         765
  C:12C8H         LINE#         766
  C:12C8H         LINE#         767
  C:12C8H         LINE#         768
  C:12C8H         LINE#         769
  C:12D3H         LINE#         770
  C:12D3H         LINE#         771
  C:12D3H         LINE#         772
  C:12D3H         LINE#         773
  C:12D3H         LINE#         774
  C:12D3H         LINE#         775
  C:12D3H         LINE#         776
  C:12D3H         LINE#         777
  C:12D3H         LINE#         778
  C:12D3H         LINE#         779
  C:12D3H         LINE#         780
  C:12D3H         LINE#         781
  C:12D3H         LINE#         782
  C:12D3H         LINE#         783
  C:12D3H         LINE#         784
  C:12D3H         LINE#         785
  C:12D3H         LINE#         786
  C:12D3H         LINE#         787
  C:12D3H         LINE#         788
  C:12D3H         LINE#         789
  C:12D3H         LINE#         790
  C:12DEH         LINE#         791
  C:12DEH         LINE#         792
  C:12DEH         LINE#         793
  C:12DEH         LINE#         794
  C:12DEH         LINE#         795
  C:12DEH         LINE#         796
  C:12DEH         LINE#         797
  C:12DEH         LINE#         798
  C:12DEH         LINE#         799
  C:12DEH         LINE#         800
  C:12DEH         LINE#         801
  C:12DEH         LINE#         802
  C:12DEH         LINE#         803
  C:12DEH         LINE#         804
  C:12DEH         LINE#         805
  C:12DEH         LINE#         806
  C:12DEH         LINE#         807
  C:12DEH         LINE#         808
  C:12DEH         LINE#         809
  C:12DEH         LINE#         810
  C:12DEH         LINE#         811
  C:12E9H         LINE#         812
  C:12ECH         LINE#         813
  C:12EFH         LINE#         814
  C:12F2H         LINE#         815
  C:12F5H         LINE#         816
  C:12F8H         LINE#         817
BL51 BANKED LINKER/LOCATER V6.22                                                      08/24/2017  22:40:46  PAGE 70


  C:12FBH         LINE#         818
  C:12FEH         LINE#         819
  C:1301H         LINE#         820
  C:1304H         LINE#         821
  C:1307H         LINE#         822
  C:130AH         LINE#         823
  C:130DH         LINE#         825
  C:131AH         LINE#         826
  C:1320H         LINE#         827
  C:1329H         LINE#         828
  C:133CH         LINE#         829
  C:133CH         LINE#         830
  C:133CH         LINE#         831
  C:133CH         LINE#         832
  C:133CH         LINE#         833
  C:133CH         LINE#         834
  C:133CH         LINE#         835
  C:133CH         LINE#         836
  C:133CH         LINE#         837
  C:133CH         LINE#         838
  C:133CH         LINE#         839
  C:133CH         LINE#         840
  C:133CH         LINE#         841
  C:133CH         LINE#         842
  C:133CH         LINE#         843
  C:133CH         LINE#         844
  C:133CH         LINE#         845
  C:133CH         LINE#         846
  C:133CH         LINE#         847
  C:133CH         LINE#         848
  C:133CH         LINE#         849
  C:133CH         LINE#         850
  C:133CH         LINE#         851
  C:133CH         LINE#         852
  C:133CH         LINE#         853
  C:1347H         LINE#         854
  C:1347H         LINE#         855
  C:1347H         LINE#         856
  C:1347H         LINE#         857
  C:1347H         LINE#         858
  C:1347H         LINE#         859
  C:1347H         LINE#         860
  C:1347H         LINE#         861
  C:1347H         LINE#         862
  C:1347H         LINE#         863
  C:1347H         LINE#         864
  C:1347H         LINE#         865
  C:1347H         LINE#         866
  C:1347H         LINE#         867
  C:1347H         LINE#         868
  C:1347H         LINE#         869
  C:1347H         LINE#         870
  C:1347H         LINE#         871
  C:1347H         LINE#         872
  C:1347H         LINE#         873
  C:1347H         LINE#         874
  C:1347H         LINE#         875
BL51 BANKED LINKER/LOCATER V6.22                                                      08/24/2017  22:40:46  PAGE 71


  C:1347H         LINE#         876
  C:1347H         LINE#         877
  C:1347H         LINE#         878
  C:135EH         LINE#         879
  C:135EH         LINE#         880
  C:135EH         LINE#         881
  C:135EH         LINE#         882
  C:135EH         LINE#         883
  C:135EH         LINE#         884
  C:135EH         LINE#         885
  C:135EH         LINE#         886
  C:135EH         LINE#         887
  C:135EH         LINE#         888
  C:135EH         LINE#         889
  C:135EH         LINE#         890
  C:135EH         LINE#         891
  C:135EH         LINE#         892
  C:135EH         LINE#         893
  C:135EH         LINE#         894
  C:135EH         LINE#         895
  C:135EH         LINE#         896
  C:135EH         LINE#         897
  C:135EH         LINE#         898
  C:135EH         LINE#         899
  C:135EH         LINE#         900
  C:135EH         LINE#         901
  C:135EH         LINE#         902
  C:135EH         LINE#         903
  C:137FH         LINE#         905
  C:138CH         LINE#         906
  C:1392H         LINE#         907
  C:139BH         LINE#         908
  C:13AEH         LINE#         909
  C:13AEH         LINE#         910
  C:13AEH         LINE#         911
  C:13AEH         LINE#         912
  C:13AEH         LINE#         913
  C:13AEH         LINE#         914
  C:13AEH         LINE#         915
  C:13AEH         LINE#         916
  C:13AEH         LINE#         917
  C:13AEH         LINE#         918
  C:13AEH         LINE#         919
  C:13AEH         LINE#         920
  C:13AEH         LINE#         921
  C:13AEH         LINE#         922
  C:13AEH         LINE#         923
  C:13AEH         LINE#         924
  C:13AEH         LINE#         925
  C:13AEH         LINE#         926
  C:13AEH         LINE#         927
  C:13AEH         LINE#         928
  C:13AEH         LINE#         929
  C:13AEH         LINE#         930
  C:13AEH         LINE#         931
  C:13AEH         LINE#         932
  C:13AEH         LINE#         933
BL51 BANKED LINKER/LOCATER V6.22                                                      08/24/2017  22:40:46  PAGE 72


  C:13B9H         LINE#         934
  C:13B9H         LINE#         935
  C:13B9H         LINE#         936
  C:13B9H         LINE#         937
  C:13B9H         LINE#         938
  C:13B9H         LINE#         939
  C:13B9H         LINE#         940
  C:13B9H         LINE#         941
  C:13B9H         LINE#         942
  C:13B9H         LINE#         943
  C:13B9H         LINE#         944
  C:13B9H         LINE#         945
  C:13B9H         LINE#         946
  C:13B9H         LINE#         947
  C:13B9H         LINE#         948
  C:13B9H         LINE#         949
  C:13B9H         LINE#         950
  C:13B9H         LINE#         951
  C:13B9H         LINE#         952
  C:13B9H         LINE#         953
  C:13B9H         LINE#         954
  C:13B9H         LINE#         955
  C:13B9H         LINE#         956
  C:13B9H         LINE#         957
  C:13B9H         LINE#         958
  C:13CFH         LINE#         959
  C:13CFH         LINE#         960
  C:13CFH         LINE#         961
  C:13CFH         LINE#         962
  C:13CFH         LINE#         963
  C:13CFH         LINE#         964
  C:13CFH         LINE#         965
  C:13CFH         LINE#         966
  C:13CFH         LINE#         967
  C:13CFH         LINE#         968
  C:13CFH         LINE#         969
  C:13CFH         LINE#         970
  C:13CFH         LINE#         971
  C:13CFH         LINE#         972
  C:13CFH         LINE#         973
  C:13CFH         LINE#         974
  C:13CFH         LINE#         975
  C:13CFH         LINE#         976
  C:13CFH         LINE#         977
  C:13CFH         LINE#         978
  C:13CFH         LINE#         979
  C:13CFH         LINE#         980
  C:13CFH         LINE#         981
  C:13CFH         LINE#         982
  C:13CFH         LINE#         983
  C:13EFH         LINE#         985
  C:13FCH         LINE#         986
  C:1401H         LINE#         987
  C:1406H         LINE#         988
  C:140BH         LINE#         989
  C:1410H         LINE#         990
  C:1415H         LINE#         991
BL51 BANKED LINKER/LOCATER V6.22                                                      08/24/2017  22:40:46  PAGE 73


  C:141AH         LINE#         992
  C:141FH         LINE#         993
  C:1433H         LINE#         994
  C:143DH         LINE#         995
  C:1447H         LINE#         996
  C:1451H         LINE#         997
  C:145BH         LINE#         998
  C:1468H         LINE#         999
  C:147FH         LINE#         1000
  C:148CH         LINE#         1001
  C:14A3H         LINE#         1002
  C:14B0H         LINE#         1003
  C:14C7H         LINE#         1004
  C:14D4H         LINE#         1005
  C:14EBH         LINE#         1006
  C:14F8H         LINE#         1007
  C:150FH         LINE#         1008
  C:151CH         LINE#         1009
  C:1533H         LINE#         1010
  C:1540H         LINE#         1011
  C:1557H         LINE#         1012
  C:1564H         LINE#         1013
  C:157BH         LINE#         1014
  C:1588H         LINE#         1015
  C:159FH         LINE#         1016
  C:159FH         LINE#         1017
  C:159FH         LINE#         1018
  C:159FH         LINE#         1019
  C:159FH         LINE#         1020
  C:159FH         LINE#         1021
  C:159FH         LINE#         1022
  C:159FH         LINE#         1023
  C:159FH         LINE#         1024
  C:15ACH         LINE#         1025
  C:15C3H         LINE#         1026
  C:15D0H         LINE#         1027
  C:15E7H         LINE#         1028
  C:15F4H         LINE#         1029
  C:160BH         LINE#         1030
  C:1618H         LINE#         1031
  C:162FH         LINE#         1032
  C:163CH         LINE#         1033
  C:1653H         LINE#         1034
  C:1660H         LINE#         1035
  C:1676H         LINE#         1037
  C:1676H         LINE#         1038
  C:1676H         LINE#         1039
  C:1676H         LINE#         1040
  C:1676H         LINE#         1041
  C:1676H         LINE#         1042
  C:1676H         LINE#         1044
  C:1676H         LINE#         1045
  C:1676H         LINE#         1046
  C:1676H         LINE#         1047
  C:1676H         LINE#         1048
  C:1676H         LINE#         1049
  C:1676H         LINE#         1051
BL51 BANKED LINKER/LOCATER V6.22                                                      08/24/2017  22:40:46  PAGE 74


  C:1676H         LINE#         1052
  C:1676H         LINE#         1053
  C:1676H         LINE#         1054
  C:1678H         LINE#         1056
  C:167CH         LINE#         1057
  C:1688H         LINE#         1058
  C:1695H         LINE#         1059
  C:16A1H         LINE#         1060
  C:16A4H         LINE#         1061
  C:16C5H         LINE#         1062
  C:16D2H         LINE#         1063
  C:16DDH         LINE#         1064
  C:16E8H         LINE#         1065
  C:16F5H         LINE#         1066
  C:16FEH         LINE#         1067
  C:1709H         LINE#         1068
  C:1709H         LINE#         1069
  C:1709H         LINE#         1070
  C:1714H         LINE#         1071
  C:1717H         LINE#         1073
  C:1717H         LINE#         1074
  C:1728H         LINE#         1075
  C:172AH         LINE#         1076
  -------         ENDPROC       _MODRTU_RDVAL
  -------         PROC          _MODRTU_RDREG
  D:0025H         SYMBOL        buf
  -------         DO            
  D:0028H         SYMBOL        addr
  D:002AH         SYMBOL        i
  D:002CH         SYMBOL        j
  D:002EH         SYMBOL        crc
  D:0030H         SYMBOL        err_code
  D:0031H         SYMBOL        excode
  -------         ENDDO         
  C:4552H         LINE#         1089
  C:4558H         LINE#         1090
  C:4558H         LINE#         1092
  C:455DH         LINE#         1093
  C:455FH         LINE#         1095
  C:4567H         LINE#         1096
  C:4579H         LINE#         1097
  C:458BH         LINE#         1098
  C:459BH         LINE#         1099
  C:459BH         LINE#         1100
  C:45C8H         LINE#         1101
  C:45C8H         LINE#         1102
  C:45CBH         LINE#         1103
  C:45CDH         LINE#         1104
  C:45CDH         LINE#         1105
  C:45D5H         LINE#         1106
  C:45DFH         LINE#         1107
  C:45E4H         LINE#         1108
  C:45E4H         LINE#         1109
  C:45EFH         LINE#         1111
  C:45EFH         LINE#         1112
  C:45FFH         LINE#         1113
  C:4611H         LINE#         1114
BL51 BANKED LINKER/LOCATER V6.22                                                      08/24/2017  22:40:46  PAGE 75


  C:461AH         LINE#         1115
  C:462DH         LINE#         1116
  C:463BH         LINE#         1117
  C:463EH         LINE#         1118
  -------         ENDPROC       _MODRTU_RDREG
  -------         PROC          _MODRTU_WRREG
  D:0025H         SYMBOL        buf
  D:0028H         SYMBOL        n
  -------         DO            
  D:0029H         SYMBOL        addr
  D:002BH         SYMBOL        i
  D:002DH         SYMBOL        j
  D:0004H         SYMBOL        crc
  D:002FH         SYMBOL        err_code
  D:0030H         SYMBOL        excode
  -------         ENDDO         
  C:434FH         LINE#         1126
  C:4357H         LINE#         1127
  C:4357H         LINE#         1130
  C:435AH         LINE#         1132
  C:4368H         LINE#         1133
  C:43A3H         LINE#         1134
  C:43B1H         LINE#         1135
  C:43C1H         LINE#         1136
  C:43C1H         LINE#         1137
  C:43EEH         LINE#         1138
  C:43EEH         LINE#         1139
  C:43F1H         LINE#         1140
  C:43F3H         LINE#         1141
  C:43F3H         LINE#         1142
  C:43FBH         LINE#         1143
  C:4405H         LINE#         1144
  C:4410H         LINE#         1145
  C:4415H         LINE#         1146
  C:4415H         LINE#         1147
  C:441AH         LINE#         1149
  C:441AH         LINE#         1150
  C:4429H         LINE#         1151
  C:4437H         LINE#         1152
  C:4442H         LINE#         1153
  C:4445H         LINE#         1154
  C:444CH         LINE#         1155
  C:444CH         LINE#         1156
  C:444EH         LINE#         1157
  C:4451H         LINE#         1158
  C:4451H         LINE#         1159
  -------         ENDPROC       _MODRTU_WRREG
  -------         PROC          _MODRTU_RLYERROR
  D:0032H         SYMBOL        buf
  D:0005H         SYMBOL        excode
  -------         DO            
  D:0004H         SYMBOL        crc
  -------         ENDDO         
  C:6456H         LINE#         1178
  C:645CH         LINE#         1179
  C:645CH         LINE#         1181
  C:646BH         LINE#         1182
BL51 BANKED LINKER/LOCATER V6.22                                                      08/24/2017  22:40:46  PAGE 76


  C:6478H         LINE#         1183
  C:647FH         LINE#         1184
  C:648CH         LINE#         1185
  C:6493H         LINE#         1186
  C:6498H         LINE#         1187
  -------         ENDPROC       _MODRTU_RLYERROR
  -------         PROC          _MODRTU_RXPROC
  D:0021H         SYMBOL        buf
  D:0024H         SYMBOL        n
  C:6622H         LINE#         1196
  C:662AH         LINE#         1197
  C:662AH         LINE#         1198
  C:6630H         LINE#         1200
  C:6644H         LINE#         1201
  C:6644H         LINE#         1202
  C:6647H         LINE#         1203
  C:6647H         LINE#         1204
  C:6652H         LINE#         1205
  C:6652H         LINE#         1206
  C:665DH         LINE#         1207
  C:665DH         LINE#         1208
  C:665DH         LINE#         1209
  -------         ENDPROC       _MODRTU_RXPROC
  -------         PROC          _CUSTOMPRO
  D:0021H         SYMBOL        buf
  D:0024H         SYMBOL        n
  -------         DO            
  D:0025H         SYMBOL        SfrPage_
  X:0C54H         SYMBOL        i
  -------         ENDDO         
  C:1E4DH         LINE#         1211
  C:1E55H         LINE#         1212
  C:1E55H         LINE#         1213
  C:1E58H         LINE#         1216
  C:1E61H         LINE#         1219
  C:1E89H         LINE#         1220
  C:1E89H         LINE#         1221
  C:1E89H         LINE#         1222
  C:1E8EH         LINE#         1223
  C:1E93H         LINE#         1224
  C:1E93H         LINE#         1225
  C:1EB7H         LINE#         1228
  C:1ED2H         LINE#         1229
  C:1EDCH         LINE#         1230
  C:1EEAH         LINE#         1231
  C:1EF1H         LINE#         1232
  C:1EF9H         LINE#         1233
  C:1F01H         LINE#         1234
  C:1F09H         LINE#         1235
  C:1F11H         LINE#         1236
  C:1F19H         LINE#         1237
  C:1F21H         LINE#         1238
  C:1F29H         LINE#         1239
  C:1F31H         LINE#         1240
  C:1F4EH         LINE#         1241
  C:1F6BH         LINE#         1242
  C:1F7EH         LINE#         1243
BL51 BANKED LINKER/LOCATER V6.22                                                      08/24/2017  22:40:46  PAGE 77


  C:1F91H         LINE#         1244
  C:1FAEH         LINE#         1245
  C:1FCBH         LINE#         1246
  C:1FDEH         LINE#         1247
  C:1FF1H         LINE#         1248
  C:201AH         LINE#         1249
  C:2022H         LINE#         1251
  C:2024H         LINE#         1252
  C:2024H         LINE#         1253
  C:2027H         LINE#         1254
  C:2027H         LINE#         1255
  C:2032H         LINE#         1256
  C:2037H         LINE#         1257
  C:2037H         LINE#         1258
  C:205BH         LINE#         1261
  C:2076H         LINE#         1262
  C:2080H         LINE#         1263
  C:208EH         LINE#         1264
  C:20A8H         LINE#         1265
  C:20A8H         LINE#         1266
  C:20C6H         LINE#         1267
  C:20DAH         LINE#         1268
  C:20E2H         LINE#         1269
  C:20E9H         LINE#         1270
  C:20FEH         LINE#         1271
  C:20FEH         LINE#         1273
  C:210CH         LINE#         1274
  C:210FH         LINE#         1275
  C:2111H         LINE#         1277
  C:2111H         LINE#         1278
  C:211EH         LINE#         1279
  C:211EH         LINE#         1280
  C:212CH         LINE#         1281
  C:2155H         LINE#         1282
  C:215DH         LINE#         1284
  C:215FH         LINE#         1285
  C:215FH         LINE#         1286
  C:2162H         LINE#         1287
  C:2162H         LINE#         1288
  C:216DH         LINE#         1289
  C:217CH         LINE#         1290
  C:217CH         LINE#         1291
  C:219CH         LINE#         1294
  C:21B1H         LINE#         1295
  C:21B9H         LINE#         1296
  C:21C7H         LINE#         1297
  C:21CEH         LINE#         1298
  C:21D6H         LINE#         1299
  C:21DBH         LINE#         1300
  C:21DBH         LINE#         1301
  C:21FEH         LINE#         1302
  C:2208H         LINE#         1303
  C:2218H         LINE#         1304
  C:2220H         LINE#         1305
  C:2225H         LINE#         1306
  C:2228H         LINE#         1307
  C:2228H         LINE#         1308
BL51 BANKED LINKER/LOCATER V6.22                                                      08/24/2017  22:40:46  PAGE 78


  C:2228H         LINE#         1309
  C:2233H         LINE#         1310
  C:2238H         LINE#         1311
  C:2238H         LINE#         1312
  C:225CH         LINE#         1315
  C:2277H         LINE#         1316
  C:2281H         LINE#         1317
  C:228FH         LINE#         1318
  C:2296H         LINE#         1319
  C:229EH         LINE#         1320
  C:2301H         LINE#         1321
  C:230EH         LINE#         1322
  C:2357H         LINE#         1323
  C:2357H         LINE#         1324
  C:2357H         LINE#         1325
  C:235CH         LINE#         1326
  C:235CH         LINE#         1327
  C:235EH         LINE#         1328
  C:235EH         LINE#         1329
  C:2364H         LINE#         1330
  C:236AH         LINE#         1331
  C:236CH         LINE#         1332
  C:236CH         LINE#         1333
  C:2372H         LINE#         1334
  C:2378H         LINE#         1335
  C:237AH         LINE#         1336
  C:237AH         LINE#         1337
  C:2380H         LINE#         1338
  C:2386H         LINE#         1339
  C:2388H         LINE#         1340
  C:2388H         LINE#         1341
  C:238EH         LINE#         1342
  C:2394H         LINE#         1343
  C:2396H         LINE#         1344
  C:2396H         LINE#         1345
  C:239CH         LINE#         1346
  C:23A2H         LINE#         1347
  C:23A4H         LINE#         1348
  C:23A4H         LINE#         1349
  C:23AAH         LINE#         1350
  C:23B0H         LINE#         1351
  C:23B2H         LINE#         1352
  C:23B2H         LINE#         1353
  C:23B8H         LINE#         1354
  C:23BEH         LINE#         1355
  C:23C0H         LINE#         1356
  C:23C0H         LINE#         1357
  C:23C6H         LINE#         1358
  C:23CCH         LINE#         1359
  C:23CEH         LINE#         1360
  C:23CEH         LINE#         1361
  C:23D4H         LINE#         1362
  C:23DFH         LINE#         1363
  C:23E1H         LINE#         1364
  C:23E1H         LINE#         1365
  C:23E7H         LINE#         1366
  C:23F4H         LINE#         1367
BL51 BANKED LINKER/LOCATER V6.22                                                      08/24/2017  22:40:46  PAGE 79


  C:23F4H         LINE#         1368
  C:23F4H         LINE#         1370
  C:2404H         LINE#         1371
  C:240CH         LINE#         1372
  C:2411H         LINE#         1373
  C:2414H         LINE#         1374
  C:241BH         LINE#         1375
  C:241EH         LINE#         1376
  C:2449H         LINE#         1377
  C:244CH         LINE#         1378
  C:244FH         LINE#         1379
  C:244FH         LINE#         1380
  C:244FH         LINE#         1381
  C:244FH         LINE#         1386
  C:244FH         LINE#         1387
  -------         ENDPROC       _CUSTOMPRO
  -------         ENDMOD        MODBUSRTU

  -------         MODULE        SEND
  C:0000H         SYMBOL        _ICE_DUMMY_
  C:33A5H         PUBLIC        SendSpeed
  D:00A0H         PUBLIC        P2
  X:0BA9H         PUBLIC        Braud_Num
  D:00A7H         PUBLIC        SFRPAGE
  C:401DH         PUBLIC        Send_TimeProc
  D:000EH         SYMBOL        px_ax
  D:0010H         SYMBOL        py_ax
  C:3859H         SYMBOL        _Send_CDeal
  C:3C83H         SYMBOL        _Send_RDeal
  C:2450H         SYMBOL        _Send_SDeal
  C:0003H         SYMBOL        _Send_TDeal
  C:5E0EH         SYMBOL        _Send_UDeal
  C:4452H         SYMBOL        _Send_WDeal
  D:00ACH         PUBLIC        SBRL0
  C:33B9H         PUBLIC        Braud
  -------         PROC          SEND_TIMEPROC
  -------         DO            
  X:0AE1H         SYMBOL        rx_buf
  D:0008H         SYMBOL        ptr
  D:000BH         SYMBOL        i
  D:000CH         SYMBOL        err
  D:000DH         SYMBOL        cmd
  -------         ENDDO         
  C:401DH         LINE#         40
  C:401DH         LINE#         41
  C:401DH         LINE#         48
  C:4023H         LINE#         50
  C:4025H         LINE#         51
  C:402EH         LINE#         52
  C:4031H         LINE#         53
  C:4031H         LINE#         54
  C:4047H         LINE#         55
  C:404DH         LINE#         56
  C:404DH         LINE#         57
  C:4056H         LINE#         59
  C:405DH         LINE#         60
  C:405DH         LINE#         62
BL51 BANKED LINKER/LOCATER V6.22                                                      08/24/2017  22:40:46  PAGE 80


  C:4066H         LINE#         63
  C:4066H         LINE#         64
  C:4066H         LINE#         65
  C:4068H         LINE#         68
  C:4068H         LINE#         70
  C:407BH         LINE#         71
  C:407BH         LINE#         72
  C:4087H         LINE#         73
  C:4087H         LINE#         74
  C:408AH         LINE#         75
  C:408AH         LINE#         77
  C:408DH         LINE#         79
  C:408DH         LINE#         81
  C:40ACH         LINE#         82
  C:40ACH         LINE#         84
  C:40B5H         LINE#         85
  C:40B5H         LINE#         86
  C:40BFH         LINE#         87
  C:40C0H         LINE#         90
  C:40C0H         LINE#         91
  C:40C6H         LINE#         92
  C:40DEH         LINE#         93
  C:40E6H         LINE#         94
  C:40F1H         LINE#         95
  C:40F1H         LINE#         96
  C:40F9H         LINE#         97
  C:4104H         LINE#         98
  C:4104H         LINE#         99
  C:410FH         LINE#         100
  C:410FH         LINE#         101
  C:411AH         LINE#         102
  C:411AH         LINE#         103
  C:4121H         LINE#         104
  C:412CH         LINE#         105
  C:412CH         LINE#         106
  C:4133H         LINE#         107
  C:413EH         LINE#         108
  C:413EH         LINE#         109
  C:413EH         LINE#         110
  -------         ENDPROC       SEND_TIMEPROC
  -------         PROC          _SEND_RDEAL
  D:0021H         SYMBOL        buf
  D:0024H         SYMBOL        n
  -------         DO            
  D:0025H         SYMBOL        data_8u
  -------         ENDDO         
  C:3C83H         LINE#         118
  C:3C8BH         LINE#         119
  C:3C8BH         LINE#         121
  C:3CA0H         LINE#         122
  C:3CA9H         LINE#         123
  C:3CACH         LINE#         124
  C:3CACH         LINE#         125
  C:3CC7H         LINE#         126
  C:3CD0H         LINE#         127
  C:3CD3H         LINE#         128
  C:3CD3H         LINE#         129
BL51 BANKED LINKER/LOCATER V6.22                                                      08/24/2017  22:40:46  PAGE 81


  C:3CEEH         LINE#         130
  C:3CF7H         LINE#         131
  C:3CFAH         LINE#         132
  C:3CFAH         LINE#         133
  C:3D15H         LINE#         134
  C:3D1EH         LINE#         135
  C:3D21H         LINE#         136
  C:3D21H         LINE#         137
  C:3D3CH         LINE#         138
  C:3D45H         LINE#         139
  C:3D48H         LINE#         140
  C:3D48H         LINE#         146
  C:3D63H         LINE#         147
  C:3D69H         LINE#         148
  C:3D79H         LINE#         149
  C:3D82H         LINE#         150
  C:3D87H         LINE#         151
  C:3D87H         LINE#         152
  C:3DA2H         LINE#         153
  C:3DA7H         LINE#         154
  C:3DB7H         LINE#         155
  C:3DC0H         LINE#         156
  C:3DC5H         LINE#         157
  C:3DC5H         LINE#         182
  C:3DC8H         LINE#         183
  -------         ENDPROC       _SEND_RDEAL
  -------         PROC          _SEND_CDEAL
  D:0021H         SYMBOL        buf
  D:0024H         SYMBOL        n
  C:3859H         LINE#         191
  C:3861H         LINE#         192
  C:3861H         LINE#         193
  C:3876H         LINE#         194
  C:387FH         LINE#         195
  C:388AH         LINE#         196
  C:3895H         LINE#         197
  C:389DH         LINE#         198
  C:389DH         LINE#         199
  C:38A0H         LINE#         200
  C:38BBH         LINE#         201
  C:38C4H         LINE#         202
  C:38CFH         LINE#         203
  C:38D2H         LINE#         204
  C:38DDH         LINE#         205
  C:38E8H         LINE#         206
  C:38E8H         LINE#         247
  C:3903H         LINE#         248
  C:390CH         LINE#         249
  C:3912H         LINE#         250
  C:391AH         LINE#         251
  C:391AH         LINE#         252
  C:391DH         LINE#         253
  C:391DH         LINE#         254
  C:3920H         LINE#         255
  C:393BH         LINE#         256
  C:3941H         LINE#         257
  C:3947H         LINE#         258
BL51 BANKED LINKER/LOCATER V6.22                                                      08/24/2017  22:40:46  PAGE 82


  C:394FH         LINE#         259
  C:394FH         LINE#         260
  C:3951H         LINE#         261
  C:3951H         LINE#         262
  C:3953H         LINE#         263
  C:396EH         LINE#         264
  C:3974H         LINE#         265
  C:397AH         LINE#         266
  C:3982H         LINE#         267
  C:3982H         LINE#         268
  C:3984H         LINE#         269
  C:3984H         LINE#         270
  C:3986H         LINE#         271
  C:39A1H         LINE#         272
  C:39A6H         LINE#         273
  C:39ACH         LINE#         274
  C:39B7H         LINE#         275
  C:39BAH         LINE#         276
  C:39BAH         LINE#         277
  C:39BDH         LINE#         278
  C:39BDH         LINE#         279
  -------         ENDPROC       _SEND_CDEAL
  -------         PROC          _SEND_SDEAL
  D:0021H         SYMBOL        buf
  D:0024H         SYMBOL        n
  -------         DO            
  D:0025H         SYMBOL        data_ram
  D:0026H         SYMBOL        data_8u
  D:0027H         SYMBOL        data_32s
  D:0007H         SYMBOL        i
  D:002BH         SYMBOL        SfrPage_
  -------         ENDDO         
  C:2450H         LINE#         287
  C:2458H         LINE#         288
  C:2458H         LINE#         291
  C:245BH         LINE#         293
  C:2470H         LINE#         294
  C:2479H         LINE#         295
  C:2484H         LINE#         296
  C:2487H         LINE#         297
  C:248DH         LINE#         298
  C:248EH         LINE#         299
  C:24A9H         LINE#         300
  C:24B2H         LINE#         301
  C:24BDH         LINE#         302
  C:24C0H         LINE#         303
  C:24C5H         LINE#         304
  C:24DCH         LINE#         305
  C:24DCH         LINE#         306
  C:24DFH         LINE#         307
  C:24DFH         LINE#         308
  C:24E0H         LINE#         309
  C:2507H         LINE#         310
  C:2510H         LINE#         311
  C:2529H         LINE#         312
  C:2529H         LINE#         313
  C:2529H         LINE#         314
BL51 BANKED LINKER/LOCATER V6.22                                                      08/24/2017  22:40:46  PAGE 83


  C:253DH         LINE#         316
  C:253DH         LINE#         317
  C:2542H         LINE#         318
  C:2547H         LINE#         319
  C:254AH         LINE#         320
  C:254CH         LINE#         322
  C:254CH         LINE#         323
  C:254FH         LINE#         324
  C:254FH         LINE#         325
  C:256CH         LINE#         326
  C:256DH         LINE#         327
  C:2582H         LINE#         328
  C:2585H         LINE#         329
  C:2585H         LINE#         330
  C:2585H         LINE#         331
  C:2588H         LINE#         332
  C:2591H         LINE#         334
  C:25ACH         LINE#         335
  C:25B5H         LINE#         336
  C:25C5H         LINE#         337
  C:25D6H         LINE#         338
  C:25DBH         LINE#         339
  C:25E3H         LINE#         340
  C:25E3H         LINE#         341
  C:25E6H         LINE#         342
  C:2601H         LINE#         343
  C:260AH         LINE#         344
  C:2610H         LINE#         345
  C:2616H         LINE#         346
  C:261EH         LINE#         347
  C:261EH         LINE#         348
  C:2621H         LINE#         349
  C:263CH         LINE#         350
  C:2645H         LINE#         351
  C:264BH         LINE#         352
  C:2651H         LINE#         353
  C:2659H         LINE#         354
  C:2659H         LINE#         355
  C:265CH         LINE#         356
  C:2677H         LINE#         357
  C:2680H         LINE#         358
  C:269EH         LINE#         359
  C:26A9H         LINE#         360
  C:26ACH         LINE#         361
  C:26B7H         LINE#         362
  C:26B7H         LINE#         363
  C:26D2H         LINE#         364
  C:26DBH         LINE#         365
  C:26F9H         LINE#         366
  C:2704H         LINE#         367
  C:2707H         LINE#         368
  C:2712H         LINE#         369
  C:2712H         LINE#         379
  C:272DH         LINE#         380
  C:2736H         LINE#         381
  C:2746H         LINE#         382
  C:275AH         LINE#         383
BL51 BANKED LINKER/LOCATER V6.22                                                      08/24/2017  22:40:46  PAGE 84


  C:275FH         LINE#         384
  C:2767H         LINE#         385
  C:2767H         LINE#         386
  C:276AH         LINE#         387
  C:2785H         LINE#         388
  C:278EH         LINE#         389
  C:279EH         LINE#         390
  C:27B2H         LINE#         391
  C:27B7H         LINE#         392
  C:27BFH         LINE#         393
  C:27BFH         LINE#         394
  C:27C2H         LINE#         451
  C:27DDH         LINE#         452
  C:27E6H         LINE#         453
  C:2824H         LINE#         454
  C:2824H         LINE#         455
  C:2827H         LINE#         456
  C:2842H         LINE#         457
  C:284BH         LINE#         459
  C:2887H         LINE#         460
  C:2887H         LINE#         461
  C:288AH         LINE#         462
  C:28A5H         LINE#         463
  C:28AEH         LINE#         464
  C:28C5H         LINE#         465
  C:28CDH         LINE#         466
  C:28CDH         LINE#         467
  C:28D0H         LINE#         470
  C:28EBH         LINE#         471
  C:28F4H         LINE#         472
  C:28FFH         LINE#         473
  C:2902H         LINE#         474
  C:2909H         LINE#         475
  C:290CH         LINE#         476
  C:290CH         LINE#         477
  C:2927H         LINE#         478
  C:2927H         LINE#         479
  C:2930H         LINE#         480
  C:2940H         LINE#         481
  C:2948H         LINE#         482
  C:294EH         LINE#         483
  C:2953H         LINE#         484
  C:2956H         LINE#         485
  C:295DH         LINE#         486
  C:2960H         LINE#         487
  C:298FH         LINE#         488
  C:2992H         LINE#         489
  C:2993H         LINE#         490
  C:29AEH         LINE#         491
  C:29AEH         LINE#         492
  C:29B4H         LINE#         493
  C:29C4H         LINE#         494
  C:29CCH         LINE#         495
  C:29D2H         LINE#         496
  C:29DDH         LINE#         497
  C:29E0H         LINE#         498
  C:29E0H         LINE#         499
BL51 BANKED LINKER/LOCATER V6.22                                                      08/24/2017  22:40:46  PAGE 85


  -------         ENDPROC       _SEND_SDEAL
  -------         PROC          _SEND_WDEAL
  D:0021H         SYMBOL        buf
  D:0024H         SYMBOL        n
  -------         DO            
  D:0025H         SYMBOL        data_x
  D:0027H         SYMBOL        data_y
  D:0029H         SYMBOL        data_t
  -------         ENDDO         
  C:4452H         LINE#         507
  C:445AH         LINE#         508
  C:445AH         LINE#         511
  C:4472H         LINE#         512
  C:447BH         LINE#         513
  C:4499H         LINE#         514
  C:44B6H         LINE#         515
  C:44D3H         LINE#         516
  C:44F5H         LINE#         517
  C:44FDH         LINE#         518
  C:44FFH         LINE#         520
  C:44FFH         LINE#         521
  C:44FFH         LINE#         522
  C:4501H         LINE#         523
  C:451CH         LINE#         524
  C:4522H         LINE#         525
  C:4525H         LINE#         527
  C:4525H         LINE#         528
  C:4543H         LINE#         529
  C:454EH         LINE#         530
  C:4551H         LINE#         531
  C:4551H         LINE#         532
  -------         ENDPROC       _SEND_WDEAL
  -------         PROC          _SEND_UDEAL
  D:0021H         SYMBOL        buf
  D:0024H         SYMBOL        n
  C:5E0EH         LINE#         540
  C:5E16H         LINE#         541
  C:5E16H         LINE#         542
  C:5E2BH         LINE#         543
  C:5E2BH         LINE#         545
  C:5E31H         LINE#         546
  C:5E34H         LINE#         547
  C:5E3CH         LINE#         548
  C:5E3CH         LINE#         550
  C:5E3EH         LINE#         551
  C:5E59H         LINE#         552
  C:5E59H         LINE#         553
  C:5E5EH         LINE#         554
  C:5E61H         LINE#         555
  C:5E6CH         LINE#         556
  C:5E6FH         LINE#         557
  C:5E6FH         LINE#         559
  C:5E72H         LINE#         560
  -------         ENDPROC       _SEND_UDEAL
  -------         PROC          _SEND_TDEAL
  D:0001H         SYMBOL        buf
  D:0021H         SYMBOL        n
BL51 BANKED LINKER/LOCATER V6.22                                                      08/24/2017  22:40:46  PAGE 86


  C:0003H         LINE#         571
  C:0005H         LINE#         572
  C:0005H         LINE#         573
  C:001AH         LINE#         574
  C:001FH         LINE#         575
  C:0022H         LINE#         576
  C:0022H         LINE#         577
  -------         ENDPROC       _SEND_TDEAL
  -------         ENDMOD        SEND

  -------         MODULE        SENSOR
  C:0000H         SYMBOL        _ICE_DUMMY_
  D:00A0H         PUBLIC        P2
  C:6DE0H         PUBLIC        _SnXFilter
  C:6DF2H         PUBLIC        _SnYFilter
  D:00E8H         PUBLIC        ADC0CN
  C:4C27H         SYMBOL        _GetOffset
  C:7111H         PUBLIC        GetXAng
  C:7118H         PUBLIC        GetYAng
  C:56A9H         SYMBOL        _SnFilter
  C:6BABH         PUBLIC        SnXDataInit
  C:6BC6H         PUBLIC        SnYDataInit
  C:715BH         PUBLIC        GetFilterCnt
  C:5BA2H         SYMBOL        _Sn_DataInit
  C:7161H         PUBLIC        _SetFilterCnt
  C:6E96H         PUBLIC        Get_McuTemp
  C:707DH         PUBLIC        GetXOftVal
  C:7086H         PUBLIC        GetYOftVal
  X:0BAAH         SYMBOL        filtercnt
  X:0BABH         PUBLIC        accel_x
  C:5022H         SYMBOL        _GetAngCalcVal
  X:0BCBH         PUBLIC        accel_y
  C:5382H         PUBLIC        SnProc
  C:5AC7H         PUBLIC        SnInit
  C:706BH         PUBLIC        GetXFtVal
  C:7074H         PUBLIC        GetYFtVal
  C:7059H         PUBLIC        AngXCalc
  C:709FH         PUBLIC        _GetXOffset
  C:7062H         PUBLIC        AngYCalc
  C:70A7H         PUBLIC        _GetYOffset
  C:4E32H         SYMBOL        _Ang_Calc
  -------         PROC          _SN_DATAINIT
  D:0021H         SYMBOL        p_sn
  D:0024H         SYMBOL        p_tempcal
  D:0027H         SYMBOL        p_angcal
  C:5BA2H         LINE#         31
  C:5BA8H         LINE#         32
  C:5BA8H         LINE#         33
  C:5BAEH         LINE#         34
  C:5BBDH         LINE#         35
  C:5BC7H         LINE#         36
  C:5BD0H         LINE#         37
  C:5BDAH         LINE#         38
  C:5BF2H         LINE#         39
  C:5C0AH         LINE#         40
  -------         ENDPROC       _SN_DATAINIT
  -------         PROC          _SNFILTER
BL51 BANKED LINKER/LOCATER V6.22                                                      08/24/2017  22:40:46  PAGE 87


  D:0021H         SYMBOL        p_sn
  D:0024H         SYMBOL        val
  D:0026H         SYMBOL        ftcnt
  C:56A9H         LINE#         49
  C:56B3H         LINE#         50
  C:56B3H         LINE#         51
  C:56CCH         LINE#         52
  C:56CCH         LINE#         53
  C:56EAH         LINE#         55
  C:5708H         LINE#         57
  C:570AH         LINE#         59
  C:5715H         LINE#         60
  -------         ENDPROC       _SNFILTER
  -------         PROC          L?0047
  -------         ENDPROC       L?0047
  -------         PROC          _GETOFFSET
  D:0021H         SYMBOL        p_sn
  D:0024H         SYMBOL        temp
  -------         DO            
  D:0026H         SYMBOL        i
  D:0004H         SYMBOL        offset
  -------         ENDDO         
  C:4C27H         LINE#         70
  C:4C31H         LINE#         71
  C:4C31H         LINE#         75
  C:4C4CH         LINE#         76
  C:4C4CH         LINE#         77
  C:4C7EH         LINE#         78
  C:4C7EH         LINE#         79
  C:4C82H         LINE#         80
  C:4CD4H         LINE#         82
  C:4CD7H         LINE#         83
  -------         ENDPROC       _GETOFFSET
  -------         PROC          _GETANGCALCVAL
  D:0028H         SYMBOL        p_sn
  D:002BH         SYMBOL        val
  -------         DO            
  D:002DH         SYMBOL        i
  D:0004H         SYMBOL        tmp
  -------         ENDDO         
  C:5022H         LINE#         92
  C:502CH         LINE#         93
  C:502CH         LINE#         97
  C:5047H         LINE#         98
  C:5047H         LINE#         99
  C:506CH         LINE#         100
  C:506CH         LINE#         101
  C:5070H         LINE#         102
  C:50C2H         LINE#         103
  C:50C2H         LINE#         104
  -------         ENDPROC       _GETANGCALCVAL
  -------         PROC          _ANG_CALC
  D:0021H         SYMBOL        p_sn
  -------         DO            
  D:0024H         SYMBOL        ang
  -------         ENDDO         
  C:4E32H         LINE#         113
BL51 BANKED LINKER/LOCATER V6.22                                                      08/24/2017  22:40:46  PAGE 88


  C:4E38H         LINE#         114
  C:4E38H         LINE#         116
  C:4E4CH         LINE#         117
  C:4E60H         LINE#         118
  C:4E71H         LINE#         119
  C:4E87H         LINE#         120
  C:4E98H         LINE#         122
  C:4E98H         LINE#         123
  C:4EABH         LINE#         124
  C:4EC9H         LINE#         125
  C:4ED8H         LINE#         126
  C:4ED8H         LINE#         127
  -------         ENDPROC       _ANG_CALC
  -------         PROC          SNXDATAINIT
  C:6BABH         LINE#         133
  C:6BABH         LINE#         134
  C:6BABH         LINE#         135
  -------         ENDPROC       SNXDATAINIT
  -------         PROC          SNYDATAINIT
  C:6BC6H         LINE#         137
  C:6BC6H         LINE#         138
  C:6BC6H         LINE#         139
  -------         ENDPROC       SNYDATAINIT
  -------         PROC          _SNXFILTER
  D:0006H         SYMBOL        val
  D:0082H         SYMBOL        ftcnt
  C:6DE0H         LINE#         141
  C:6DE2H         LINE#         142
  C:6DE2H         LINE#         143
  -------         ENDPROC       _SNXFILTER
  -------         PROC          _SNYFILTER
  D:0006H         SYMBOL        val
  D:0082H         SYMBOL        ftcnt
  C:6DF2H         LINE#         145
  C:6DF4H         LINE#         146
  C:6DF4H         LINE#         147
  -------         ENDPROC       _SNYFILTER
  -------         PROC          _GETXOFFSET
  D:0004H         SYMBOL        temp
  C:709FH         LINE#         149
  C:709FH         LINE#         150
  C:709FH         LINE#         151
  C:70A6H         LINE#         152
  -------         ENDPROC       _GETXOFFSET
  -------         PROC          _GETYOFFSET
  D:0004H         SYMBOL        temp
  C:70A7H         LINE#         153
  C:70A7H         LINE#         154
  C:70A7H         LINE#         155
  C:70AEH         LINE#         156
  -------         ENDPROC       _GETYOFFSET
  -------         PROC          ANGXCALC
  C:7059H         LINE#         157
  C:7059H         LINE#         158
  C:7059H         LINE#         159
  -------         ENDPROC       ANGXCALC
  -------         PROC          ANGYCALC
BL51 BANKED LINKER/LOCATER V6.22                                                      08/24/2017  22:40:46  PAGE 89


  C:7062H         LINE#         161
  C:7062H         LINE#         162
  C:7062H         LINE#         163
  -------         ENDPROC       ANGYCALC
  -------         PROC          SNINIT
  C:5AC7H         LINE#         172
  C:5AC7H         LINE#         173
  C:5AC7H         LINE#         174
  C:5ACAH         LINE#         175
  C:5ACFH         LINE#         176
  C:5ADBH         LINE#         177
  C:5AE5H         LINE#         178
  C:5AEFH         LINE#         179
  C:5AF9H         LINE#         180
  C:5B02H         LINE#         182
  C:5B0EH         LINE#         183
  C:5B18H         LINE#         184
  C:5B22H         LINE#         185
  C:5B2CH         LINE#         186
  -------         ENDPROC       SNINIT
  -------         PROC          SNPROC
  C:5382H         LINE#         196
  C:5382H         LINE#         197
  C:5382H         LINE#         198
  C:5382H         LINE#         199
  C:538AH         LINE#         201
  C:538EH         LINE#         203
  C:5397H         LINE#         204
  C:5397H         LINE#         205
  C:5397H         LINE#         206
  C:53A2H         LINE#         207
  C:53A9H         LINE#         208
  C:53C9H         LINE#         210
  C:53CCH         LINE#         211
  C:53CEH         LINE#         213
  C:53CEH         LINE#         214
  C:53D9H         LINE#         215
  C:53E0H         LINE#         216
  C:5400H         LINE#         218
  C:5409H         LINE#         219
  C:5409H         LINE#         220
  C:5409H         LINE#         221
  C:5409H         LINE#         222
  C:540CH         LINE#         223
  C:540CH         LINE#         224
  -------         ENDPROC       SNPROC
  -------         PROC          GETFILTERCNT
  C:715BH         LINE#         233
  C:715BH         LINE#         234
  C:715BH         LINE#         235
  C:7160H         LINE#         236
  -------         ENDPROC       GETFILTERCNT
  -------         PROC          _SETFILTERCNT
  D:0007H         SYMBOL        cnt
  C:7161H         LINE#         244
  C:7161H         LINE#         245
  C:7161H         LINE#         246
BL51 BANKED LINKER/LOCATER V6.22                                                      08/24/2017  22:40:46  PAGE 90


  C:7166H         LINE#         247
  -------         ENDPROC       _SETFILTERCNT
  -------         PROC          L?0046
  -------         ENDPROC       L?0046
  -------         PROC          GET_MCUTEMP
  C:6E96H         LINE#         256
  C:6E96H         LINE#         257
  C:6E96H         LINE#         261
  C:6E99H         LINE#         262
  -------         ENDPROC       GET_MCUTEMP
  -------         PROC          GETXFTVAL
  C:706BH         LINE#         271
  C:706BH         LINE#         272
  C:706BH         LINE#         273
  C:7073H         LINE#         274
  -------         ENDPROC       GETXFTVAL
  -------         PROC          GETYFTVAL
  C:7074H         LINE#         283
  C:7074H         LINE#         284
  C:7074H         LINE#         285
  C:707CH         LINE#         286
  -------         ENDPROC       GETYFTVAL
  -------         PROC          GETXOFTVAL
  C:707DH         LINE#         295
  C:707DH         LINE#         296
  C:707DH         LINE#         297
  C:7085H         LINE#         298
  -------         ENDPROC       GETXOFTVAL
  -------         PROC          GETYOFTVAL
  C:7086H         LINE#         307
  C:7086H         LINE#         308
  C:7086H         LINE#         309
  C:708EH         LINE#         310
  -------         ENDPROC       GETYOFTVAL
  -------         PROC          GETXANG
  C:7111H         LINE#         319
  C:7111H         LINE#         320
  C:7111H         LINE#         321
  C:7117H         LINE#         322
  -------         ENDPROC       GETXANG
  -------         PROC          GETYANG
  C:7118H         LINE#         331
  C:7118H         LINE#         332
  C:7118H         LINE#         333
  C:711EH         LINE#         334
  -------         ENDPROC       GETYANG
  -------         ENDMOD        SENSOR

  -------         MODULE        SUB
  C:0000H         SYMBOL        _ICE_DUMMY_
  C:3B21H         PUBLIC        _Sub_Int32s2Str
  C:33E1H         PUBLIC        _Sub_Str2Int32s
  C:6A8EH         PUBLIC        _Sub_Int16s2Str
  C:5FE5H         PUBLIC        _Sub_Str2Int16s
  D:00A0H         PUBLIC        P2
  C:4CD8H         PUBLIC        _Sub_Int16u2Str
  C:4B62H         PUBLIC        _Sub_Str2Int16u
BL51 BANKED LINKER/LOCATER V6.22                                                      08/24/2017  22:40:46  PAGE 91


  C:6CFCH         PUBLIC        _Comm_PutInt8u
  C:6FE7H         PUBLIC        Sub_SysRst
  C:6EFBH         PUBLIC        Comm_PutNewLineSta
  D:00A7H         PUBLIC        SFRPAGE
  C:6C14H         PUBLIC        Sub_SendSysNum
  C:68ACH         PUBLIC        _Sub_SendMcuT
  C:6097H         PUBLIC        Sub_SendTCalTest
  C:649BH         PUBLIC        _Sub_SendAdcTXY
  C:6DBAH         PUBLIC        _Comm_PutInt32s
  C:6949H         PUBLIC        _Comm_PutInt16s
  C:6744H         PUBLIC        Sub_SendAngXYP
  C:6C45H         PUBLIC        _Comm_PutInt16u
  C:4A9EH         PUBLIC        _Sub_SendTempCal
  C:6ED2H         PUBLIC        Sub_SendErr
  C:6AF2H         PUBLIC        _Sub_Str2Int8s
  C:6EC4H         PUBLIC        Sub_SendOk
  C:6B13H         PUBLIC        _Sub_Int8u2Str
  C:665EH         PUBLIC        _Sub_Str2Int8u
  C:5C0BH         PUBLIC        _Sub_BufBubble32s
  C:5B35H         PUBLIC        _Sub_BufBubble16s
  C:588EH         PUBLIC        _Sub_BufBubble16u
  C:57A1H         PUBLIC        Sub_SendPrmtAll
  C:632BH         PUBLIC        _Sub_16SBufSwitch
  C:69FEH         PUBLIC        Sub_SendAngXY
  D:00EFH         PUBLIC        RSTSRC
  C:6EE0H         PUBLIC        Sub_SendSoftVer
  C:5903H         PUBLIC        _Sub_SendMcuTempCal
  C:619CH         PUBLIC        _Sub_SBufSwitch
  C:6377H         PUBLIC        _Sub_UBufSwitch
  -------         PROC          _COMM_PUTINT32S
  D:0004H         SYMBOL        val
  C:6DBAH         LINE#         26
  C:6DBAH         LINE#         27
  C:6DBAH         LINE#         28
  C:6DC3H         LINE#         29
  -------         ENDPROC       _COMM_PUTINT32S
  C:6937H         SYMBOL        L?0093
  -------         PROC          L?0092
  -------         ENDPROC       L?0092
  C:6937H         SYMBOL        L?0093
  -------         PROC          _COMM_PUTINT16S
  D:0004H         SYMBOL        val
  C:6949H         LINE#         39
  C:694DH         LINE#         40
  C:694DH         LINE#         41
  C:6956H         LINE#         42
  -------         ENDPROC       _COMM_PUTINT16S
  -------         PROC          _COMM_PUTINT16U
  D:0004H         SYMBOL        val
  C:6C45H         LINE#         51
  C:6C49H         LINE#         52
  C:6C49H         LINE#         53
  C:6C52H         LINE#         54
  -------         ENDPROC       _COMM_PUTINT16U
  -------         PROC          _COMM_PUTINT8U
  D:0005H         SYMBOL        val
  C:6CFCH         LINE#         63
BL51 BANKED LINKER/LOCATER V6.22                                                      08/24/2017  22:40:46  PAGE 92


  C:6CFEH         LINE#         64
  C:6CFEH         LINE#         65
  C:6D07H         LINE#         66
  -------         ENDPROC       _COMM_PUTINT8U
  -------         PROC          COMM_PUTNEWLINESTA
  C:6EFBH         LINE#         76
  C:6EFBH         LINE#         77
  C:6EFBH         LINE#         78
  C:6F00H         LINE#         79
  C:6F05H         LINE#         80
  -------         ENDPROC       COMM_PUTNEWLINESTA
  -------         PROC          SUB_SENDOK
  -------         DO            
  D:0001H         SYMBOL        str
  -------         ENDDO         
  C:6EC4H         LINE#         89
  C:6EC4H         LINE#         90
  C:6EC4H         LINE#         91
  C:6ECAH         LINE#         92
  C:6ECFH         LINE#         93
  -------         ENDPROC       SUB_SENDOK
  -------         PROC          SUB_SENDERR
  -------         DO            
  D:0001H         SYMBOL        str
  -------         ENDDO         
  C:6ED2H         LINE#         97
  C:6ED2H         LINE#         98
  C:6ED8H         LINE#         101
  C:6EDDH         LINE#         102
  -------         ENDPROC       SUB_SENDERR
  -------         PROC          SUB_SENDANGXY
  C:69FEH         LINE#         106
  C:69FEH         LINE#         107
  C:69FEH         LINE#         108
  C:6A09H         LINE#         109
  C:6A0FH         LINE#         110
  C:6A1AH         LINE#         111
  C:6A20H         LINE#         112
  -------         ENDPROC       SUB_SENDANGXY
  -------         PROC          SUB_SENDANGXYP
  C:6744H         LINE#         115
  C:6744H         LINE#         116
  C:6744H         LINE#         117
  C:674FH         LINE#         118
  C:6755H         LINE#         120
  C:6760H         LINE#         121
  C:6766H         LINE#         123
  C:6771H         LINE#         124
  C:6777H         LINE#         125
  -------         ENDPROC       SUB_SENDANGXYP
  -------         PROC          _SUB_SENDADCTXY
  D:0033H         SYMBOL        temp
  D:0035H         SYMBOL        x
  D:0037H         SYMBOL        y
  C:649BH         LINE#         129
  C:64A7H         LINE#         130
  C:64A7H         LINE#         131
BL51 BANKED LINKER/LOCATER V6.22                                                      08/24/2017  22:40:46  PAGE 93


  C:64B9H         LINE#         132
  C:64CBH         LINE#         133
  C:64DDH         LINE#         134
  -------         ENDPROC       _SUB_SENDADCTXY
  -------         PROC          _SUB_SENDMCUT
  D:0030H         SYMBOL        temp
  D:0032H         SYMBOL        tadc
  C:68ACH         LINE#         136
  C:68B4H         LINE#         137
  C:68B4H         LINE#         138
  C:68C6H         LINE#         139
  C:68D8H         LINE#         140
  -------         ENDPROC       _SUB_SENDMCUT
  -------         PROC          SUB_SENDPRMTALL
  C:57A1H         LINE#         143
  C:57A1H         LINE#         144
  C:57A1H         LINE#         145
  C:57B6H         LINE#         146
  C:57C7H         LINE#         148
  C:57D2H         LINE#         149
  C:57DDH         LINE#         151
  C:57EEH         LINE#         153
  C:57F9H         LINE#         154
  C:5804H         LINE#         156
  C:5815H         LINE#         158
  -------         ENDPROC       SUB_SENDPRMTALL
  -------         PROC          _SUB_SENDTEMPCAL
  D:0026H         SYMBOL        i
  C:4A9EH         LINE#         182
  C:4AA0H         LINE#         183
  C:4AA0H         LINE#         184
  C:4AB0H         LINE#         185
  C:4ABDH         LINE#         187
  C:4AD0H         LINE#         188
  C:4AE3H         LINE#         190
  C:4AFEH         LINE#         191
  C:4B21H         LINE#         192
  C:4B3CH         LINE#         193
  C:4B5FH         LINE#         195
  -------         ENDPROC       _SUB_SENDTEMPCAL
  -------         PROC          _SUB_SENDMCUTEMPCAL
  D:0026H         SYMBOL        i
  C:5903H         LINE#         198
  C:5905H         LINE#         199
  C:5905H         LINE#         200
  C:5915H         LINE#         201
  C:5922H         LINE#         203
  C:5935H         LINE#         206
  C:5950H         LINE#         207
  C:5973H         LINE#         210
  -------         ENDPROC       _SUB_SENDMCUTEMPCAL
  -------         PROC          SUB_SENDSOFTVER
  C:6EE0H         LINE#         231
  C:6EE0H         LINE#         232
  C:6EE0H         LINE#         233
  C:6EEBH         LINE#         234
  -------         ENDPROC       SUB_SENDSOFTVER
BL51 BANKED LINKER/LOCATER V6.22                                                      08/24/2017  22:40:46  PAGE 94


  -------         PROC          SUB_SENDSYSNUM
  C:6C14H         LINE#         238
  C:6C14H         LINE#         239
  C:6C14H         LINE#         240
  C:6C1FH         LINE#         241
  C:6C2AH         LINE#         242
  -------         ENDPROC       SUB_SENDSYSNUM
  -------         PROC          SUB_SENDTCALTEST
  -------         DO            
  D:0022H         SYMBOL        TempX
  D:0024H         SYMBOL        TempY
  -------         ENDDO         
  C:6097H         LINE#         246
  C:6097H         LINE#         247
  C:6097H         LINE#         251
  C:60ABH         LINE#         252
  C:60BFH         LINE#         254
  C:60CFH         LINE#         255
  C:60DBH         LINE#         256
  C:60E2H         LINE#         257
  C:60E5H         LINE#         260
  -------         ENDPROC       SUB_SENDTCALTEST
  -------         PROC          _SUB_STR2INT32S
  D:002CH         SYMBOL        val
  D:002FH         SYMBOL        str
  -------         DO            
  D:0032H         SYMBOL        temp
  -------         ENDDO         
  C:33E1H         LINE#         269
  C:33E7H         LINE#         270
  C:33E7H         LINE#         273
  C:3402H         LINE#         274
  C:3417H         LINE#         275
  C:3424H         LINE#         276
  C:3439H         LINE#         277
  C:344EH         LINE#         278
  C:3463H         LINE#         279
  C:353BH         LINE#         280
  C:3547H         LINE#         281
  C:3547H         LINE#         282
  C:3549H         LINE#         283
  C:3549H         LINE#         284
  C:3555H         LINE#         285
  C:3569H         LINE#         286
  C:356CH         LINE#         287
  C:356CH         LINE#         288
  C:356EH         LINE#         289
  -------         ENDPROC       _SUB_STR2INT32S
  -------         PROC          _SUB_STR2INT16S
  D:002BH         SYMBOL        val
  D:002EH         SYMBOL        str
  -------         DO            
  D:0031H         SYMBOL        temp
  -------         ENDDO         
  C:5FE5H         LINE#         291
  C:5FEBH         LINE#         292
  C:5FEBH         LINE#         293
BL51 BANKED LINKER/LOCATER V6.22                                                      08/24/2017  22:40:46  PAGE 95


  C:6008H         LINE#         295
  C:6015H         LINE#         296
  C:6020H         LINE#         297
  C:6022H         LINE#         298
  C:6022H         LINE#         299
  C:6026H         LINE#         300
  C:6039H         LINE#         301
  C:603CH         LINE#         302
  C:603CH         LINE#         303
  C:603EH         LINE#         304
  -------         ENDPROC       _SUB_STR2INT16S
  -------         PROC          _SUB_STR2INT16U
  D:0033H         SYMBOL        val
  D:0036H         SYMBOL        str
  -------         DO            
  D:0007H         SYMBOL        i
  -------         ENDDO         
  C:4B62H         LINE#         306
  C:4B68H         LINE#         307
  C:4B68H         LINE#         310
  C:4B6AH         LINE#         311
  C:4B84H         LINE#         312
  C:4B87H         LINE#         313
  C:4B8BH         LINE#         314
  C:4C1EH         LINE#         315
  C:4C20H         LINE#         316
  -------         ENDPROC       _SUB_STR2INT16U
  -------         PROC          _SUB_STR2INT8U
  D:0001H         SYMBOL        str
  -------         DO            
  D:0007H         SYMBOL        val
  -------         ENDDO         
  C:665EH         LINE#         318
  C:665EH         LINE#         319
  C:665EH         LINE#         321
  C:6670H         LINE#         322
  C:6685H         LINE#         323
  C:6699H         LINE#         324
  C:6699H         LINE#         325
  -------         ENDPROC       _SUB_STR2INT8U
  -------         PROC          _SUB_STR2INT8S
  D:002CH         SYMBOL        str
  -------         DO            
  D:0007H         SYMBOL        temp
  -------         ENDDO         
  C:6AF2H         LINE#         326
  C:6AF8H         LINE#         327
  C:6AF8H         LINE#         329
  C:6B02H         LINE#         331
  C:6B0EH         LINE#         332
  C:6B0EH         LINE#         333
  C:6B12H         LINE#         334
  C:6B12H         LINE#         335
  C:6B12H         LINE#         336
  -------         ENDPROC       _SUB_STR2INT8S
  -------         PROC          _SUB_INT32S2STR
  D:002CH         SYMBOL        s
BL51 BANKED LINKER/LOCATER V6.22                                                      08/24/2017  22:40:46  PAGE 96


  D:002FH         SYMBOL        val
  C:3B21H         LINE#         338
  C:3B2FH         LINE#         339
  C:3B2FH         LINE#         340
  C:3B33H         LINE#         341
  C:3B33H         LINE#         342
  C:3B3EH         LINE#         343
  C:3B40H         LINE#         344
  C:3B42H         LINE#         346
  C:3B42H         LINE#         347
  C:3B4DH         LINE#         348
  C:3B4DH         LINE#         349
  C:3B7EH         LINE#         351
  C:3B9FH         LINE#         352
  C:3BC1H         LINE#         353
  C:3BDAH         LINE#         354
  C:3BFCH         LINE#         355
  C:3C0AH         LINE#         356
  C:3C2AH         LINE#         357
  C:3C4BH         LINE#         358
  C:3C63H         LINE#         359
  -------         ENDPROC       _SUB_INT32S2STR
  -------         PROC          _SUB_INT16S2STR
  D:0001H         SYMBOL        s
  D:0004H         SYMBOL        val
  C:6A8EH         LINE#         362
  C:6A8EH         LINE#         363
  C:6A8EH         LINE#         364
  C:6A96H         LINE#         365
  C:6A9DH         LINE#         366
  C:6A9FH         LINE#         367
  C:6AA1H         LINE#         369
  C:6AA6H         LINE#         370
  C:6AA6H         LINE#         371
  -------         ENDPROC       _SUB_INT16S2STR
  -------         PROC          _SUB_INT16U2STR
  D:0039H         SYMBOL        s
  D:003CH         SYMBOL        val
  C:4CD8H         LINE#         374
  C:4CE2H         LINE#         375
  C:4CE2H         LINE#         376
  C:4CF3H         LINE#         377
  C:4D02H         LINE#         378
  C:4D1CH         LINE#         379
  C:4D2BH         LINE#         380
  C:4D45H         LINE#         381
  C:4D54H         LINE#         382
  C:4D6EH         LINE#         383
  -------         ENDPROC       _SUB_INT16U2STR
  -------         PROC          _SUB_INT8U2STR
  D:0001H         SYMBOL        s
  D:0005H         SYMBOL        val
  C:6B13H         LINE#         386
  C:6B13H         LINE#         387
  C:6B13H         LINE#         388
  C:6B1AH         LINE#         389
  C:6B24H         LINE#         390
BL51 BANKED LINKER/LOCATER V6.22                                                      08/24/2017  22:40:46  PAGE 97


  -------         ENDPROC       _SUB_INT8U2STR
  -------         PROC          _SUB_SBUFSWITCH
  D:002CH         SYMBOL        buf
  D:002FH         SYMBOL        i
  D:0030H         SYMBOL        j
  -------         DO            
  D:0031H         SYMBOL        temp
  -------         ENDDO         
  C:619CH         LINE#         400
  C:61A4H         LINE#         401
  C:61A4H         LINE#         404
  C:61BAH         LINE#         405
  C:61D6H         LINE#         406
  -------         ENDPROC       _SUB_SBUFSWITCH
  -------         PROC          _SUB_16SBUFSWITCH
  D:003DH         SYMBOL        buf
  D:0005H         SYMBOL        i
  D:0041H         SYMBOL        j
  -------         DO            
  D:0042H         SYMBOL        temp
  -------         ENDDO         
  C:632BH         LINE#         410
  C:6331H         LINE#         411
  C:6331H         LINE#         414
  C:6343H         LINE#         415
  C:6364H         LINE#         416
  -------         ENDPROC       _SUB_16SBUFSWITCH
  -------         PROC          _SUB_UBUFSWITCH
  D:003DH         SYMBOL        buf
  D:0005H         SYMBOL        i
  D:0041H         SYMBOL        j
  -------         DO            
  D:0042H         SYMBOL        temp
  -------         ENDDO         
  C:6377H         LINE#         420
  C:637DH         LINE#         421
  C:637DH         LINE#         424
  C:638FH         LINE#         425
  C:63B0H         LINE#         426
  -------         ENDPROC       _SUB_UBUFSWITCH
  -------         PROC          _SUB_BUFBUBBLE32S
  D:0023H         SYMBOL        id
  D:0026H         SYMBOL        x
  D:0029H         SYMBOL        n
  -------         DO            
  D:002AH         SYMBOL        i
  D:002BH         SYMBOL        j
  -------         ENDDO         
  C:5C0BH         LINE#         429
  C:5C11H         LINE#         430
  C:5C11H         LINE#         433
  C:5C1BH         LINE#         434
  C:5C27H         LINE#         435
  C:5C4FH         LINE#         436
  C:5C5DH         LINE#         437
  C:5C6BH         LINE#         438
  C:5C6BH         LINE#         439
BL51 BANKED LINKER/LOCATER V6.22                                                      08/24/2017  22:40:46  PAGE 98


  C:5C6FH         LINE#         440
  C:5C73H         LINE#         441
  -------         ENDPROC       _SUB_BUFBUBBLE32S
  -------         PROC          _SUB_BUFBUBBLE16S
  D:0025H         SYMBOL        id
  D:0028H         SYMBOL        x
  D:002BH         SYMBOL        n
  -------         DO            
  D:002CH         SYMBOL        i
  D:002DH         SYMBOL        j
  -------         ENDDO         
  C:5B35H         LINE#         443
  C:5B3BH         LINE#         444
  C:5B3BH         LINE#         447
  C:5B45H         LINE#         448
  C:5B51H         LINE#         449
  C:5B83H         LINE#         450
  C:5B8BH         LINE#         451
  C:5B99H         LINE#         452
  C:5B99H         LINE#         453
  C:5B9DH         LINE#         454
  C:5BA1H         LINE#         455
  -------         ENDPROC       _SUB_BUFBUBBLE16S
  -------         PROC          _SUB_BUFBUBBLE16U
  D:0031H         SYMBOL        id
  D:0034H         SYMBOL        x
  D:0037H         SYMBOL        y
  D:003AH         SYMBOL        n
  -------         DO            
  D:003BH         SYMBOL        i
  D:003CH         SYMBOL        j
  -------         ENDDO         
  C:588EH         LINE#         460
  C:5894H         LINE#         461
  C:5894H         LINE#         464
  C:589EH         LINE#         465
  C:58AAH         LINE#         466
  C:58D6H         LINE#         467
  C:58DEH         LINE#         468
  C:58ECH         LINE#         469
  C:58FAH         LINE#         470
  C:58FAH         LINE#         471
  C:58FEH         LINE#         472
  C:5902H         LINE#         473
  -------         ENDPROC       _SUB_BUFBUBBLE16U
  -------         PROC          SUB_SYSRST
  -------         DO            
  D:0007H         SYMBOL        SfrPage_
  -------         ENDDO         
  C:6FE7H         LINE#         476
  C:6FE7H         LINE#         477
  C:6FE9H         LINE#         480
  C:6FECH         LINE#         481
  C:6FEFH         LINE#         482
  C:6FF1H         LINE#         483
  -------         ENDPROC       SUB_SYSRST
  -------         ENDMOD        SUB
BL51 BANKED LINKER/LOCATER V6.22                                                      08/24/2017  22:40:46  PAGE 99



  -------         MODULE        TIMER
  C:0000H         SYMBOL        _ICE_DUMMY_
  D:0018H         PUBLIC        MainTime4En
  D:00A0H         PUBLIC        P2
  C:65E5H         PUBLIC        Timer2_ISR
  D:00A7H         PUBLIC        SFRPAGE
  C:677AH         PUBLIC        Timer2_TaskInIsr
  B:00C8H.7       PUBLIC        TF2H
  D:00CCH         PUBLIC        TMR2
  C:66D5H         PUBLIC        Timer2_Init
  D:00C8H         PUBLIC        TMR2CN
  D:00CAH         PUBLIC        TMR2RL
  B:00A8H.5       PUBLIC        ET2
  B:00C8H.2       PUBLIC        TR2
  C:6E04H         PUBLIC        Timer2_TaskInMain
  D:008EH         PUBLIC        CKCON
  X:0C61H         PUBLIC        MainTime4Cnt
  -------         PROC          TIMER2_INIT
  -------         DO            
  D:0007H         SYMBOL        SfrPage_
  -------         ENDDO         
  C:66D5H         LINE#         26
  C:66D5H         LINE#         27
  C:66D5H         LINE#         28
  C:66D7H         LINE#         29
  C:66DAH         LINE#         30
  C:66DCH         LINE#         31
  C:66DFH         LINE#         32
  C:66E5H         LINE#         33
  C:66EBH         LINE#         34
  C:66EDH         LINE#         35
  C:66EFH         LINE#         36
  C:66F1H         LINE#         37
  C:670CH         LINE#         38
  -------         ENDPROC       TIMER2_INIT
  -------         PROC          TIMER2_ISR
  C:65E5H         LINE#         46
  C:6602H         LINE#         48
  C:6604H         LINE#         49
  C:6607H         LINE#         50
  -------         ENDPROC       TIMER2_ISR
  -------         PROC          TIMER2_TASKINISR
  C:677AH         LINE#         68
  C:677AH         LINE#         69
  C:677AH         LINE#         70
  C:677DH         LINE#         71
  C:6787H         LINE#         72
  C:6791H         LINE#         73
  C:6791H         LINE#         74
  C:67ACH         LINE#         75
  C:67AFH         LINE#         77
  C:67AFH         LINE#         78
  -------         ENDPROC       TIMER2_TASKINISR
  -------         PROC          TIMER2_TASKINMAIN
  C:6E04H         LINE#         86
  C:6E04H         LINE#         87
BL51 BANKED LINKER/LOCATER V6.22                                                      08/24/2017  22:40:46  PAGE 100


  C:6E04H         LINE#         88
  C:6E09H         LINE#         89
  C:6E0CH         LINE#         90
  C:6E12H         LINE#         91
  C:6E15H         LINE#         93
  C:6E15H         LINE#         94
  -------         ENDPROC       TIMER2_TASKINMAIN
  -------         ENDMOD        TIMER

  -------         MODULE        CALMCUT
  C:0000H         SYMBOL        _ICE_DUMMY_
  D:00A0H         PUBLIC        P2
  C:716DH         PUBLIC        McuT_CalStop
  C:718BH         PUBLIC        McuT_CalSta
  C:6B8DH         PUBLIC        _Mcut_CalSamp
  C:65A7H         SYMBOL        McuTCalcPrm
  C:39BEH         SYMBOL        _Mcut_CalcPrm
  X:09F0H         PUBLIC        McuTcal
  C:6567H         PUBLIC        CalibMtInit
  C:6CA2H         SYMBOL        _McuT_RdAdcVal
  C:7187H         SYMBOL        _McuT_SetCalCnt
  X:0ACDH         SYMBOL        mtemp_buf
  C:480BH         PUBLIC        MTCalDataInit
  C:6E5AH         SYMBOL        _McuT_RdTempVal
  C:6CB9H         SYMBOL        _McuT_WrAdcVal
  C:7167H         PUBLIC        GetMcuTCalCnt
  C:640DH         PUBLIC        _McuT_CalValWr
  D:0016H         SYMBOL        PMCUTCAL
  C:6FA4H         PUBLIC        _GetMcuTCalAdcVal
  C:6FF2H         PUBLIC        _SetMcuTCalCnt
  C:6E6BH         SYMBOL        _McuT_WrTempVal
  C:55A0H         PUBLIC        _GetMt
  C:6DA5H         PUBLIC        _SetMcuTCalAdcVal
  C:6F98H         PUBLIC        _GetMcuTCalTempVal
  C:6D90H         PUBLIC        _SetMcuTCalTempVal
  -------         PROC          _MCUT_SETCALCNT
  D:0001H         SYMBOL        p_cal
  D:0005H         SYMBOL        num
  C:7187H         LINE#         15
  C:7187H         LINE#         16
  C:7187H         LINE#         17
  -------         ENDPROC       _MCUT_SETCALCNT
  -------         PROC          _MCUT_RDTEMPVAL
  D:0001H         SYMBOL        p_cal
  D:0005H         SYMBOL        posid
  C:6E5AH         LINE#         28
  C:6E5AH         LINE#         29
  C:6E5AH         LINE#         30
  C:6E6AH         LINE#         31
  -------         ENDPROC       _MCUT_RDTEMPVAL
  -------         PROC          _MCUT_RDADCVAL
  D:0001H         SYMBOL        p_cal
  D:0005H         SYMBOL        posid
  C:6CA2H         LINE#         39
  C:6CA2H         LINE#         40
  C:6CA2H         LINE#         41
  C:6CB8H         LINE#         42
BL51 BANKED LINKER/LOCATER V6.22                                                      08/24/2017  22:40:46  PAGE 101


  -------         ENDPROC       _MCUT_RDADCVAL
  -------         PROC          _MCUT_WRTEMPVAL
  D:0001H         SYMBOL        p_cal
  D:0004H         SYMBOL        val
  D:002BH         SYMBOL        posid
  C:6E6BH         LINE#         51
  C:6E6BH         LINE#         52
  C:6E6BH         LINE#         53
  -------         ENDPROC       _MCUT_WRTEMPVAL
  -------         PROC          _MCUT_WRADCVAL
  D:0001H         SYMBOL        p_cal
  D:0004H         SYMBOL        val
  D:002BH         SYMBOL        posid
  C:6CB9H         LINE#         63
  C:6CB9H         LINE#         64
  C:6CB9H         LINE#         65
  -------         ENDPROC       _MCUT_WRADCVAL
  -------         PROC          _MCUT_CALCPRM
  D:0025H         SYMBOL        p_cal
  -------         DO            
  D:0028H         SYMBOL        i
  D:0029H         SYMBOL        aa
  -------         ENDDO         
  C:39BEH         LINE#         75
  C:39C4H         LINE#         76
  C:39C4H         LINE#         79
  C:39DBH         LINE#         80
  C:39DBH         LINE#         81
  C:3A0CH         LINE#         82
  C:3AA1H         LINE#         83
  C:3B1BH         LINE#         84
  C:3B20H         LINE#         85
  -------         ENDPROC       _MCUT_CALCPRM
  -------         PROC          _SETMCUTCALCNT
  D:0005H         SYMBOL        cnt
  C:6FF2H         LINE#         94
  C:6FF4H         LINE#         95
  C:6FF4H         LINE#         96
  -------         ENDPROC       _SETMCUTCALCNT
  -------         PROC          GETMCUTCALCNT
  C:7167H         LINE#         106
  C:7167H         LINE#         107
  C:7167H         LINE#         108
  C:716CH         LINE#         109
  -------         ENDPROC       GETMCUTCALCNT
  -------         PROC          _GETMCUTCALTEMPVAL
  D:0005H         SYMBOL        pos
  C:6F98H         LINE#         118
  C:6F9AH         LINE#         119
  C:6F9AH         LINE#         120
  C:6FA3H         LINE#         121
  -------         ENDPROC       _GETMCUTCALTEMPVAL
  -------         PROC          _GETMCUTCALADCVAL
  D:0005H         SYMBOL        pos
  C:6FA4H         LINE#         130
  C:6FA6H         LINE#         131
  C:6FA6H         LINE#         132
BL51 BANKED LINKER/LOCATER V6.22                                                      08/24/2017  22:40:46  PAGE 102


  C:6FAFH         LINE#         133
  -------         ENDPROC       _GETMCUTCALADCVAL
  -------         PROC          _SETMCUTCALTEMPVAL
  D:0082H         SYMBOL        val
  D:0007H         SYMBOL        pos
  C:6D90H         LINE#         141
  C:6D96H         LINE#         142
  C:6D96H         LINE#         143
  -------         ENDPROC       _SETMCUTCALTEMPVAL
  -------         PROC          _SETMCUTCALADCVAL
  D:0082H         SYMBOL        val
  D:0007H         SYMBOL        pos
  C:6DA5H         LINE#         152
  C:6DABH         LINE#         153
  C:6DABH         LINE#         154
  -------         ENDPROC       _SETMCUTCALADCVAL
  -------         PROC          CALIBMTINIT
  C:6567H         LINE#         159
  C:6567H         LINE#         160
  C:6567H         LINE#         161
  C:6573H         LINE#         162
  C:657FH         LINE#         163
  C:6589H         LINE#         164
  C:6593H         LINE#         165
  C:659DH         LINE#         166
  -------         ENDPROC       CALIBMTINIT
  -------         PROC          MTCALDATAINIT
  -------         DO            
  D:0022H         SYMBOL        i
  -------         ENDDO         
  C:480BH         LINE#         178
  C:480BH         LINE#         179
  C:480BH         LINE#         181
  C:4810H         LINE#         182
  C:4813H         LINE#         183
  C:4813H         LINE#         184
  C:483DH         LINE#         185
  C:4841H         LINE#         186
  C:4841H         LINE#         187
  C:4854H         LINE#         188
  C:4854H         LINE#         189
  C:487DH         LINE#         190
  C:4884H         LINE#         203
  C:4892H         LINE#         204
  C:48A3H         LINE#         205
  C:48AEH         LINE#         206
  C:48B9H         LINE#         207
  C:48C3H         LINE#         209
  C:48CDH         LINE#         210
  C:48D5H         LINE#         211
  C:48DCH         LINE#         212
  C:48E3H         LINE#         213
  C:48EAH         LINE#         215
  -------         ENDPROC       MTCALDATAINIT
  -------         PROC          _GETMT
  D:0026H         SYMBOL        tadc
  -------         DO            
BL51 BANKED LINKER/LOCATER V6.22                                                      08/24/2017  22:40:46  PAGE 103


  D:0028H         SYMBOL        i
  D:0004H         SYMBOL        offset
  -------         ENDDO         
  C:55A0H         LINE#         226
  C:55A4H         LINE#         227
  C:55A4H         LINE#         231
  C:55B7H         LINE#         232
  C:55B7H         LINE#         233
  C:55DCH         LINE#         234
  C:55DCH         LINE#         235
  C:55E0H         LINE#         236
  C:5624H         LINE#         238
  C:5624H         LINE#         239
  -------         ENDPROC       _GETMT
  -------         PROC          MCUTCALCPRM
  C:65A7H         LINE#         250
  C:65A7H         LINE#         251
  C:65A7H         LINE#         253
  C:65DCH         LINE#         255
  -------         ENDPROC       MCUTCALCPRM
  -------         PROC          _MCUT_CALVALWR
  D:0030H         SYMBOL        id
  D:0004H         SYMBOL        temp
  D:0031H         SYMBOL        tadc
  C:640DH         LINE#         266
  C:6413H         LINE#         267
  C:6413H         LINE#         268
  C:641DH         LINE#         269
  C:6438H         LINE#         270
  C:6453H         LINE#         272
  C:6455H         LINE#         273
  -------         ENDPROC       _MCUT_CALVALWR
  -------         PROC          MCUT_CALSTA
  C:718BH         LINE#         281
  C:718BH         LINE#         282
  C:718BH         LINE#         285
  C:718DH         LINE#         286
  -------         ENDPROC       MCUT_CALSTA
  -------         PROC          MCUT_CALSTOP
  C:716DH         LINE#         294
  C:716DH         LINE#         295
  C:716DH         LINE#         298
  C:7170H         LINE#         299
  C:7172H         LINE#         300
  -------         ENDPROC       MCUT_CALSTOP
  -------         PROC          _MCUT_CALSAMP
  D:0007H         SYMBOL        id
  D:002CH         SYMBOL        temp
  D:002EH         SYMBOL        tadc
  C:6B8DH         LINE#         302
  C:6B95H         LINE#         303
  C:6B95H         LINE#         306
  C:6B9BH         LINE#         307
  C:6B9DH         LINE#         308
  C:6BA8H         LINE#         309
  C:6BAAH         LINE#         310
  -------         ENDPROC       _MCUT_CALSAMP
BL51 BANKED LINKER/LOCATER V6.22                                                      08/24/2017  22:40:46  PAGE 104


  -------         ENDMOD        CALMCUT

  -------         MODULE        ?C?FPADD
  C:0055H         PUBLIC        ?C?FPADD
  C:0051H         PUBLIC        ?C?FPSUB
  -------         ENDMOD        ?C?FPADD

  -------         MODULE        ?C?FPMUL
  C:0146H         PUBLIC        ?C?FPMUL
  -------         ENDMOD        ?C?FPMUL

  -------         MODULE        ?C?FPDIV
  C:024FH         PUBLIC        ?C?FPDIV
  -------         ENDMOD        ?C?FPDIV

  -------         MODULE        ?C?FPCMP
  C:02EEH         PUBLIC        ?C?FPCMP
  C:02ECH         PUBLIC        ?C?FPCMP3
  -------         ENDMOD        ?C?FPCMP

  -------         MODULE        ?C?FCAST
  C:0363H         PUBLIC        ?C?FCASTC
  C:035EH         PUBLIC        ?C?FCASTI
  C:0359H         PUBLIC        ?C?FCASTL
  -------         ENDMOD        ?C?FCAST

  -------         MODULE        ?C?CASTF
  C:0397H         PUBLIC        ?C?CASTF
  -------         ENDMOD        ?C?CASTF

  -------         MODULE        SQRT
  C:4D8CH         PUBLIC        _SQRT
  -------         ENDMOD        SQRT

  -------         MODULE        SIN
  C:3733H         PUBLIC        _COS
  C:3749H         PUBLIC        _SIN
  C:377BH         PUBLIC        _TAN
  -------         ENDMOD        SIN

  -------         MODULE        ASIN
  C:669AH         PUBLIC        _ASIN
  -------         ENDMOD        ASIN

  -------         MODULE        ATAN
  C:3F15H         PUBLIC        _ATAN
  -------         ENDMOD        ATAN

  -------         MODULE        ?C?CLDPTR
  C:0465H         PUBLIC        ?C?CLDPTR
  -------         ENDMOD        ?C?CLDPTR

  -------         MODULE        ?C?CLDOPTR
  C:047EH         PUBLIC        ?C?CLDOPTR
  -------         ENDMOD        ?C?CLDOPTR

  -------         MODULE        ?C?CILDPTR
BL51 BANKED LINKER/LOCATER V6.22                                                      08/24/2017  22:40:46  PAGE 105


  C:04ABH         PUBLIC        ?C?CILDPTR
  -------         ENDMOD        ?C?CILDPTR

  -------         MODULE        ?C?CSTPTR
  C:04CDH         PUBLIC        ?C?CSTPTR
  -------         ENDMOD        ?C?CSTPTR

  -------         MODULE        ?C?CSTOPTR
  C:04DFH         PUBLIC        ?C?CSTOPTR
  -------         ENDMOD        ?C?CSTOPTR

  -------         MODULE        ?C?IMUL
  C:0501H         PUBLIC        ?C?IMUL
  -------         ENDMOD        ?C?IMUL

  -------         MODULE        ?C?UIDIV
  C:0513H         PUBLIC        ?C?UIDIV
  -------         ENDMOD        ?C?UIDIV

  -------         MODULE        ?C?SIDIV
  C:0568H         PUBLIC        ?C?SIDIV
  -------         ENDMOD        ?C?SIDIV

  -------         MODULE        ?C?IILDX
  C:059EH         PUBLIC        ?C?IILDX
  -------         ENDMOD        ?C?IILDX

  -------         MODULE        ?C?ILDPTR
  C:05B4H         PUBLIC        ?C?ILDPTR
  -------         ENDMOD        ?C?ILDPTR

  -------         MODULE        ?C?ILDOPTR
  C:05DFH         PUBLIC        ?C?ILDOPTR
  -------         ENDMOD        ?C?ILDOPTR

  -------         MODULE        ?C?IILDPTR
  C:0617H         PUBLIC        ?C?IILDPTR
  -------         ENDMOD        ?C?IILDPTR

  -------         MODULE        ?C?IILDOPTR
  C:064FH         PUBLIC        ?C?IILDOPTR
  -------         ENDMOD        ?C?IILDOPTR

  -------         MODULE        ?C?ISTPTR
  C:069CH         PUBLIC        ?C?ISTPTR
  -------         ENDMOD        ?C?ISTPTR

  -------         MODULE        ?C?ISTOPTR
  C:06BBH         PUBLIC        ?C?ISTOPTR
  -------         ENDMOD        ?C?ISTOPTR

  -------         MODULE        ?C?LADD
  C:06E8H         PUBLIC        ?C?LADD
  -------         ENDMOD        ?C?LADD

  -------         MODULE        ?C?LMUL
  C:06F5H         PUBLIC        ?C?LMUL
BL51 BANKED LINKER/LOCATER V6.22                                                      08/24/2017  22:40:46  PAGE 106


  -------         ENDMOD        ?C?LMUL

  -------         MODULE        ?C?ULDIV
  C:0780H         PUBLIC        ?C?ULDIV
  -------         ENDMOD        ?C?ULDIV

  -------         MODULE        ?C?SLDIV
  C:64E0H         PUBLIC        ?C?SLDIV
  -------         ENDMOD        ?C?SLDIV

  -------         MODULE        ?C?LOR
  C:0812H         PUBLIC        ?C?LOR
  -------         ENDMOD        ?C?LOR

  -------         MODULE        ?C?LNEG
  C:081FH         PUBLIC        ?C?LNEG
  -------         ENDMOD        ?C?LNEG

  -------         MODULE        ?C?SLCMP
  C:082DH         PUBLIC        ?C?SLCMP
  -------         ENDMOD        ?C?SLCMP

  -------         MODULE        ?C?ULCMP
  C:0843H         PUBLIC        ?C?ULCMP
  -------         ENDMOD        ?C?ULCMP

  -------         MODULE        ?C?ULSHR
  C:0854H         PUBLIC        ?C?ULSHR
  -------         ENDMOD        ?C?ULSHR

  -------         MODULE        ?C?LSHL
  C:0867H         PUBLIC        ?C?LSHL
  -------         ENDMOD        ?C?LSHL

  -------         MODULE        ?C?LLDPTR
  C:087AH         PUBLIC        ?C?LLDPTR
  -------         ENDMOD        ?C?LLDPTR

  -------         MODULE        ?C?LLDOPTR
  C:089AH         PUBLIC        ?C?LLDOPTR
  -------         ENDMOD        ?C?LLDOPTR

  -------         MODULE        ?C?LSTPTR
  C:08CAH         PUBLIC        ?C?LSTPTR
  -------         ENDMOD        ?C?LSTPTR

  -------         MODULE        ?C?LSTOPTR
  C:08E4H         PUBLIC        ?C?LSTOPTR
  -------         ENDMOD        ?C?LSTOPTR

  -------         MODULE        ?C?LLDXDATA
  C:0908H         PUBLIC        ?C?LLDXDATA
  -------         ENDMOD        ?C?LLDXDATA

  -------         MODULE        ?C?LLDCODE
  C:0914H         PUBLIC        ?C?LLDCODE
  -------         ENDMOD        ?C?LLDCODE
BL51 BANKED LINKER/LOCATER V6.22                                                      08/24/2017  22:40:46  PAGE 107



  -------         MODULE        ?C?LLDXDATA0
  C:0924H         PUBLIC        ?C?LLDXDATA0
  -------         ENDMOD        ?C?LLDXDATA0

  -------         MODULE        ?C?LLDCODE0
  C:0930H         PUBLIC        ?C?LLDCODE0
  -------         ENDMOD        ?C?LLDCODE0

  -------         MODULE        ?C?LLDOPTR0
  C:0940H         PUBLIC        ?C?LLDOPTR0
  -------         ENDMOD        ?C?LLDOPTR0

  -------         MODULE        ?C?LSTXDATA
  C:0970H         PUBLIC        ?C?LSTXDATA
  -------         ENDMOD        ?C?LSTXDATA

  -------         MODULE        ?C?LSTKXDATA
  C:097CH         PUBLIC        ?C?LSTKXDATA
  -------         ENDMOD        ?C?LSTKXDATA

  -------         MODULE        ?C?LSTKOPTR
  C:09ADH         PUBLIC        ?C?LSTKOPTR
  -------         ENDMOD        ?C?LSTKOPTR

  -------         MODULE        ?C?OFFXADD
  C:09D1H         PUBLIC        ?C?OFFXADD
  -------         ENDMOD        ?C?OFFXADD

  -------         MODULE        ?C?PLDIIDATA
  C:09DDH         PUBLIC        ?C?PLDIIDATA
  -------         ENDMOD        ?C?PLDIIDATA

  -------         MODULE        ?C?PLDXDATA
  C:09EDH         PUBLIC        ?C?PLDXDATA
  -------         ENDMOD        ?C?PLDXDATA

  -------         MODULE        ?C?PSTXDATA
  C:09F6H         PUBLIC        ?C?PSTXDATA
  -------         ENDMOD        ?C?PSTXDATA

  -------         MODULE        ?C?PLDOPTR
  C:09FFH         PUBLIC        ?C?PLDOPTR
  -------         ENDMOD        ?C?PLDOPTR

  -------         MODULE        ?C?PLDIOPTR
  C:0A2FH         PUBLIC        ?C?PLDIOPTR
  -------         ENDMOD        ?C?PLDIOPTR

  -------         MODULE        ?C?PSTOPTR
  C:0A61H         PUBLIC        ?C?PSTOPTR
  -------         ENDMOD        ?C?PSTOPTR

  -------         MODULE        ?C?CCASE
  C:0ABAH         PUBLIC        ?C?CCASE
  -------         ENDMOD        ?C?CCASE

BL51 BANKED LINKER/LOCATER V6.22                                                      08/24/2017  22:40:46  PAGE 108


  -------         MODULE        ?C?ICASE
  C:0AE0H         PUBLIC        ?C?ICASE
  -------         ENDMOD        ?C?ICASE

  -------         MODULE        ?C?LCASE
  C:0B0DH         PUBLIC        ?C?LCASE
  -------         ENDMOD        ?C?LCASE

  -------         MODULE        ?C?ICALL
  C:0B47H         PUBLIC        ?C?ICALL
  C:0B4BH         PUBLIC        ?C?ICALL2
  -------         ENDMOD        ?C?ICALL

  -------         MODULE        STRNCMP
  D:002CH         PUBLIC        ?_strncmp?BYTE
  C:5A58H         PUBLIC        _strncmp
  -------         ENDMOD        STRNCMP

  -------         MODULE        STRNCPY
  D:002BH         PUBLIC        ?_strncpy?BYTE
  C:61F2H         PUBLIC        _strncpy
  -------         ENDMOD        STRNCPY

  -------         MODULE        ?C?LLDIDATA
  C:0B4DH         PUBLIC        ?C?LLDIDATA
  -------         ENDMOD        ?C?LLDIDATA

  -------         MODULE        ?C?LLDPDATA
  C:0B59H         PUBLIC        ?C?LLDPDATA
  -------         ENDMOD        ?C?LLDPDATA

  -------         MODULE        ?C?LLDIDATA0
  C:0B65H         PUBLIC        ?C?LLDIDATA0
  -------         ENDMOD        ?C?LLDIDATA0

  -------         MODULE        ?C?LLDPDATA0
  C:0B72H         PUBLIC        ?C?LLDPDATA0
  -------         ENDMOD        ?C?LLDPDATA0

  -------         MODULE        ?C?LSTIDATA
  C:0B7FH         PUBLIC        ?C?LSTIDATA
  -------         ENDMOD        ?C?LSTIDATA

  -------         MODULE        ?C?LSTPDATA
  C:0B8BH         PUBLIC        ?C?LSTPDATA
  -------         ENDMOD        ?C?LSTPDATA

  -------         MODULE        ?C?LSTKIDATA
  C:0B97H         PUBLIC        ?C?LSTKIDATA
  -------         ENDMOD        ?C?LSTKIDATA

  -------         MODULE        ?C?LSTKPDATA
  C:0BB0H         PUBLIC        ?C?LSTKPDATA
  -------         ENDMOD        ?C?LSTKPDATA

  -------         MODULE        ?C?PLDIDATA
  C:0BC9H         PUBLIC        ?C?PLDIDATA
BL51 BANKED LINKER/LOCATER V6.22                                                      08/24/2017  22:40:46  PAGE 109


  -------         ENDMOD        ?C?PLDIDATA

  -------         MODULE        ?C?PSTIDATA
  C:0BD2H         PUBLIC        ?C?PSTIDATA
  -------         ENDMOD        ?C?PSTIDATA

  -------         MODULE        ?C?PLDIXDATA
  C:0BDBH         PUBLIC        ?C?PLDIXDATA
  -------         ENDMOD        ?C?PLDIXDATA

  -------         MODULE        ?C?PLDPDATA
  C:0BF2H         PUBLIC        ?C?PLDPDATA
  -------         ENDMOD        ?C?PLDPDATA

  -------         MODULE        ?C?PLDIPDATA
  C:0BFBH         PUBLIC        ?C?PLDIPDATA
  -------         ENDMOD        ?C?PLDIPDATA

  -------         MODULE        ?C?PSTPDATA
  C:0C0BH         PUBLIC        ?C?PSTPDATA
  -------         ENDMOD        ?C?PSTPDATA

  -------         MODULE        ?C?PLDCODE
  C:0C14H         PUBLIC        ?C?PLDCODE
  -------         ENDMOD        ?C?PLDCODE

Program Size: data=114.4 xdata=3172 code=29069
LINK/LOCATE RUN COMPLETE.  0 WARNING(S),  0 ERROR(S)
