BL51 BANKED LINKER/LOCATER V6.22                                                        09/18/2013  13:48:52  PAGE 1


BL51 BANKED LINKER/LOCATER V6.22, INVOKED BY:
C:\KEIL\C51\BIN\BL51.EXE .\obj\STARTUP.obj, .\obj\AdcDrv.obj, .\obj\AngApp.obj, .\obj\Calibration.obj, .\obj\CmdSub.obj,
>>  .\obj\Comm.obj, .\obj\Delay.obj, .\obj\Filter.obj, .\obj\Flash.obj, .\obj\Init.obj, .\obj\Key.obj, .\obj\Main.obj, .
>> \obj\ModBusCrc.obj, .\obj\ModBusRtu.obj, .\obj\Send.obj, .\obj\Sensor.obj, .\obj\Sub.obj, .\obj\Timer.obj, .\obj\CalM
>> cuT.obj TO .\obj\164-0001-20130903 PRINT (.\lst\164-0001-20130903.m51) RAMSIZE (256)


MEMORY MODEL: SMALL WITH FLOATING POINT ARITHMETIC


INPUT MODULES INCLUDED:
  .\obj\STARTUP.obj (?C_STARTUP)
  .\obj\AdcDrv.obj (ADCDRV)
  .\obj\AngApp.obj (ANGAPP)
  .\obj\Calibration.obj (CALIBRATION)
  .\obj\CmdSub.obj (CMDSUB)
  .\obj\Comm.obj (COMM)
  .\obj\Delay.obj (DELAY)
  .\obj\Filter.obj (FILTER)
  .\obj\Flash.obj (FLASH)
  .\obj\Init.obj (INIT)
  .\obj\Key.obj (KEY)
  .\obj\Main.obj (MAIN)
  .\obj\ModBusCrc.obj (MODBUSCRC)
  .\obj\ModBusRtu.obj (MODBUSRTU)
  .\obj\Send.obj (SEND)
  .\obj\Sensor.obj (SENSOR)
  .\obj\Sub.obj (SUB)
  .\obj\Timer.obj (TIMER)
  .\obj\CalMcuT.obj (CALMCUT)
  C:\KEIL\C51\LIB\C51FPS.LIB (?C?FPADD)
  C:\KEIL\C51\LIB\C51FPS.LIB (?C?FPMUL)
  C:\KEIL\C51\LIB\C51FPS.LIB (?C?FPDIV)
  C:\KEIL\C51\LIB\C51FPS.LIB (?C?FPCMP)
  C:\KEIL\C51\LIB\C51FPS.LIB (?C?FCAST)
  C:\KEIL\C51\LIB\C51FPS.LIB (?C?CASTF)
  C:\KEIL\C51\LIB\C51FPS.LIB (SQRT)
  C:\KEIL\C51\LIB\C51FPS.LIB (SIN)
  C:\KEIL\C51\LIB\C51FPS.LIB (ASIN)
  C:\KEIL\C51\LIB\C51FPS.LIB (?C?FPGETOPN)
  C:\KEIL\C51\LIB\C51FPS.LIB (?C?FPSERIES)
  C:\KEIL\C51\LIB\C51FPS.LIB (ATAN)
  C:\KEIL\C51\LIB\C51S.LIB (?C_INIT)
  C:\KEIL\C51\LIB\C51S.LIB (?C?CLDPTR)
  C:\KEIL\C51\LIB\C51S.LIB (?C?CLDOPTR)
  C:\KEIL\C51\LIB\C51S.LIB (?C?CILDPTR)
  C:\KEIL\C51\LIB\C51S.LIB (?C?CSTPTR)
  C:\KEIL\C51\LIB\C51S.LIB (?C?CSTOPTR)
  C:\KEIL\C51\LIB\C51S.LIB (?C?IMUL)
  C:\KEIL\C51\LIB\C51S.LIB (?C?UIDIV)
  C:\KEIL\C51\LIB\C51S.LIB (?C?SIDIV)
  C:\KEIL\C51\LIB\C51S.LIB (?C?IILDX)
  C:\KEIL\C51\LIB\C51S.LIB (?C?ILDPTR)
  C:\KEIL\C51\LIB\C51S.LIB (?C?ILDOPTR)
  C:\KEIL\C51\LIB\C51S.LIB (?C?IILDPTR)
  C:\KEIL\C51\LIB\C51S.LIB (?C?IILDOPTR)
  C:\KEIL\C51\LIB\C51S.LIB (?C?ISTPTR)
  C:\KEIL\C51\LIB\C51S.LIB (?C?ISTOPTR)
BL51 BANKED LINKER/LOCATER V6.22                                                      09/18/2013  13:48:52  PAGE 2


  C:\KEIL\C51\LIB\C51S.LIB (?C?LADD)
  C:\KEIL\C51\LIB\C51S.LIB (?C?LSUB)
  C:\KEIL\C51\LIB\C51S.LIB (?C?LMUL)
  C:\KEIL\C51\LIB\C51S.LIB (?C?ULDIV)
  C:\KEIL\C51\LIB\C51S.LIB (?C?SLDIV)
  C:\KEIL\C51\LIB\C51S.LIB (?C?LNEG)
  C:\KEIL\C51\LIB\C51S.LIB (?C?SLCMP)
  C:\KEIL\C51\LIB\C51S.LIB (?C?ULCMP)
  C:\KEIL\C51\LIB\C51S.LIB (?C?ULSHR)
  C:\KEIL\C51\LIB\C51S.LIB (?C?LSHL)
  C:\KEIL\C51\LIB\C51S.LIB (?C?LLDPTR)
  C:\KEIL\C51\LIB\C51S.LIB (?C?LLDOPTR)
  C:\KEIL\C51\LIB\C51S.LIB (?C?LSTPTR)
  C:\KEIL\C51\LIB\C51S.LIB (?C?LSTOPTR)
  C:\KEIL\C51\LIB\C51S.LIB (?C?LLDXDATA)
  C:\KEIL\C51\LIB\C51S.LIB (?C?LLDCODE)
  C:\KEIL\C51\LIB\C51S.LIB (?C?LLDXDATA0)
  C:\KEIL\C51\LIB\C51S.LIB (?C?LLDCODE0)
  C:\KEIL\C51\LIB\C51S.LIB (?C?LLDOPTR0)
  C:\KEIL\C51\LIB\C51S.LIB (?C?LSTXDATA)
  C:\KEIL\C51\LIB\C51S.LIB (?C?LSTKXDATA)
  C:\KEIL\C51\LIB\C51S.LIB (?C?LSTKOPTR)
  C:\KEIL\C51\LIB\C51S.LIB (?C?OFFXADD)
  C:\KEIL\C51\LIB\C51S.LIB (?C?PLDIIDATA)
  C:\KEIL\C51\LIB\C51S.LIB (?C?PLDXDATA)
  C:\KEIL\C51\LIB\C51S.LIB (?C?PSTXDATA)
  C:\KEIL\C51\LIB\C51S.LIB (?C?PLDOPTR)
  C:\KEIL\C51\LIB\C51S.LIB (?C?PLDIOPTR)
  C:\KEIL\C51\LIB\C51S.LIB (?C?PSTOPTR)
  C:\KEIL\C51\LIB\C51S.LIB (?C?CCASE)
  C:\KEIL\C51\LIB\C51S.LIB (?C?ICASE)
  C:\KEIL\C51\LIB\C51S.LIB (?C?ICALL)
  C:\KEIL\C51\LIB\C51S.LIB (STRNCMP)
  C:\KEIL\C51\LIB\C51S.LIB (STRNCPY)
  C:\KEIL\C51\LIB\C51S.LIB (?C?LLDIDATA)
  C:\KEIL\C51\LIB\C51S.LIB (?C?LLDPDATA)
  C:\KEIL\C51\LIB\C51S.LIB (?C?LLDIDATA0)
  C:\KEIL\C51\LIB\C51S.LIB (?C?LLDPDATA0)
  C:\KEIL\C51\LIB\C51S.LIB (?C?LSTIDATA)
  C:\KEIL\C51\LIB\C51S.LIB (?C?LSTPDATA)
  C:\KEIL\C51\LIB\C51S.LIB (?C?LSTKIDATA)
  C:\KEIL\C51\LIB\C51S.LIB (?C?LSTKPDATA)
  C:\KEIL\C51\LIB\C51S.LIB (?C?PLDIDATA)
  C:\KEIL\C51\LIB\C51S.LIB (?C?PSTIDATA)
  C:\KEIL\C51\LIB\C51S.LIB (?C?PLDIXDATA)
  C:\KEIL\C51\LIB\C51S.LIB (?C?PLDPDATA)
  C:\KEIL\C51\LIB\C51S.LIB (?C?PLDIPDATA)
  C:\KEIL\C51\LIB\C51S.LIB (?C?PSTPDATA)
  C:\KEIL\C51\LIB\C51S.LIB (?C?PLDCODE)


LINK MAP OF MODULE:  .\obj\164-0001-20130903 (?C_STARTUP)


            TYPE    BASE      LENGTH    RELOCATION   SEGMENT NAME
            -----------------------------------------------------

BL51 BANKED LINKER/LOCATER V6.22                                                      09/18/2013  13:48:52  PAGE 3


            * * * * * * *   D A T A   M E M O R Y   * * * * * * *
            REG     0000H     0008H     ABSOLUTE     "REG BANK 0"
            DATA    0008H     000AH     UNIT         ?DT?SEND
            DATA    0012H     0004H     UNIT         ?DT?CMDSUB
            DATA    0016H     0002H     UNIT         ?DT?CALMCUT
            DATA    0018H     0001H     UNIT         ?DT?TIMER
            IDATA   0019H     0003H     UNIT         ?ID?ADCDRV
                    001CH     0004H                  *** GAP ***
            BIT     0020H.0   0000H.2   UNIT         ?BI?COMM
            BIT     0020H.2   0000H.2   UNIT         _BIT_GROUP_
                    0020H.4   0000H.4                *** GAP ***
            DATA    0021H     0055H     UNIT         _DATA_GROUP_
            IDATA   0076H     0001H     UNIT         ?STACK

            * * * * * * *  X D A T A   M E M O R Y  * * * * * * *
            XDATA   0000H     04B0H     UNIT         ?XD?CALIBRATION
            XDATA   04B0H     0200H     UNIT         ?XD?FLASH
            XDATA   06B0H     01A2H     UNIT         ?XD?COMM
            XDATA   0852H     019EH     UNIT         ?XD?ADCDRV
            XDATA   09F0H     00F1H     UNIT         ?XD?CALMCUT
            XDATA   0AE1H     00C9H     UNIT         ?XD?SEND
            XDATA   0BAAH     0041H     UNIT         ?XD?SENSOR
            XDATA   0BEBH     0038H     UNIT         ?XD?ANGAPP
            XDATA   0C23H     0018H     UNIT         ?XD?CMDSUB
            XDATA   0C3BH     000DH     UNIT         ?XD?MODBUSRTU
            XDATA   0C48H     0008H     UNIT         _XDATA_GROUP_
            XDATA   0C50H     0005H     UNIT         ?XD?MAIN
            XDATA   0C55H     0003H     UNIT         ?XD?KEY
            XDATA   0C58H     0002H     UNIT         ?XD?TIMER

            * * * * * * *   C O D E   M E M O R Y   * * * * * * *
            CODE    0000H     0003H     ABSOLUTE     
            CODE    0003H     0020H     UNIT         ?PR?_SEND_TDEAL?SEND
            CODE    0023H     0003H     ABSOLUTE     
            CODE    0026H     0004H     UNIT         ?PR?ADC_ENABLE?ADCDRV
                    002AH     0001H                  *** GAP ***
            CODE    002BH     0003H     ABSOLUTE     
            CODE    002EH     001DH     UNIT         ?PR?COMM_TIMERPROC?COMM
            CODE    004BH     0003H     ABSOLUTE     
            CODE    004EH     0B99H     UNIT         ?C?LIB_CODE
            CODE    0BE7H     0B7AH     UNIT         ?PR?_MODRTU_RDVAL?MODBUSRTU
            CODE    1761H     08B1H     UNIT         ?PR?_MODRTU_WRVAL?MODBUSRTU
            CODE    2012H     06F0H     UNIT         ?PR?_SEND_SDEAL?SEND
            CODE    2702H     034FH     UNIT         ?PR?_RAM_CALDATA2BUF?FLASH
            CODE    2A51H     02E5H     UNIT         ?PR?_RAM_BUF2CALDATA?FLASH
            CODE    2D36H     0200H     UNIT         ?CO?MODBUSCRC
            CODE    2F36H     01E4H     UNIT         ?CO?SEND
            CODE    311AH     018EH     UNIT         ?PR?_SUB_STR2INT32S?SUB
            CODE    32A8H     0183H     UNIT         ?PR?ANGPROC?ANGAPP
            CODE    342BH     017CH     UNIT         ?PR?_ANG_CALCPRM?CALIBRATION
            CODE    35A7H     016EH     UNIT         ?PR?SIN?SIN
            CODE    3715H     0165H     UNIT         ?PR?_SEND_CDEAL?SEND
            CODE    387AH     0163H     UNIT         ?PR?_MCUT_CALCPRM?CALMCUT
            CODE    39DDH     0162H     UNIT         ?PR?_SUB_INT32S2STR?SUB
            CODE    3B3FH     0146H     UNIT         ?PR?_SEND_RDEAL?SEND
            CODE    3C85H     012CH     UNIT         ?PR?_TEMP_CALCPRM?CALIBRATION
            CODE    3DB1H     0128H     UNIT         ?PR?ATAN?ATAN
BL51 BANKED LINKER/LOCATER V6.22                                                      09/18/2013  13:48:52  PAGE 4


            CODE    3ED9H     0118H     UNIT         ?PR?SEND_TIMEPROC?SEND
            CODE    3FF1H     010BH     UNIT         ?PR?ANGCALDATAINIT?CALIBRATION
            CODE    40FCH     0105H     UNIT         ?PR?FLASH_CALDATAINIT?FLASH
            CODE    4201H     0103H     UNIT         ?PR?_MODRTU_WRREG?MODBUSRTU
            CODE    4304H     0100H     UNIT         ?PR?_SEND_WDEAL?SEND
            CODE    4404H     00EDH     UNIT         ?PR?_MODRTU_RDREG?MODBUSRTU
            CODE    44F1H     00E8H     UNIT         ?PR?_TEMP_CALTREFSET?CMDSUB
            CODE    45D9H     00E4H     UNIT         ?PR?CALIBINIT?CALIBRATION
            CODE    46BDH     00E0H     UNIT         ?PR?MTCALDATAINIT?CALMCUT
            CODE    479DH     00DBH     UNIT         ?PR?_SLIDEWINFILTER?FILTER
            CODE    4878H     00D8H     UNIT         ?PR?_PANGCALC?ANGAPP
            CODE    4950H     00C4H     UNIT         ?PR?_SUB_SENDTEMPCAL?SUB
            CODE    4A14H     00BFH     UNIT         ?PR?_SUB_STR2INT16U?SUB
            CODE    4AD3H     00B7H     UNIT         ?PR?_GETOFFSET?SENSOR
            CODE    4B8AH     00B0H     UNIT         ?PR?_SUB_INT16U2STR?SUB
            CODE    4C3AH     00AAH     UNIT         ?PR?SQRT?SQRT
            CODE    4CE4H     00A7H     UNIT         ?PR?_ANG_CALC?SENSOR
            CODE    4D8BH     00A5H     UNIT         ?PR?_COMM_GETTXCHAR?COMM
            CODE    4E30H     00A4H     UNIT         ?PR?_COMM_GETCHAR?COMM
            CODE    4ED4H     00A1H     UNIT         ?PR?_GETANGCALCVAL?SENSOR
            CODE    4F75H     0099H     UNIT         ?PR?ANGINIT?ANGAPP
            CODE    500EH     008FH     UNIT         ?PR?COMM_SOFTWAREINIT?COMM
            CODE    509DH     008DH     UNIT         ?PR?_FLOATTOINT?MODBUSRTU
            CODE    512AH     008CH     UNIT         ?C_C51STARTUP
            CODE    51B6H     008CH     UNIT         ?PR?_COMM_PUTCHAR?COMM
            CODE    5242H     008BH     UNIT         ?PR?ADC_ISR?ADCDRV
            CODE    52CDH     008BH     UNIT         ?PR?SNPROC?SENSOR
            CODE    5358H     0087H     UNIT         ?PR?ADC_XCALSTOP?CMDSUB
            CODE    53DFH     0087H     UNIT         ?PR?ADC_YCALSTOP?CMDSUB
            CODE    5466H     0085H     UNIT         ?PR?_ADCFILTER?ADCDRV
            CODE    54EBH     0085H     UNIT         ?PR?_GETMT?CALMCUT
            CODE    5570H     0084H     UNIT         ?PR?_COMM_PUTRXCHAR?COMM
            CODE    55F4H     0080H     UNIT         ?PR?_SNFILTER?SENSOR
            CODE    5674H     0076H     UNIT         ?PR?_TEMP_CALVALWR?CMDSUB
            CODE    56EAH     0075H     UNIT         ?PR?_SUB_BUFBUBBLE16U?SUB
            CODE    575FH     0073H     UNIT         ?PR?SUB_SENDPRMTALL?SUB
            CODE    57D2H     0073H     UNIT         ?PR?_SUB_SENDMCUTEMPCAL?SUB
            CODE    5845H     0072H     UNIT         ?PR?COMM_ISR?COMM
            CODE    58B7H     0070H     UNIT         ?PR?TEMPSORTANDCALCPRM?CMDSUB
            CODE    5927H     006FH     UNIT         ?PR?_STRNCMP?STRNCMP
            CODE    5996H     006EH     UNIT         ?PR?SNINIT?SENSOR
            CODE    5A04H     006DH     UNIT         ?PR?_SUB_BUFBUBBLE16S?SUB
            CODE    5A71H     0069H     UNIT         ?PR?_SN_DATAINIT?SENSOR
            CODE    5ADAH     0069H     UNIT         ?PR?_SUB_BUFBUBBLE32S?SUB
            CODE    5B43H     0068H     UNIT         ?PR?_ADC_SAVEANDSWITCH?ADCDRV
            CODE    5BABH     0066H     UNIT         ?PR?_TEMP_CALSAMP?CMDSUB
            CODE    5C11H     0065H     UNIT         ?PR?_FLASH_BUFWR?FLASH
            CODE    5C76H     0065H     UNIT         ?PR?_SEND_UDEAL?SEND
            CODE    5CDBH     005FH     UNIT         ?CO?SUB
            CODE    5D3AH     005DH     UNIT         ?PR?_FILTER_1ST?FILTER
            CODE    5D97H     005CH     UNIT         ?PR?TEMPCALDATAINIT?CALIBRATION
            CODE    5DF3H     005AH     UNIT         ?PR?_SUB_STR2INT16S?SUB
            CODE    5E4DH     0058H     UNIT         ?PR?SUB_SENDTCALTEST?SUB
            CODE    5EA5H     0057H     UNIT         ?PR?_FLASH_BUFRD?FLASH
            CODE    5EFCH     0056H     UNIT         ?PR?FLASHAREA_USER?FLASH
            CODE    5F52H     0056H     UNIT         ?PR?_SUB_SBUFSWITCH?SUB
            CODE    5FA8H     0052H     UNIT         ?PR?_STRNCPY?STRNCPY
BL51 BANKED LINKER/LOCATER V6.22                                                      09/18/2013  13:48:52  PAGE 5


            CODE    5FFAH     0051H     UNIT         ?PR?INIT_SYSTEMPARA?INIT
            CODE    604BH     0050H     UNIT         ?PR?RAM_CALDATAINIT_USER?FLASH
            CODE    609BH     004FH     UNIT         ?PR?_FLASH_CALDATAUPDATE_USER?FLASH
            CODE    60EAH     004CH     UNIT         ?PR?GETXANGALLSETVAL?ANGAPP
            CODE    6136H     004CH     UNIT         ?PR?GETYANGALLSETVAL?ANGAPP
            CODE    6182H     004CH     UNIT         ?PR?_SUB_16SBUFSWITCH?SUB
            CODE    61CEH     004CH     UNIT         ?PR?_SUB_UBUFSWITCH?SUB
            CODE    621AH     004AH     UNIT         ?PR?ADCENTITYINIT?ADCDRV
            CODE    6264H     0049H     UNIT         ?PR?_MCUT_CALVALWR?CALMCUT
            CODE    62ADH     0045H     UNIT         ?PR?_MODRTU_RLYERROR?MODBUSRTU
            CODE    62F2H     0045H     UNIT         ?PR?_SUB_SENDADCTXY?SUB
            CODE    6337H     0044H     UNIT         ?C?LDIV
            CODE    637BH     0043H     UNIT         ?PR?FLASH_CALDATAUPDATE?FLASH
            CODE    63BEH     0043H     UNIT         ?PR?KEY_DOWN?KEY
            CODE    6401H     0040H     UNIT         ?PR?CALIBMTINIT?CALMCUT
            CODE    6441H     003EH     UNIT         ?PR?MCUTCALCPRM?CALMCUT
            CODE    647FH     003DH     UNIT         ?PR?TIMER2_ISR?TIMER
            CODE    64BCH     003CH     UNIT         ?PR?_MODRTU_RXPROC?MODBUSRTU
            CODE    64F8H     003CH     UNIT         ?PR?SUB_SENDANGXYP?SUB
            CODE    6534H     003CH     UNIT         ?PR?_SUB_STR2INT8U?SUB
            CODE    6570H     003BH     UNIT         ?PR?ASIN?ASIN
            CODE    65ABH     0038H     UNIT         ?PR?TIMER2_INIT?TIMER
            CODE    65E3H     0037H     UNIT         ?PR?_FLASH_CHECKSUM?FLASH
            CODE    661AH     0036H     UNIT         ?PR?TIMER2_TASKINISR?TIMER
            CODE    6650H     0035H     UNIT         ?PR?_MODBUSCRCCNT?MODBUSCRC
            CODE    6685H     0033H     UNIT         ?C_INITSEG
            CODE    66B8H     0033H     UNIT         ?PR?_MODRTU_SETZERO?MODBUSRTU
            CODE    66EBH     0032H     UNIT         ?PR?_FLASHUPDATE?FLASH
            CODE    671DH     002FH     UNIT         ?PR?_SUB_SENDMCUT?SUB
            CODE    674CH     002FH     UNIT         ?PR?_SUB_STRALARMCHECK?SUB
            CODE    677BH     002EH     UNIT         ?PR?ADC_SETINIT?ADCDRV
            CODE    67A9H     002EH     UNIT         ?PR?GETANGP?ANGAPP
            CODE    67D7H     002DH     UNIT         ?PR?MAIN?MAIN
            CODE    6804H     002AH     UNIT         ?PR?KEY_PROC?KEY
            CODE    682EH     002AH     UNIT         ?PR?_COMM_PUTINT16S?SUB
            CODE    6858H     0029H     UNIT         ?PR?_FLASH_PAGEERASE?FLASH
            CODE    6881H     0028H     UNIT         ?PR?_MODRTU_WRADDR?MODBUSRTU
            CODE    68A9H     0025H     UNIT         ?PR?_MODRTU_WRBAUD?MODBUSRTU
            CODE    68CEH     0025H     UNIT         ?PR?SUB_SENDANGXY?SUB
            CODE    68F3H     0024H     UNIT         ?PR?_SETANGZERO?ANGAPP
            CODE    6917H     0024H     UNIT         ?PR?_VALINRANGE?FILTER
            CODE    693BH     0023H     UNIT         ?PR?SYS_PORTINIT?INIT
            CODE    695EH     0022H     UNIT         ?PR?_SUB_INT16S2STR?SUB
            CODE    6980H     0021H     UNIT         ?PR?_COMM_PUTSTR?COMM
            CODE    69A1H     0021H     UNIT         ?PR?_MODRTU_WR16U?MODBUSRTU
            CODE    69C2H     0021H     UNIT         ?PR?_SUB_STR2INT8S?SUB
            CODE    69E3H     0020H     UNIT         ?PR?_SUB_INT8U2STR?SUB
            CODE    6A03H     001EH     UNIT         ?PR?_SETANGZEROADD?ANGAPP
            CODE    6A21H     001EH     UNIT         ?PR?_ALARMX?ANGAPP
            CODE    6A3FH     001EH     UNIT         ?PR?_ALARMY?ANGAPP
            CODE    6A5DH     001EH     UNIT         ?PR?_ALARMS?ANGAPP
            CODE    6A7BH     001EH     UNIT         ?PR?COMM_HARDWAREINIT?COMM
            CODE    6A99H     001EH     UNIT         ?PR?INIT_ALL?INIT
            CODE    6AB7H     001EH     UNIT         ?PR?_MCUT_CALSAMP?CALMCUT
            CODE    6AD5H     001BH     UNIT         ?PR?SNXDATAINIT?SENSOR
            CODE    6AF0H     001BH     UNIT         ?PR?SNYDATAINIT?SENSOR
            CODE    6B0BH     001AH     UNIT         ?CO?ADCDRV
BL51 BANKED LINKER/LOCATER V6.22                                                      09/18/2013  13:48:52  PAGE 6


            CODE    6B25H     0019H     UNIT         ?PR?SYS_CLKINIT?INIT
            CODE    6B3EH     0019H     UNIT         ?PR?SUB_SENDSYSNUM?SUB
            CODE    6B57H     0018H     UNIT         ?PR?FLASH_USERDATAUPDATE?FLASH
            CODE    6B6FH     0018H     UNIT         ?PR?_COMM_PUTINT16U?SUB
            CODE    6B87H     0017H     UNIT         ?PR?_TEMP_RDTEMPVAL?CALIBRATION
            CODE    6B9EH     0017H     UNIT         ?PR?_TEMP_WRTEMPVAL?CALIBRATION
            CODE    6BB5H     0017H     UNIT         ?PR?_DELAY_MS?DELAY
            CODE    6BCCH     0017H     UNIT         ?PR?_MCUT_RDADCVAL?CALMCUT
            CODE    6BE3H     0017H     UNIT         ?PR?_MCUT_WRADCVAL?CALMCUT
            CODE    6BFAH     0016H     UNIT         ?PR?TEMP_CALSTOP?CMDSUB
            CODE    6C10H     0016H     UNIT         ?PR?_MODRTU_CHKCRC?MODBUSRTU
            CODE    6C26H     0016H     UNIT         ?PR?_COMM_PUTINT8U?SUB
            CODE    6C3CH     0015H     UNIT         ?PR?_SETTEMPXCALTEMPVAL?CALIBRATION
            CODE    6C51H     0015H     UNIT         ?PR?_SETTEMPYCALTEMPVAL?CALIBRATION
            CODE    6C66H     0015H     UNIT         ?PR?_SETTEMPXCALADCVAL?CALIBRATION
            CODE    6C7BH     0015H     UNIT         ?PR?_SETANGXCALADCVAL?CALIBRATION
            CODE    6C90H     0015H     UNIT         ?PR?_SETTEMPYCALADCVAL?CALIBRATION
            CODE    6CA5H     0015H     UNIT         ?PR?_SETANGYCALADCVAL?CALIBRATION
            CODE    6CBAH     0015H     UNIT         ?PR?_SETMCUTCALTEMPVAL?CALMCUT
            CODE    6CCFH     0015H     UNIT         ?PR?_SETMCUTCALADCVAL?CALMCUT
            CODE    6CE4H     0014H     UNIT         ?PR?_COMM_PUTINT32S?SUB
            CODE    6CF8H     0012H     UNIT         ?PR?TEMP_CALSTA?CMDSUB
            CODE    6D0AH     0012H     UNIT         ?PR?_SNXFILTER?SENSOR
            CODE    6D1CH     0012H     UNIT         ?PR?_SNYFILTER?SENSOR
            CODE    6D2EH     0012H     UNIT         ?PR?TIMER2_TASKINMAIN?TIMER
            CODE    6D40H     0011H     UNIT         ?PR?_TEMP_RDADCVAL?CALIBRATION
            CODE    6D51H     0011H     UNIT         ?PR?_TEMP_WRADCVAL?CALIBRATION
            CODE    6D62H     0011H     UNIT         ?PR?_ANG_RDADCVAL?CALIBRATION
            CODE    6D73H     0011H     UNIT         ?PR?_ANG_WRADCVAL?CALIBRATION
            CODE    6D84H     0011H     UNIT         ?PR?_MCUT_RDTEMPVAL?CALMCUT
            CODE    6D95H     0011H     UNIT         ?PR?_MCUT_WRTEMPVAL?CALMCUT
            CODE    6DA6H     000FH     UNIT         ?PR?DELAY_100US?DELAY
            CODE    6DB5H     000FH     UNIT         ?PR?GET_MCUTEMP?SENSOR
            CODE    6DC4H     000EH     UNIT         ?PR?_ANG_RDANGVAL?CALIBRATION
            CODE    6DD2H     000EH     UNIT         ?PR?_ANG_WRANGVAL?CALIBRATION
            CODE    6DE0H     000EH     UNIT         ?PR?FLASHCHK?FLASH
            CODE    6DEEH     000EH     UNIT         ?PR?SUB_SENDOK?SUB
            CODE    6DFCH     000EH     UNIT         ?PR?SUB_SENDERR?SUB
            CODE    6E0AH     000EH     UNIT         ?PR?SUB_SENDSOFTVER?SUB
            CODE    6E18H     000DH     UNIT         ?PR?_SETANGXSET?ANGAPP
            CODE    6E25H     000DH     UNIT         ?PR?_SETANGYSET?ANGAPP
            CODE    6E32H     000DH     UNIT         ?PR?_SETANGPSET?ANGAPP
            CODE    6E3FH     000DH     UNIT         ?PR?_MODRTU_RD16U?MODBUSRTU
            CODE    6E4CH     000DH     UNIT         ?PR?COMM_PUTNEWLINESTA?SUB
            CODE    6E59H     000CH     UNIT         ?PR?ADC_INIT?ADCDRV
            CODE    6E65H     000CH     UNIT         ?PR?_GETTEMPXCALTEMPVAL?CALIBRATION
            CODE    6E71H     000CH     UNIT         ?PR?_GETANGXCALANGVAL?CALIBRATION
            CODE    6E7DH     000CH     UNIT         ?PR?_GETTEMPYCALTEMPVAL?CALIBRATION
            CODE    6E89H     000CH     UNIT         ?PR?_GETANGYCALANGVAL?CALIBRATION
            CODE    6E95H     000CH     UNIT         ?PR?_GETTEMPXCALADCVAL?CALIBRATION
            CODE    6EA1H     000CH     UNIT         ?PR?_GETANGXCALADCVAL?CALIBRATION
            CODE    6EADH     000CH     UNIT         ?PR?_GETTEMPYCALADCVAL?CALIBRATION
            CODE    6EB9H     000CH     UNIT         ?PR?_GETANGYCALADCVAL?CALIBRATION
            CODE    6EC5H     000CH     UNIT         ?PR?_SETANGXCALANGVAL?CALIBRATION
            CODE    6ED1H     000CH     UNIT         ?PR?_SETANGYCALANGVAL?CALIBRATION
            CODE    6EDDH     000CH     UNIT         ?PR?_MODRTU_8TO16?MODBUSRTU
            CODE    6EE9H     000CH     UNIT         ?PR?_GETMCUTCALTEMPVAL?CALMCUT
BL51 BANKED LINKER/LOCATER V6.22                                                      09/18/2013  13:48:52  PAGE 7


            CODE    6EF5H     000CH     UNIT         ?PR?_GETMCUTCALADCVAL?CALMCUT
            CODE    6F01H     000BH     UNIT         ?PR?_SETTEMPXCALCNT?CALIBRATION
            CODE    6F0CH     000BH     UNIT         ?PR?_SETANGXCALCNT?CALIBRATION
            CODE    6F17H     000BH     UNIT         ?PR?_SETTEMPYCALCNT?CALIBRATION
            CODE    6F22H     000BH     UNIT         ?PR?_SETANGYCALCNT?CALIBRATION
            CODE    6F2DH     000BH     UNIT         ?PR?_DELAY_CYC?DELAY
            CODE    6F38H     000BH     UNIT         ?PR?_MODRTU_WRCRC?MODBUSRTU
            CODE    6F43H     000BH     UNIT         ?PR?SUB_SYSRST?SUB
            CODE    6F4EH     000BH     UNIT         ?PR?_SETMCUTCALCNT?CALMCUT
            CODE    6F59H     000AH     UNIT         ?PR?COMM_TIMERINIT?COMM
            CODE    6F63H     000AH     UNIT         ?PR?DELAY_MS_?DELAY
            CODE    6F6DH     0009H     UNIT         ?PR?ADC_GETXVAL?ADCDRV
            CODE    6F76H     0009H     UNIT         ?PR?ADC_GETYVAL?ADCDRV
            CODE    6F7FH     0009H     UNIT         ?PR?ADC_GETTEMP?ADCDRV
            CODE    6F88H     0009H     UNIT         ?PR?TEMPXCALCPRM?CALIBRATION
            CODE    6F91H     0009H     UNIT         ?PR?TEMPYCALCPRM?CALIBRATION
            CODE    6F9AH     0009H     UNIT         ?PR?ANGXCALCPRM?CALIBRATION
            CODE    6FA3H     0009H     UNIT         ?PR?ANGYCALCPRM?CALIBRATION
            CODE    6FACH     0009H     UNIT         ?PR?RAM_CALDATAINIT?FLASH
            CODE    6FB5H     0009H     UNIT         ?CO?KEY
            CODE    6FBEH     0009H     UNIT         ?PR?ANGXCALC?SENSOR
            CODE    6FC7H     0009H     UNIT         ?PR?ANGYCALC?SENSOR
            CODE    6FD0H     0009H     UNIT         ?PR?GETXFTVAL?SENSOR
            CODE    6FD9H     0009H     UNIT         ?PR?GETYFTVAL?SENSOR
            CODE    6FE2H     0009H     UNIT         ?PR?GETXOFTVAL?SENSOR
            CODE    6FEBH     0009H     UNIT         ?PR?GETYOFTVAL?SENSOR
            CODE    6FF4H     0008H     UNIT         ?PR?_SETTEMPCALCNT?CALIBRATION
            CODE    6FFCH     0008H     UNIT         ?PR?_SETANGCALCNT?CALIBRATION
            CODE    7004H     0008H     UNIT         ?PR?_GETXOFFSET?SENSOR
            CODE    700CH     0008H     UNIT         ?PR?_GETYOFFSET?SENSOR
            CODE    7014H     0007H     UNIT         ?PR?GETANGXSYSZERO?ANGAPP
            CODE    701BH     0007H     UNIT         ?PR?GETANGYSYSZERO?ANGAPP
            CODE    7022H     0007H     UNIT         ?PR?GETANGXUSRZERO?ANGAPP
            CODE    7029H     0007H     UNIT         ?PR?GETANGYUSRZERO?ANGAPP
            CODE    7030H     0007H     UNIT         ?PR?GETANGXINST?ANGAPP
            CODE    7037H     0007H     UNIT         ?PR?GETANGYINST?ANGAPP
            CODE    703EH     0007H     UNIT         ?PR?GETANGXSET?ANGAPP
            CODE    7045H     0007H     UNIT         ?PR?GETANGYSET?ANGAPP
            CODE    704CH     0007H     UNIT         ?PR?GETANGPSET?ANGAPP
            CODE    7053H     0007H     UNIT         ?PR?GETANGXZEROUSR?ANGAPP
            CODE    705AH     0007H     UNIT         ?PR?GETANGYZEROUSR?ANGAPP
            CODE    7061H     0007H     UNIT         ?PR?GETANGXRELSYS?ANGAPP
            CODE    7068H     0007H     UNIT         ?PR?GETANGYRELSYS?ANGAPP
            CODE    706FH     0007H     UNIT         ?PR?MAIN_TEMP?MAIN
            CODE    7076H     0007H     UNIT         ?PR?GETXANG?SENSOR
            CODE    707DH     0007H     UNIT         ?PR?GETYANG?SENSOR
            CODE    7084H     0006H     UNIT         ?PR?_SETANGXSYSZERO?ANGAPP
            CODE    708AH     0006H     UNIT         ?PR?_SETANGYSYSZERO?ANGAPP
            CODE    7090H     0006H     UNIT         ?PR?_SETANGXUSRZERO?ANGAPP
            CODE    7096H     0006H     UNIT         ?PR?_SETANGYUSRZERO?ANGAPP
            CODE    709CH     0006H     UNIT         ?PR?_SETANGXINST?ANGAPP
            CODE    70A2H     0006H     UNIT         ?PR?_SETANGYINST?ANGAPP
            CODE    70A8H     0006H     UNIT         ?PR?GETTEMPXCALCNT?CALIBRATION
            CODE    70AEH     0006H     UNIT         ?PR?GETANGXCALCNT?CALIBRATION
            CODE    70B4H     0006H     UNIT         ?PR?GETANGYCALCNT?CALIBRATION
            CODE    70BAH     0006H     UNIT         ?PR?COMM_SENDSTA?COMM
            CODE    70C0H     0006H     UNIT         ?PR?GETFILTERCNT?SENSOR
BL51 BANKED LINKER/LOCATER V6.22                                                      09/18/2013  13:48:52  PAGE 8


            CODE    70C6H     0006H     UNIT         ?PR?_SETFILTERCNT?SENSOR
            CODE    70CCH     0006H     UNIT         ?PR?GETMCUTCALCNT?CALMCUT
            CODE    70D2H     0006H     UNIT         ?PR?MCUT_CALSTOP?CALMCUT
            CODE    70D8H     0004H     UNIT         ?PR?ADC_VREFINIT?ADCDRV
            CODE    70DCH     0004H     UNIT         ?PR?ADC_ISRINIT?ADCDRV
            CODE    70E0H     0004H     UNIT         ?PR?_TEMP_SETCALCNT?CALIBRATION
            CODE    70E4H     0004H     UNIT         ?PR?_ANG_SETCALCNT?CALIBRATION
            CODE    70E8H     0004H     UNIT         ?PR?COMM_SENDSTOP?COMM
            CODE    70ECH     0004H     UNIT         ?PR?_MCUT_SETCALCNT?CALMCUT
            CODE    70F0H     0003H     UNIT         ?PR?MCUT_CALSTA?CALMCUT



OVERLAY MAP OF MODULE:   .\obj\164-0001-20130903 (?C_STARTUP)


SEGMENT                                        BIT_GROUP          DATA_GROUP          XDATA_GROUP
  +--> CALLED SEGMENT                       START    LENGTH     START    LENGTH     START    LENGTH
---------------------------------------------------------------------------------------------------
?C_C51STARTUP                               -----    -----      -----    -----      -----    -----
  +--> ?PR?MAIN?MAIN
  +--> ?C_INITSEG

?PR?MAIN?MAIN                               -----    -----      -----    -----      -----    -----
  +--> ?PR?INIT_ALL?INIT
  +--> ?PR?FLASH_CALDATAINIT?FLASH
  +--> ?PR?MAIN_TEMP?MAIN
  +--> ?PR?_DELAY_MS?DELAY
  +--> ?PR?SNPROC?SENSOR
  +--> ?PR?TIMER2_TASKINMAIN?TIMER
  +--> ?PR?SEND_TIMEPROC?SEND
  +--> ?PR?KEY_PROC?KEY
  +--> ?PR?ANGPROC?ANGAPP

?PR?INIT_ALL?INIT                           -----    -----      -----    -----      -----    -----
  +--> ?PR?SYS_PORTINIT?INIT
  +--> ?PR?SYS_CLKINIT?INIT
  +--> ?PR?COMM_HARDWAREINIT?COMM
  +--> ?PR?COMM_SOFTWAREINIT?COMM
  +--> ?PR?TIMER2_INIT?TIMER
  +--> ?PR?INIT_SYSTEMPARA?INIT
  +--> ?PR?ANGINIT?ANGAPP
  +--> ?PR?ADC_INIT?ADCDRV
  +--> ?PR?ADC_ENABLE?ADCDRV
  +--> ?PR?CALIBMTINIT?CALMCUT

?PR?COMM_SOFTWAREINIT?COMM                  -----    -----      0021H    0003H      -----    -----

?PR?TIMER2_INIT?TIMER                       -----    -----      -----    -----      -----    -----
  +--> ?CO?SEND

?PR?INIT_SYSTEMPARA?INIT                    -----    -----      -----    -----      -----    -----
  +--> ?CO?SEND

?PR?ANGINIT?ANGAPP                          -----    -----      -----    -----      -----    -----
  +--> ?PR?SNINIT?SENSOR
  +--> ?PR?_SETANGXINST?ANGAPP
BL51 BANKED LINKER/LOCATER V6.22                                                      09/18/2013  13:48:52  PAGE 9


  +--> ?PR?_SETANGYINST?ANGAPP
  +--> ?PR?_SETANGXSYSZERO?ANGAPP
  +--> ?PR?_SETANGYSYSZERO?ANGAPP
  +--> ?PR?_SETANGXUSRZERO?ANGAPP
  +--> ?PR?_SETANGYUSRZERO?ANGAPP
  +--> ?PR?_SETANGXSET?ANGAPP
  +--> ?PR?_SETANGYSET?ANGAPP
  +--> ?PR?_SETANGPSET?ANGAPP

?PR?SNINIT?SENSOR                           -----    -----      -----    -----      -----    -----
  +--> ?PR?CALIBINIT?CALIBRATION
  +--> ?PR?_SETFILTERCNT?SENSOR
  +--> ?PR?SNXDATAINIT?SENSOR
  +--> ?PR?_SNXFILTER?SENSOR
  +--> ?PR?_GETXOFFSET?SENSOR
  +--> ?PR?ANGXCALC?SENSOR
  +--> ?PR?SNYDATAINIT?SENSOR
  +--> ?PR?_SNYFILTER?SENSOR
  +--> ?PR?_GETYOFFSET?SENSOR
  +--> ?PR?ANGYCALC?SENSOR

?PR?CALIBINIT?CALIBRATION                   -----    -----      -----    -----      -----    -----
  +--> ?PR?_SETTEMPXCALCNT?CALIBRATION
  +--> ?PR?_GETTEMPXCALTEMPVAL?CALIBRATION
  +--> ?PR?_GETTEMPXCALADCVAL?CALIBRATION
  +--> ?PR?_SETTEMPXCALTEMPVAL?CALIBRATION
  +--> ?PR?_SETTEMPXCALADCVAL?CALIBRATION
  +--> ?PR?_SETTEMPYCALCNT?CALIBRATION
  +--> ?PR?_GETTEMPYCALTEMPVAL?CALIBRATION
  +--> ?PR?_GETTEMPYCALADCVAL?CALIBRATION
  +--> ?PR?_SETTEMPYCALTEMPVAL?CALIBRATION
  +--> ?PR?_SETTEMPYCALADCVAL?CALIBRATION
  +--> ?PR?_SETANGXCALCNT?CALIBRATION
  +--> ?PR?_GETANGXCALANGVAL?CALIBRATION
  +--> ?PR?_GETANGXCALADCVAL?CALIBRATION
  +--> ?PR?_SETANGXCALANGVAL?CALIBRATION
  +--> ?PR?_SETANGXCALADCVAL?CALIBRATION
  +--> ?PR?_SETANGYCALCNT?CALIBRATION
  +--> ?PR?_GETANGYCALANGVAL?CALIBRATION
  +--> ?PR?_GETANGYCALADCVAL?CALIBRATION
  +--> ?PR?_SETANGYCALANGVAL?CALIBRATION
  +--> ?PR?_SETANGYCALADCVAL?CALIBRATION

?PR?_SETTEMPXCALCNT?CALIBRATION             -----    -----      -----    -----      -----    -----
  +--> ?PR?_TEMP_SETCALCNT?CALIBRATION

?PR?_GETTEMPXCALTEMPVAL?CALIBRATION         -----    -----      -----    -----      -----    -----
  +--> ?PR?_TEMP_RDTEMPVAL?CALIBRATION

?PR?_GETTEMPXCALADCVAL?CALIBRATION          -----    -----      -----    -----      -----    -----
  +--> ?PR?_TEMP_RDADCVAL?CALIBRATION

?PR?_SETTEMPXCALTEMPVAL?CALIBRATION         -----    -----      -----    -----      -----    -----
  +--> ?PR?_TEMP_WRTEMPVAL?CALIBRATION

?PR?_TEMP_WRTEMPVAL?CALIBRATION             -----    -----      0026H    0006H      -----    -----

BL51 BANKED LINKER/LOCATER V6.22                                                      09/18/2013  13:48:52  PAGE 10


?PR?_SETTEMPXCALADCVAL?CALIBRATION          -----    -----      -----    -----      -----    -----
  +--> ?PR?_TEMP_WRADCVAL?CALIBRATION

?PR?_TEMP_WRADCVAL?CALIBRATION              -----    -----      0026H    0006H      -----    -----

?PR?_SETTEMPYCALCNT?CALIBRATION             -----    -----      -----    -----      -----    -----
  +--> ?PR?_TEMP_SETCALCNT?CALIBRATION

?PR?_GETTEMPYCALTEMPVAL?CALIBRATION         -----    -----      -----    -----      -----    -----
  +--> ?PR?_TEMP_RDTEMPVAL?CALIBRATION

?PR?_GETTEMPYCALADCVAL?CALIBRATION          -----    -----      -----    -----      -----    -----
  +--> ?PR?_TEMP_RDADCVAL?CALIBRATION

?PR?_SETTEMPYCALTEMPVAL?CALIBRATION         -----    -----      -----    -----      -----    -----
  +--> ?PR?_TEMP_WRTEMPVAL?CALIBRATION

?PR?_SETTEMPYCALADCVAL?CALIBRATION          -----    -----      -----    -----      -----    -----
  +--> ?PR?_TEMP_WRADCVAL?CALIBRATION

?PR?_SETANGXCALCNT?CALIBRATION              -----    -----      -----    -----      -----    -----
  +--> ?PR?_ANG_SETCALCNT?CALIBRATION

?PR?_GETANGXCALANGVAL?CALIBRATION           -----    -----      -----    -----      -----    -----
  +--> ?PR?_ANG_RDANGVAL?CALIBRATION

?PR?_GETANGXCALADCVAL?CALIBRATION           -----    -----      -----    -----      -----    -----
  +--> ?PR?_ANG_RDADCVAL?CALIBRATION

?PR?_SETANGXCALANGVAL?CALIBRATION           -----    -----      0039H    0005H      -----    -----
  +--> ?PR?_ANG_WRANGVAL?CALIBRATION

?PR?_ANG_WRANGVAL?CALIBRATION               -----    -----      003EH    0008H      -----    -----

?PR?_SETANGXCALADCVAL?CALIBRATION           -----    -----      -----    -----      -----    -----
  +--> ?PR?_ANG_WRADCVAL?CALIBRATION

?PR?_ANG_WRADCVAL?CALIBRATION               -----    -----      0039H    0006H      -----    -----

?PR?_SETANGYCALCNT?CALIBRATION              -----    -----      -----    -----      -----    -----
  +--> ?PR?_ANG_SETCALCNT?CALIBRATION

?PR?_GETANGYCALANGVAL?CALIBRATION           -----    -----      -----    -----      -----    -----
  +--> ?PR?_ANG_RDANGVAL?CALIBRATION

?PR?_GETANGYCALADCVAL?CALIBRATION           -----    -----      -----    -----      -----    -----
  +--> ?PR?_ANG_RDADCVAL?CALIBRATION

?PR?_SETANGYCALANGVAL?CALIBRATION           -----    -----      0039H    0005H      -----    -----
  +--> ?PR?_ANG_WRANGVAL?CALIBRATION

?PR?_SETANGYCALADCVAL?CALIBRATION           -----    -----      -----    -----      -----    -----
  +--> ?PR?_ANG_WRADCVAL?CALIBRATION

?PR?SNXDATAINIT?SENSOR                      -----    -----      -----    -----      -----    -----
  +--> ?PR?_SN_DATAINIT?SENSOR

BL51 BANKED LINKER/LOCATER V6.22                                                      09/18/2013  13:48:52  PAGE 11


?PR?_SN_DATAINIT?SENSOR                     -----    -----      0021H    0009H      -----    -----

?PR?_SNXFILTER?SENSOR                       -----    -----      -----    -----      -----    -----
  +--> ?PR?_SNFILTER?SENSOR

?PR?_SNFILTER?SENSOR                        -----    -----      0021H    0006H      -----    -----
  +--> ?PR?_VALINRANGE?FILTER
  +--> ?PR?_FILTER_1ST?FILTER

?PR?_FILTER_1ST?FILTER                      -----    -----      0027H    0007H      -----    -----

?PR?_GETXOFFSET?SENSOR                      -----    -----      -----    -----      -----    -----
  +--> ?PR?_GETOFFSET?SENSOR

?PR?_GETOFFSET?SENSOR                       -----    -----      0021H    0006H      -----    -----

?PR?ANGXCALC?SENSOR                         -----    -----      -----    -----      -----    -----
  +--> ?PR?_ANG_CALC?SENSOR

?PR?_ANG_CALC?SENSOR                        -----    -----      0021H    0007H      -----    -----
  +--> ?PR?_GETANGCALCVAL?SENSOR
  +--> ?PR?ASIN?ASIN

?PR?_GETANGCALCVAL?SENSOR                   -----    -----      0028H    0006H      -----    -----

?PR?ASIN?ASIN                               -----    -----      -----    -----      -----    -----
  +--> ?PR?SQRT?SQRT
  +--> ?PR?ATAN?ATAN

?PR?SQRT?SQRT                               -----    -----      004AH    0004H      -----    -----

?PR?ATAN?ATAN                               0020H.2  0000H.2    004AH    0004H      -----    -----

?PR?SNYDATAINIT?SENSOR                      -----    -----      -----    -----      -----    -----
  +--> ?PR?_SN_DATAINIT?SENSOR

?PR?_SNYFILTER?SENSOR                       -----    -----      -----    -----      -----    -----
  +--> ?PR?_SNFILTER?SENSOR

?PR?_GETYOFFSET?SENSOR                      -----    -----      -----    -----      -----    -----
  +--> ?PR?_GETOFFSET?SENSOR

?PR?ANGYCALC?SENSOR                         -----    -----      -----    -----      -----    -----
  +--> ?PR?_ANG_CALC?SENSOR

?PR?ADC_INIT?ADCDRV                         -----    -----      -----    -----      -----    -----
  +--> ?PR?ADC_SETINIT?ADCDRV
  +--> ?PR?ADC_VREFINIT?ADCDRV
  +--> ?PR?ADC_ISRINIT?ADCDRV
  +--> ?PR?ADCENTITYINIT?ADCDRV

?PR?CALIBMTINIT?CALMCUT                     -----    -----      -----    -----      -----    -----
  +--> ?PR?_SETMCUTCALCNT?CALMCUT
  +--> ?PR?_GETMCUTCALTEMPVAL?CALMCUT
  +--> ?PR?_GETMCUTCALADCVAL?CALMCUT
  +--> ?PR?_SETMCUTCALTEMPVAL?CALMCUT
  +--> ?PR?_SETMCUTCALADCVAL?CALMCUT
BL51 BANKED LINKER/LOCATER V6.22                                                      09/18/2013  13:48:52  PAGE 12



?PR?_SETMCUTCALCNT?CALMCUT                  -----    -----      -----    -----      -----    -----
  +--> ?PR?_MCUT_SETCALCNT?CALMCUT

?PR?_GETMCUTCALTEMPVAL?CALMCUT              -----    -----      -----    -----      -----    -----
  +--> ?PR?_MCUT_RDTEMPVAL?CALMCUT

?PR?_GETMCUTCALADCVAL?CALMCUT               -----    -----      -----    -----      -----    -----
  +--> ?PR?_MCUT_RDADCVAL?CALMCUT

?PR?_SETMCUTCALTEMPVAL?CALMCUT              -----    -----      -----    -----      -----    -----
  +--> ?PR?_MCUT_WRTEMPVAL?CALMCUT

?PR?_MCUT_WRTEMPVAL?CALMCUT                 -----    -----      0026H    0006H      -----    -----

?PR?_SETMCUTCALADCVAL?CALMCUT               -----    -----      -----    -----      -----    -----
  +--> ?PR?_MCUT_WRADCVAL?CALMCUT

?PR?_MCUT_WRADCVAL?CALMCUT                  -----    -----      0026H    0006H      -----    -----

?PR?FLASH_CALDATAINIT?FLASH                 -----    -----      0021H    0001H      -----    -----
  +--> ?PR?_FLASH_BUFRD?FLASH
  +--> ?PR?FLASHCHK?FLASH
  +--> ?PR?RAM_CALDATAINIT?FLASH
  +--> ?PR?FLASH_CALDATAUPDATE?FLASH
  +--> ?PR?_RAM_BUF2CALDATA?FLASH
  +--> ?PR?_FLASH_CHECKSUM?FLASH
  +--> ?PR?FLASHAREA_USER?FLASH
  +--> ?PR?_FLASH_CALDATAUPDATE_USER?FLASH
  +--> ?PR?GETANGXCALCNT?CALIBRATION
  +--> ?PR?GETANGYCALCNT?CALIBRATION
  +--> ?PR?ADC_XCALSTOP?CMDSUB
  +--> ?PR?ADC_YCALSTOP?CMDSUB
  +--> ?PR?TEMP_CALSTOP?CMDSUB
  +--> ?PR?MCUT_CALSTOP?CALMCUT
  +--> ?CO?SEND

?PR?_FLASH_BUFRD?FLASH                      0020H.2  0000H.1    0022H    0009H      -----    -----

?PR?RAM_CALDATAINIT?FLASH                   -----    -----      -----    -----      -----    -----
  +--> ?PR?ANGCALDATAINIT?CALIBRATION
  +--> ?PR?TEMPCALDATAINIT?CALIBRATION
  +--> ?PR?MTCALDATAINIT?CALMCUT

?PR?ANGCALDATAINIT?CALIBRATION              -----    -----      -----    -----      -----    -----
  +--> ?PR?_SETANGCALCNT?CALIBRATION

?PR?_SETANGCALCNT?CALIBRATION               -----    -----      -----    -----      -----    -----
  +--> ?PR?_SETANGXCALCNT?CALIBRATION
  +--> ?PR?_SETANGYCALCNT?CALIBRATION

?PR?TEMPCALDATAINIT?CALIBRATION             -----    -----      0022H    0001H      -----    -----
  +--> ?PR?_SETTEMPCALCNT?CALIBRATION

?PR?_SETTEMPCALCNT?CALIBRATION              -----    -----      -----    -----      -----    -----
  +--> ?PR?_SETTEMPXCALCNT?CALIBRATION
  +--> ?PR?_SETTEMPYCALCNT?CALIBRATION
BL51 BANKED LINKER/LOCATER V6.22                                                      09/18/2013  13:48:52  PAGE 13



?PR?MTCALDATAINIT?CALMCUT                   -----    -----      0022H    0001H      -----    -----
  +--> ?PR?_SETMCUTCALCNT?CALMCUT

?PR?FLASH_CALDATAUPDATE?FLASH               -----    -----      -----    -----      -----    -----
  +--> ?PR?_RAM_CALDATA2BUF?FLASH
  +--> ?PR?_FLASHUPDATE?FLASH

?PR?_RAM_CALDATA2BUF?FLASH                  -----    -----      0042H    0006H      -----    -----
  +--> ?PR?_GETANGXCALANGVAL?CALIBRATION
  +--> ?PR?_GETANGYCALANGVAL?CALIBRATION
  +--> ?PR?_GETANGXCALADCVAL?CALIBRATION
  +--> ?PR?_GETANGYCALADCVAL?CALIBRATION
  +--> ?PR?_GETTEMPXCALTEMPVAL?CALIBRATION
  +--> ?PR?_GETTEMPXCALADCVAL?CALIBRATION
  +--> ?PR?_GETTEMPYCALADCVAL?CALIBRATION
  +--> ?PR?GETANGXCALCNT?CALIBRATION
  +--> ?PR?GETTEMPXCALCNT?CALIBRATION
  +--> ?PR?GETANGXSYSZERO?ANGAPP
  +--> ?PR?GETANGYSYSZERO?ANGAPP
  +--> ?PR?GETMCUTCALCNT?CALMCUT
  +--> ?PR?_GETMCUTCALTEMPVAL?CALMCUT
  +--> ?PR?_GETMCUTCALADCVAL?CALMCUT
  +--> ?PR?GETFILTERCNT?SENSOR
  +--> ?PR?GETANGXUSRZERO?ANGAPP
  +--> ?PR?GETANGYUSRZERO?ANGAPP
  +--> ?PR?GETANGXINST?ANGAPP
  +--> ?PR?GETANGYINST?ANGAPP
  +--> ?PR?GETANGXSET?ANGAPP
  +--> ?PR?GETANGYSET?ANGAPP
  +--> ?PR?GETANGPSET?ANGAPP
  +--> ?PR?_FLASH_CHECKSUM?FLASH

?PR?_FLASH_CHECKSUM?FLASH                   -----    -----      0048H    0005H      -----    -----

?PR?_FLASHUPDATE?FLASH                      0020H.2  0000H.1    0042H    0007H      -----    -----
  +--> ?PR?_FLASH_PAGEERASE?FLASH
  +--> ?PR?_DELAY_MS?DELAY
  +--> ?PR?_FLASH_BUFWR?FLASH

?PR?_FLASH_PAGEERASE?FLASH                  0020H.3  0000H.1    -----    -----      -----    -----

?PR?_DELAY_MS?DELAY                         -----    -----      -----    -----      -----    -----
  +--> ?PR?DELAY_MS_?DELAY

?PR?DELAY_MS_?DELAY                         -----    -----      -----    -----      -----    -----
  +--> ?PR?DELAY_100US?DELAY

?PR?_FLASH_BUFWR?FLASH                      0020H.3  0000H.1    0049H    000BH      -----    -----

?PR?_RAM_BUF2CALDATA?FLASH                  -----    -----      0022H    0004H      -----    -----
  +--> ?PR?_SETANGXCALANGVAL?CALIBRATION
  +--> ?PR?_SETANGYCALANGVAL?CALIBRATION
  +--> ?PR?_SETANGXCALADCVAL?CALIBRATION
  +--> ?PR?_SETANGYCALADCVAL?CALIBRATION
  +--> ?PR?_SETTEMPXCALTEMPVAL?CALIBRATION
  +--> ?PR?_SETTEMPXCALADCVAL?CALIBRATION
BL51 BANKED LINKER/LOCATER V6.22                                                      09/18/2013  13:48:52  PAGE 14


  +--> ?PR?_SETTEMPYCALADCVAL?CALIBRATION
  +--> ?PR?_SETANGCALCNT?CALIBRATION
  +--> ?PR?_SETTEMPCALCNT?CALIBRATION
  +--> ?PR?_SETANGXSYSZERO?ANGAPP
  +--> ?PR?_SETANGYSYSZERO?ANGAPP
  +--> ?PR?_SETMCUTCALCNT?CALMCUT
  +--> ?PR?_SETMCUTCALTEMPVAL?CALMCUT
  +--> ?PR?_SETMCUTCALADCVAL?CALMCUT
  +--> ?PR?_SETFILTERCNT?SENSOR
  +--> ?PR?_SETANGXUSRZERO?ANGAPP
  +--> ?PR?_SETANGYUSRZERO?ANGAPP
  +--> ?PR?_SETANGXINST?ANGAPP
  +--> ?PR?_SETANGYINST?ANGAPP
  +--> ?PR?_SETANGXSET?ANGAPP
  +--> ?PR?_SETANGYSET?ANGAPP
  +--> ?PR?_SETANGPSET?ANGAPP

?PR?FLASHAREA_USER?FLASH                    -----    -----      -----    -----      -----    -----
  +--> ?PR?_FLASH_BUFRD?FLASH
  +--> ?PR?FLASHCHK?FLASH
  +--> ?PR?_FLASH_CHECKSUM?FLASH
  +--> ?PR?RAM_CALDATAINIT_USER?FLASH
  +--> ?PR?_FLASH_CALDATAUPDATE_USER?FLASH
  +--> ?PR?_RAM_BUF2CALDATA?FLASH

?PR?RAM_CALDATAINIT_USER?FLASH              -----    -----      -----    -----      -----    -----
  +--> ?PR?_SETANGXUSRZERO?ANGAPP
  +--> ?PR?_SETANGYUSRZERO?ANGAPP
  +--> ?PR?_SETANGXSET?ANGAPP
  +--> ?PR?_SETANGYSET?ANGAPP
  +--> ?PR?_SETANGPSET?ANGAPP
  +--> ?PR?_SETANGXINST?ANGAPP
  +--> ?PR?_SETANGYINST?ANGAPP
  +--> ?PR?INIT_SYSTEMPARA?INIT

?PR?_FLASH_CALDATAUPDATE_USER?FLASH         -----    -----      0039H    0009H      -----    -----
  +--> ?PR?_RAM_CALDATA2BUF?FLASH
  +--> ?PR?_FLASHUPDATE?FLASH

?PR?ADC_XCALSTOP?CMDSUB                     -----    -----      0022H    0001H      -----    -----
  +--> ?PR?_SUB_BUFBUBBLE32S?SUB
  +--> ?PR?ANGXCALCPRM?CALIBRATION

?PR?_SUB_BUFBUBBLE32S?SUB                   -----    -----      0023H    0009H      -----    -----
  +--> ?PR?_SUB_SBUFSWITCH?SUB
  +--> ?PR?_SUB_UBUFSWITCH?SUB

?PR?_SUB_SBUFSWITCH?SUB                     -----    -----      002CH    0009H      -----    -----

?PR?_SUB_UBUFSWITCH?SUB                     -----    -----      003DH    0007H      -----    -----

?PR?ANGXCALCPRM?CALIBRATION                 -----    -----      -----    -----      -----    -----
  +--> ?PR?_ANG_CALCPRM?CALIBRATION

?PR?_ANG_CALCPRM?CALIBRATION                -----    -----      0023H    000CH      -----    -----
  +--> ?PR?SIN?SIN

BL51 BANKED LINKER/LOCATER V6.22                                                      09/18/2013  13:48:52  PAGE 15


?PR?SIN?SIN                                 0020H.2  0000H.1    004AH    0004H      -----    -----

?PR?ADC_YCALSTOP?CMDSUB                     -----    -----      0022H    0001H      -----    -----
  +--> ?PR?_SUB_BUFBUBBLE32S?SUB
  +--> ?PR?ANGYCALCPRM?CALIBRATION

?PR?ANGYCALCPRM?CALIBRATION                 -----    -----      -----    -----      -----    -----
  +--> ?PR?_ANG_CALCPRM?CALIBRATION

?PR?TEMP_CALSTOP?CMDSUB                     -----    -----      -----    -----      -----    -----
  +--> ?PR?TEMPSORTANDCALCPRM?CMDSUB

?PR?TEMPSORTANDCALCPRM?CMDSUB               -----    -----      -----    -----      -----    -----
  +--> ?PR?_SUB_BUFBUBBLE16U?SUB
  +--> ?PR?TEMPXCALCPRM?CALIBRATION
  +--> ?PR?TEMPYCALCPRM?CALIBRATION

?PR?_SUB_BUFBUBBLE16U?SUB                   -----    -----      0031H    000CH      -----    -----
  +--> ?PR?_SUB_UBUFSWITCH?SUB
  +--> ?PR?_SUB_16SBUFSWITCH?SUB

?PR?_SUB_16SBUFSWITCH?SUB                   -----    -----      003DH    0007H      -----    -----

?PR?TEMPXCALCPRM?CALIBRATION                -----    -----      -----    -----      -----    -----
  +--> ?PR?_TEMP_CALCPRM?CALIBRATION

?PR?_TEMP_CALCPRM?CALIBRATION               -----    -----      0031H    0004H      -----    -----

?PR?TEMPYCALCPRM?CALIBRATION                -----    -----      -----    -----      -----    -----
  +--> ?PR?_TEMP_CALCPRM?CALIBRATION

?PR?MCUT_CALSTOP?CALMCUT                    -----    -----      -----    -----      -----    -----
  +--> ?PR?MCUTCALCPRM?CALMCUT

?PR?MCUTCALCPRM?CALMCUT                     -----    -----      -----    -----      -----    -----
  +--> ?PR?_SUB_BUFBUBBLE16S?SUB
  +--> ?PR?_MCUT_CALCPRM?CALMCUT

?PR?_SUB_BUFBUBBLE16S?SUB                   -----    -----      0025H    0009H      -----    -----
  +--> ?PR?_SUB_16SBUFSWITCH?SUB
  +--> ?PR?_SUB_UBUFSWITCH?SUB

?PR?_MCUT_CALCPRM?CALMCUT                   -----    -----      0025H    0008H      -----    -----

?PR?SNPROC?SENSOR                           -----    -----      -----    -----      -----    -----
  +--> ?PR?ADC_GETXVAL?ADCDRV
  +--> ?PR?GET_MCUTEMP?SENSOR
  +--> ?PR?ADC_GETYVAL?ADCDRV

?PR?GET_MCUTEMP?SENSOR                      -----    -----      -----    -----      -----    -----
  +--> ?PR?ADC_GETTEMP?ADCDRV

?PR?TIMER2_TASKINMAIN?TIMER                 -----    -----      -----    -----      -----    -----
  +--> ?PR?SUB_SENDANGXY?SUB

?PR?SUB_SENDANGXY?SUB                       -----    -----      -----    -----      -----    -----
  +--> ?CO?SUB
BL51 BANKED LINKER/LOCATER V6.22                                                      09/18/2013  13:48:52  PAGE 16


  +--> ?PR?_COMM_PUTSTR?COMM
  +--> ?PR?GETXANGALLSETVAL?ANGAPP
  +--> ?PR?_COMM_PUTINT32S?SUB
  +--> ?PR?GETYANGALLSETVAL?ANGAPP
  +--> ?PR?COMM_PUTNEWLINESTA?SUB

?PR?_COMM_PUTSTR?COMM                       -----    -----      0039H    0003H      -----    -----
  +--> ?PR?_COMM_PUTCHAR?COMM

?PR?_COMM_PUTCHAR?COMM                      -----    -----      003CH    0003H      -----    -----

?PR?GETXANGALLSETVAL?ANGAPP                 -----    -----      003AH    0004H      -----    -----
  +--> ?PR?GETXANG?SENSOR
  +--> ?PR?_SETANGZERO?ANGAPP
  +--> ?PR?_SETANGZEROADD?ANGAPP

?PR?_SETANGZERO?ANGAPP                      -----    -----      003EH    0004H      -----    -----

?PR?_SETANGZEROADD?ANGAPP                   -----    -----      003EH    0004H      -----    -----

?PR?_COMM_PUTINT32S?SUB                     -----    -----      -----    -----      -----    -----
  +--> ?PR?_SUB_INT32S2STR?SUB
  +--> ?PR?_COMM_PUTSTR?COMM

?PR?_SUB_INT32S2STR?SUB                     -----    -----      002CH    0007H      -----    -----

?PR?GETYANGALLSETVAL?ANGAPP                 -----    -----      003AH    0004H      -----    -----
  +--> ?PR?GETYANG?SENSOR
  +--> ?PR?_SETANGZERO?ANGAPP
  +--> ?PR?_SETANGZEROADD?ANGAPP

?PR?COMM_PUTNEWLINESTA?SUB                  -----    -----      -----    -----      -----    -----
  +--> ?PR?_COMM_PUTCHAR?COMM
  +--> ?PR?COMM_SENDSTA?COMM

?PR?SEND_TIMEPROC?SEND                      -----    -----      -----    -----      -----    -----
  +--> ?PR?_COMM_GETCHAR?COMM
  +--> ?PR?_MODRTU_RXPROC?MODBUSRTU
  +--> ?PR?_SEND_RDEAL?SEND
  +--> ?PR?_SEND_CDEAL?SEND
  +--> ?PR?_SEND_SDEAL?SEND
  +--> ?PR?_SEND_UDEAL?SEND
  +--> ?PR?_SEND_WDEAL?SEND
  +--> ?PR?_SEND_TDEAL?SEND

?PR?_COMM_GETCHAR?COMM                      -----    -----      0021H    0006H      -----    -----

?PR?_MODRTU_RXPROC?MODBUSRTU                -----    -----      0021H    0004H      -----    -----
  +--> ?PR?_MODRTU_CHKCRC?MODBUSRTU
  +--> ?PR?_MODRTU_RDREG?MODBUSRTU
  +--> ?PR?_MODRTU_WRREG?MODBUSRTU
  +--> ?PR?_MODRTU_RLYERROR?MODBUSRTU

?PR?_MODRTU_CHKCRC?MODBUSRTU                -----    -----      -----    -----      -----    -----
  +--> ?PR?_MODBUSCRCCNT?MODBUSCRC

?PR?_MODBUSCRCCNT?MODBUSCRC                 -----    -----      0035H    0003H      -----    -----
BL51 BANKED LINKER/LOCATER V6.22                                                      09/18/2013  13:48:52  PAGE 17


  +--> ?CO?MODBUSCRC

?PR?_MODRTU_RDREG?MODBUSRTU                 -----    -----      0025H    000DH      -----    -----
  +--> ?PR?_MODRTU_8TO16?MODBUSRTU
  +--> ?PR?_MODRTU_RDVAL?MODBUSRTU
  +--> ?PR?_MODRTU_RLYERROR?MODBUSRTU
  +--> ?PR?_MODBUSCRCCNT?MODBUSCRC
  +--> ?PR?_MODRTU_WRCRC?MODBUSRTU
  +--> ?PR?_COMM_PUTSTR?COMM
  +--> ?PR?COMM_SENDSTA?COMM

?PR?_MODRTU_RDVAL?MODBUSRTU                 -----    -----      0032H    0008H      0C48H    0004H
  +--> ?PR?GETXANGALLSETVAL?ANGAPP
  +--> ?PR?GETYANGALLSETVAL?ANGAPP
  +--> ?PR?GETANGP?ANGAPP
  +--> ?PR?GETANGXINST?ANGAPP
  +--> ?PR?GETANGYINST?ANGAPP
  +--> ?PR?GETANGXSET?ANGAPP
  +--> ?PR?GETANGYSET?ANGAPP
  +--> ?PR?GETANGPSET?ANGAPP
  +--> ?PR?GET_MCUTEMP?SENSOR
  +--> ?PR?_GETTEMPXCALTEMPVAL?CALIBRATION
  +--> ?PR?_GETTEMPXCALADCVAL?CALIBRATION
  +--> ?PR?_GETTEMPYCALADCVAL?CALIBRATION
  +--> ?PR?GETXOFTVAL?SENSOR
  +--> ?PR?_FLOATTOINT?MODBUSRTU
  +--> ?PR?_GETANGXCALADCVAL?CALIBRATION
  +--> ?PR?_GETANGXCALANGVAL?CALIBRATION
  +--> ?PR?GETYOFTVAL?SENSOR
  +--> ?PR?_GETANGYCALADCVAL?CALIBRATION
  +--> ?PR?_GETANGYCALANGVAL?CALIBRATION
  +--> ?PR?GETXFTVAL?SENSOR
  +--> ?PR?GETYFTVAL?SENSOR
  +--> ?PR?GETXANG?SENSOR
  +--> ?PR?GETYANG?SENSOR
  +--> ?PR?GETANGXRELSYS?ANGAPP
  +--> ?PR?GETANGYRELSYS?ANGAPP
  +--> ?PR?GETANGXZEROUSR?ANGAPP
  +--> ?PR?GETANGYZEROUSR?ANGAPP
  +--> ?PR?GETANGXSYSZERO?ANGAPP
  +--> ?PR?GETANGYSYSZERO?ANGAPP
  +--> ?PR?GETANGXUSRZERO?ANGAPP
  +--> ?PR?GETANGYUSRZERO?ANGAPP
  +--> ?PR?GETANGXCALCNT?CALIBRATION
  +--> ?PR?GETTEMPXCALCNT?CALIBRATION
  +--> ?PR?GETFILTERCNT?SENSOR
  +--> ?PR?_MODRTU_RD16U?MODBUSRTU

?PR?GETANGP?ANGAPP                          -----    -----      -----    -----      -----    -----
  +--> ?PR?GETXANGALLSETVAL?ANGAPP
  +--> ?PR?GETYANGALLSETVAL?ANGAPP
  +--> ?PR?_PANGCALC?ANGAPP

?PR?_PANGCALC?ANGAPP                        -----    -----      003AH    0010H      -----    -----
  +--> ?PR?SIN?SIN
  +--> ?PR?SQRT?SQRT
  +--> ?PR?ASIN?ASIN
BL51 BANKED LINKER/LOCATER V6.22                                                      09/18/2013  13:48:52  PAGE 18



?PR?_FLOATTOINT?MODBUSRTU                   -----    -----      003AH    000CH      -----    -----

?PR?_MODRTU_RLYERROR?MODBUSRTU              -----    -----      0032H    0003H      -----    -----
  +--> ?PR?_MODBUSCRCCNT?MODBUSCRC
  +--> ?PR?_COMM_PUTSTR?COMM
  +--> ?PR?COMM_SENDSTA?COMM

?PR?_MODRTU_WRREG?MODBUSRTU                 -----    -----      0025H    000CH      -----    -----
  +--> ?PR?_MODRTU_8TO16?MODBUSRTU
  +--> ?PR?_MODRTU_WRVAL?MODBUSRTU
  +--> ?PR?_MODRTU_RLYERROR?MODBUSRTU
  +--> ?PR?_MODBUSCRCCNT?MODBUSCRC
  +--> ?PR?_MODRTU_WRCRC?MODBUSRTU
  +--> ?PR?_COMM_PUTSTR?COMM
  +--> ?PR?COMM_SENDSTA?COMM
  +--> ?PR?FLASH_USERDATAUPDATE?FLASH

?PR?_MODRTU_WRVAL?MODBUSRTU                 -----    -----      0031H    0008H      0C48H    0008H
  +--> ?PR?_MODRTU_WR16U?MODBUSRTU
  +--> ?PR?_SETANGXINST?ANGAPP
  +--> ?PR?_SETANGYINST?ANGAPP
  +--> ?PR?_SETANGXSET?ANGAPP
  +--> ?PR?_SETANGYSET?ANGAPP
  +--> ?PR?_SETANGPSET?ANGAPP
  +--> ?PR?_MODRTU_SETZERO?MODBUSRTU
  +--> ?PR?_MODRTU_WRADDR?MODBUSRTU
  +--> ?PR?_MODRTU_WRBAUD?MODBUSRTU
  +--> ?PR?GETANGXRELSYS?ANGAPP
  +--> ?PR?_SETANGXUSRZERO?ANGAPP
  +--> ?PR?FLASH_USERDATAUPDATE?FLASH
  +--> ?PR?_SETANGCALCNT?CALIBRATION
  +--> ?PR?GETANGXCALCNT?CALIBRATION
  +--> ?PR?_SETANGXCALANGVAL?CALIBRATION
  +--> ?PR?GETXOFTVAL?SENSOR
  +--> ?PR?_SETANGXCALADCVAL?CALIBRATION
  +--> ?PR?_SETANGYCALANGVAL?CALIBRATION
  +--> ?PR?GETYOFTVAL?SENSOR
  +--> ?PR?_SETANGYCALADCVAL?CALIBRATION
  +--> ?PR?FLASH_CALDATAUPDATE?FLASH
  +--> ?PR?GETXANG?SENSOR
  +--> ?PR?_SETANGXSYSZERO?ANGAPP
  +--> ?PR?GETYANG?SENSOR
  +--> ?PR?_SETANGYSYSZERO?ANGAPP
  +--> ?PR?GETANGYRELSYS?ANGAPP
  +--> ?PR?_SETANGYUSRZERO?ANGAPP
  +--> ?PR?_SETFILTERCNT?SENSOR

?PR?_MODRTU_SETZERO?MODBUSRTU               -----    -----      0039H    0002H      -----    -----
  +--> ?PR?_MODRTU_8TO16?MODBUSRTU
  +--> ?PR?GETANGXRELSYS?ANGAPP
  +--> ?PR?_SETANGXUSRZERO?ANGAPP
  +--> ?PR?GETANGYRELSYS?ANGAPP
  +--> ?PR?_SETANGYUSRZERO?ANGAPP

?PR?FLASH_USERDATAUPDATE?FLASH              -----    -----      -----    -----      -----    -----
  +--> ?PR?_FLASH_CALDATAUPDATE_USER?FLASH
BL51 BANKED LINKER/LOCATER V6.22                                                      09/18/2013  13:48:52  PAGE 19



?PR?_SEND_RDEAL?SEND                        -----    -----      0021H    0005H      -----    -----
  +--> ?CO?SEND
  +--> ?PR?_STRNCMP?STRNCMP
  +--> ?PR?SUB_SENDPRMTALL?SUB
  +--> ?PR?SUB_SENDANGXYP?SUB
  +--> ?PR?SUB_SENDANGXY?SUB
  +--> ?PR?SUB_SENDSOFTVER?SUB
  +--> ?PR?SUB_SENDSYSNUM?SUB
  +--> ?PR?_SUB_STR2INT8U?SUB
  +--> ?PR?_SUB_SENDTEMPCAL?SUB
  +--> ?PR?_SUB_SENDMCUTEMPCAL?SUB
  +--> ?PR?SUB_SENDERR?SUB

?PR?_STRNCMP?STRNCMP                        -----    -----      002CH    0008H      -----    -----

?PR?SUB_SENDPRMTALL?SUB                     -----    -----      -----    -----      -----    -----
  +--> ?CO?SUB
  +--> ?PR?_COMM_PUTSTR?COMM
  +--> ?PR?GET_MCUTEMP?SENSOR
  +--> ?PR?_COMM_PUTINT16U?SUB
  +--> ?PR?GETXFTVAL?SENSOR
  +--> ?PR?_COMM_PUTCHAR?COMM
  +--> ?PR?GETXOFTVAL?SENSOR
  +--> ?PR?GETXANG?SENSOR
  +--> ?PR?_COMM_PUTINT32S?SUB
  +--> ?PR?GETYFTVAL?SENSOR
  +--> ?PR?GETYOFTVAL?SENSOR
  +--> ?PR?GETYANG?SENSOR
  +--> ?PR?_GETMT?CALMCUT
  +--> ?PR?COMM_PUTNEWLINESTA?SUB

?PR?_COMM_PUTINT16U?SUB                     -----    -----      -----    -----      -----    -----
  +--> ?PR?_SUB_INT16U2STR?SUB
  +--> ?PR?_COMM_PUTSTR?COMM

?PR?_SUB_INT16U2STR?SUB                     -----    -----      0039H    0005H      -----    -----

?PR?_GETMT?CALMCUT                          -----    -----      0026H    0003H      -----    -----

?PR?SUB_SENDANGXYP?SUB                      -----    -----      -----    -----      -----    -----
  +--> ?CO?SUB
  +--> ?PR?_COMM_PUTSTR?COMM
  +--> ?PR?GETXANGALLSETVAL?ANGAPP
  +--> ?PR?_COMM_PUTINT32S?SUB
  +--> ?PR?COMM_PUTNEWLINESTA?SUB
  +--> ?PR?GETYANGALLSETVAL?ANGAPP
  +--> ?PR?GETANGP?ANGAPP

?PR?SUB_SENDSOFTVER?SUB                     -----    -----      -----    -----      -----    -----
  +--> ?CO?SUB
  +--> ?PR?_COMM_PUTSTR?COMM
  +--> ?PR?COMM_PUTNEWLINESTA?SUB

?PR?SUB_SENDSYSNUM?SUB                      -----    -----      -----    -----      -----    -----
  +--> ?CO?SUB
  +--> ?PR?_COMM_PUTSTR?COMM
BL51 BANKED LINKER/LOCATER V6.22                                                      09/18/2013  13:48:52  PAGE 20


  +--> ?PR?COMM_PUTNEWLINESTA?SUB

?PR?_SUB_SENDTEMPCAL?SUB                    -----    -----      0026H    0001H      -----    -----
  +--> ?CO?SUB
  +--> ?PR?_COMM_PUTSTR?COMM
  +--> ?PR?_COMM_PUTINT8U?SUB
  +--> ?PR?_COMM_PUTCHAR?COMM
  +--> ?PR?_GETTEMPXCALTEMPVAL?CALIBRATION
  +--> ?PR?_COMM_PUTINT16U?SUB
  +--> ?PR?_GETTEMPXCALADCVAL?CALIBRATION
  +--> ?PR?_COMM_PUTINT16S?SUB
  +--> ?PR?_GETTEMPYCALADCVAL?CALIBRATION
  +--> ?PR?COMM_PUTNEWLINESTA?SUB

?PR?_COMM_PUTINT8U?SUB                      -----    -----      -----    -----      -----    -----
  +--> ?PR?_SUB_INT8U2STR?SUB
  +--> ?PR?_COMM_PUTSTR?COMM

?PR?_COMM_PUTINT16S?SUB                     -----    -----      -----    -----      -----    -----
  +--> ?PR?_SUB_INT16S2STR?SUB
  +--> ?PR?_COMM_PUTSTR?COMM

?PR?_SUB_INT16S2STR?SUB                     -----    -----      -----    -----      -----    -----
  +--> ?PR?_SUB_INT16U2STR?SUB

?PR?_SUB_SENDMCUTEMPCAL?SUB                 -----    -----      0026H    0001H      -----    -----
  +--> ?CO?SUB
  +--> ?PR?_COMM_PUTSTR?COMM
  +--> ?PR?_COMM_PUTINT8U?SUB
  +--> ?PR?_COMM_PUTCHAR?COMM
  +--> ?PR?_GETMCUTCALTEMPVAL?CALMCUT
  +--> ?PR?_COMM_PUTINT16S?SUB
  +--> ?PR?_GETMCUTCALADCVAL?CALMCUT
  +--> ?PR?_COMM_PUTINT16U?SUB
  +--> ?PR?COMM_PUTNEWLINESTA?SUB

?PR?SUB_SENDERR?SUB                         -----    -----      -----    -----      -----    -----
  +--> ?CO?SUB
  +--> ?PR?_COMM_PUTSTR?COMM
  +--> ?PR?COMM_PUTNEWLINESTA?SUB

?PR?_SEND_CDEAL?SEND                        -----    -----      0021H    0004H      -----    -----
  +--> ?CO?SEND
  +--> ?PR?_STRNCMP?STRNCMP
  +--> ?PR?SUB_SENDERR?SUB
  +--> ?PR?_SETANGXSYSZERO?ANGAPP
  +--> ?PR?_SETANGYSYSZERO?ANGAPP
  +--> ?PR?_COMM_PUTSTR?COMM
  +--> ?PR?SUB_SENDOK?SUB
  +--> ?PR?_SETANGXUSRZERO?ANGAPP
  +--> ?PR?_SETANGYUSRZERO?ANGAPP
  +--> ?PR?TEMP_CALSTA?CMDSUB
  +--> ?PR?TEMP_CALSTOP?CMDSUB
  +--> ?PR?MCUT_CALSTA?CALMCUT
  +--> ?PR?MCUT_CALSTOP?CALMCUT

?PR?SUB_SENDOK?SUB                          -----    -----      -----    -----      -----    -----
BL51 BANKED LINKER/LOCATER V6.22                                                      09/18/2013  13:48:52  PAGE 21


  +--> ?CO?SUB
  +--> ?PR?_COMM_PUTSTR?COMM
  +--> ?PR?COMM_PUTNEWLINESTA?SUB

?PR?_SEND_SDEAL?SEND                        -----    -----      0021H    000BH      -----    -----
  +--> ?CO?SEND
  +--> ?PR?_STRNCMP?STRNCMP
  +--> ?PR?_COMM_PUTSTR?COMM
  +--> ?PR?SUB_SENDOK?SUB
  +--> ?PR?SUB_SENDERR?SUB
  +--> ?PR?SUB_SENDANGXY?SUB
  +--> ?PR?_SUB_STR2INT8U?SUB
  +--> ?PR?_SETFILTERCNT?SENSOR
  +--> ?PR?GETXANG?SENSOR
  +--> ?PR?_SETANGXSYSZERO?ANGAPP
  +--> ?PR?GETYANG?SENSOR
  +--> ?PR?_SETANGYSYSZERO?ANGAPP
  +--> ?PR?GETANGXRELSYS?ANGAPP
  +--> ?PR?_SETANGXUSRZERO?ANGAPP
  +--> ?PR?GETANGYRELSYS?ANGAPP
  +--> ?PR?_SETANGYUSRZERO?ANGAPP
  +--> ?PR?_SUB_STR2INT32S?SUB
  +--> ?PR?_SETANGXINST?ANGAPP
  +--> ?PR?_SETANGYINST?ANGAPP
  +--> ?PR?_SETTEMPCALCNT?CALIBRATION
  +--> ?PR?_SETMCUTCALCNT?CALMCUT
  +--> ?PR?_SUB_STR2INT8S?SUB
  +--> ?PR?GET_MCUTEMP?SENSOR
  +--> ?PR?_MCUT_CALSAMP?CALMCUT
  +--> ?PR?GETXFTVAL?SENSOR
  +--> ?PR?GETYFTVAL?SENSOR
  +--> ?PR?_TEMP_CALSAMP?CMDSUB
  +--> ?PR?_TEMP_CALTREFSET?CMDSUB
  +--> ?PR?_SETANGXSET?ANGAPP
  +--> ?PR?_SETANGYSET?ANGAPP
  +--> ?PR?_SETANGPSET?ANGAPP
  +--> ?PR?_SUB_STRALARMCHECK?SUB
  +--> ?PR?_DELAY_MS?DELAY
  +--> ?PR?SUB_SYSRST?SUB

?PR?_SUB_STR2INT32S?SUB                     -----    -----      002CH    000AH      -----    -----

?PR?_SUB_STR2INT8S?SUB                      -----    -----      002CH    0003H      -----    -----
  +--> ?PR?_SUB_STR2INT8U?SUB

?PR?_MCUT_CALSAMP?CALMCUT                   -----    -----      002CH    0004H      -----    -----
  +--> ?PR?_MCUT_CALVALWR?CALMCUT
  +--> ?PR?_SUB_SENDMCUT?SUB

?PR?_MCUT_CALVALWR?CALMCUT                  -----    -----      0030H    0003H      -----    -----

?PR?_SUB_SENDMCUT?SUB                       -----    -----      0030H    0004H      -----    -----
  +--> ?CO?SUB
  +--> ?PR?_COMM_PUTSTR?COMM
  +--> ?PR?_COMM_PUTINT16S?SUB
  +--> ?PR?_COMM_PUTINT16U?SUB
  +--> ?PR?COMM_PUTNEWLINESTA?SUB
BL51 BANKED LINKER/LOCATER V6.22                                                      09/18/2013  13:48:52  PAGE 22



?PR?_TEMP_CALSAMP?CMDSUB                    -----    -----      002CH    0007H      -----    -----
  +--> ?PR?_TEMP_CALVALWR?CMDSUB
  +--> ?PR?_SUB_SENDADCTXY?SUB

?PR?_TEMP_CALVALWR?CMDSUB                   -----    -----      0033H    0007H      -----    -----

?PR?_SUB_SENDADCTXY?SUB                     -----    -----      0033H    0006H      -----    -----
  +--> ?CO?SUB
  +--> ?PR?_COMM_PUTSTR?COMM
  +--> ?PR?_COMM_PUTINT16U?SUB
  +--> ?PR?COMM_PUTNEWLINESTA?SUB

?PR?_TEMP_CALTREFSET?CMDSUB                 -----    -----      002CH    0005H      -----    -----
  +--> ?PR?TEMP_CALSTOP?CMDSUB

?PR?_SUB_STRALARMCHECK?SUB                  -----    -----      002CH    0006H      -----    -----

?PR?_SEND_UDEAL?SEND                        -----    -----      0021H    0004H      -----    -----
  +--> ?CO?SEND
  +--> ?PR?_STRNCMP?STRNCMP
  +--> ?PR?FLASH_CALDATAUPDATE?FLASH
  +--> ?PR?FLASH_USERDATAUPDATE?FLASH
  +--> ?PR?_COMM_PUTSTR?COMM
  +--> ?PR?SUB_SENDOK?SUB
  +--> ?PR?SUB_SENDERR?SUB

?PR?_SEND_WDEAL?SEND                        -----    -----      0021H    000AH      -----    -----
  +--> ?CO?SEND
  +--> ?PR?_STRNCMP?STRNCMP
  +--> ?PR?_SUB_STR2INT16S?SUB
  +--> ?PR?_SUB_STR2INT16U?SUB
  +--> ?PR?_SUB_STR2INT8U?SUB
  +--> ?PR?_TEMP_CALVALWR?CMDSUB
  +--> ?PR?SUB_SENDERR?SUB
  +--> ?PR?_STRNCPY?STRNCPY
  +--> ?PR?_COMM_PUTSTR?COMM
  +--> ?PR?SUB_SENDOK?SUB

?PR?_SUB_STR2INT16S?SUB                     -----    -----      002BH    0008H      -----    -----
  +--> ?PR?_SUB_STR2INT16U?SUB

?PR?_SUB_STR2INT16U?SUB                     -----    -----      0033H    0006H      -----    -----

?PR?_STRNCPY?STRNCPY                        -----    -----      002BH    000AH      -----    -----

?PR?_SEND_TDEAL?SEND                        -----    -----      0021H    0001H      -----    -----
  +--> ?CO?SEND
  +--> ?PR?_STRNCMP?STRNCMP
  +--> ?PR?SUB_SENDTCALTEST?SUB

?PR?SUB_SENDTCALTEST?SUB                    -----    -----      0022H    0004H      -----    -----
  +--> ?PR?GET_MCUTEMP?SENSOR
  +--> ?PR?_COMM_PUTINT16U?SUB
  +--> ?PR?_COMM_PUTCHAR?COMM
  +--> ?PR?_COMM_PUTINT16S?SUB
  +--> ?PR?COMM_PUTNEWLINESTA?SUB
BL51 BANKED LINKER/LOCATER V6.22                                                      09/18/2013  13:48:52  PAGE 23



?PR?KEY_PROC?KEY                            -----    -----      -----    -----      -----    -----
  +--> ?PR?KEY_DOWN?KEY
  +--> ?PR?GETANGXRELSYS?ANGAPP
  +--> ?PR?_SETANGXUSRZERO?ANGAPP
  +--> ?PR?GETANGYRELSYS?ANGAPP
  +--> ?PR?_SETANGYUSRZERO?ANGAPP
  +--> ?CO?KEY
  +--> ?PR?_COMM_PUTSTR?COMM
  +--> ?PR?SUB_SENDOK?SUB
  +--> ?PR?FLASH_USERDATAUPDATE?FLASH

?PR?KEY_DOWN?KEY                            -----    -----      -----    -----      -----    -----
  +--> ?PR?_DELAY_CYC?DELAY

?PR?ANGPROC?ANGAPP                          -----    -----      0021H    0008H      -----    -----
  +--> ?PR?GETXANGALLSETVAL?ANGAPP
  +--> ?PR?_ALARMX?ANGAPP
  +--> ?PR?GETYANGALLSETVAL?ANGAPP
  +--> ?PR?_ALARMY?ANGAPP
  +--> ?PR?_PANGCALC?ANGAPP
  +--> ?PR?_ALARMS?ANGAPP

*** NEW ROOT ***************************************************

?PR?ADC_ISR?ADCDRV                          -----    -----      -----    -----      -----    -----
  +--> ?PR?_ADC_SAVEANDSWITCH?ADCDRV

?PR?_ADC_SAVEANDSWITCH?ADCDRV               -----    -----      0054H    0003H      -----    -----
  +--> ?CO?ADCDRV
  +--> ?PR?_ADCFILTER?ADCDRV

?PR?_ADCFILTER?ADCDRV                       -----    -----      0057H    0005H      -----    -----
  +--> ?PR?_VALINRANGE?FILTER
  +--> ?PR?_SLIDEWINFILTER?FILTER

?PR?_SLIDEWINFILTER?FILTER                  -----    -----      005CH    0012H      -----    -----

*** NEW ROOT ***************************************************

?PR?COMM_ISR?COMM                           -----    -----      006EH    0002H      -----    -----
  +--> ?PR?_COMM_GETTXCHAR?COMM
  +--> ?PR?COMM_SENDSTOP?COMM
  +--> ?PR?_COMM_PUTRXCHAR?COMM
  +--> ?PR?COMM_TIMERINIT?COMM

?PR?_COMM_GETTXCHAR?COMM                    -----    -----      0070H    0006H      -----    -----

?PR?_COMM_PUTRXCHAR?COMM                    -----    -----      0070H    0003H      -----    -----

*** NEW ROOT ***************************************************

?PR?TIMER2_ISR?TIMER                        -----    -----      -----    -----      -----    -----
  +--> ?PR?TIMER2_TASKINISR?TIMER

?PR?TIMER2_TASKINISR?TIMER                  -----    -----      -----    -----      -----    -----
  +--> ?PR?COMM_TIMERPROC?COMM
BL51 BANKED LINKER/LOCATER V6.22                                                      09/18/2013  13:48:52  PAGE 24


  +--> ?CO?SEND



SYMBOL TABLE OF MODULE:  .\obj\164-0001-20130903 (?C_STARTUP)

  VALUE           TYPE          NAME
  ----------------------------------

  -------         MODULE        ?C_STARTUP
  C:512AH         SEGMENT       ?C_C51STARTUP
  I:0076H         SEGMENT       ?STACK
  C:0000H         PUBLIC        ?C_STARTUP
  D:00E0H         SYMBOL        ACC
  D:00F0H         SYMBOL        B
  D:0083H         SYMBOL        DPH
  D:0082H         SYMBOL        DPL
  N:0000H         SYMBOL        IBPSTACK
  N:0100H         SYMBOL        IBPSTACKTOP
  N:0080H         SYMBOL        IDATALEN
  C:512DH         SYMBOL        IDATALOOP
  N:0000H         SYMBOL        PBPSTACK
  N:0100H         SYMBOL        PBPSTACKTOP
  N:0000H         SYMBOL        PDATALEN
  N:0000H         SYMBOL        PDATASTART
  N:0000H         SYMBOL        PPAGE
  N:0000H         SYMBOL        PPAGEENABLE
  D:00A0H         SYMBOL        PPAGE_SFR
  D:0081H         SYMBOL        SP
  C:512AH         SYMBOL        STARTUP1
  N:0000H         SYMBOL        XBPSTACK
  N:0000H         SYMBOL        XBPSTACKTOP
  N:0000H         SYMBOL        XDATALEN
  N:0000H         SYMBOL        XDATASTART
  C:0000H         LINE#         126
  C:512AH         LINE#         133
  C:512CH         LINE#         134
  C:512DH         LINE#         135
  C:512EH         LINE#         136
  C:5130H         LINE#         185
  C:5133H         LINE#         196
  -------         ENDMOD        ?C_STARTUP

  -------         MODULE        ADCDRV
  C:0000H         SYMBOL        _ICE_DUMMY_
  C:6E59H         PUBLIC        Adc_Init
  D:00A0H         PUBLIC        P2
  D:00BCH         PUBLIC        ADC0CF
  D:00E6H         PUBLIC        EIE1
  C:5B43H         SYMBOL        _Adc_SaveAndSwitch
  C:6F6DH         PUBLIC        Adc_GetXVal
  C:6F76H         PUBLIC        Adc_GetYVal
  D:00E8H         PUBLIC        ADC0CN
  D:00A7H         PUBLIC        SFRPAGE
  C:70D8H         SYMBOL        Adc_VrefInit
  C:5242H         PUBLIC        Adc_Isr
  X:0858H         PUBLIC        x_axis_adc
BL51 BANKED LINKER/LOCATER V6.22                                                      09/18/2013  13:48:52  PAGE 25


  X:08E0H         PUBLIC        y_axis_adc
  D:00BBH         PUBLIC        ADC0MX
  D:00D1H         PUBLIC        REF0CN
  C:621AH         SYMBOL        AdcEntityInit
  B:00E8H.5       PUBLIC        AD0INT
  C:6F7FH         PUBLIC        Adc_GetTemp
  C:677BH         SYMBOL        Adc_SetInit
  I:0019H         PUBLIC        AdcSwitchId
  C:70DCH         SYMBOL        Adc_IsrInit
  C:0026H         PUBLIC        Adc_Enable
  I:001AH         PUBLIC        AdcEndTag
  D:00BEH         PUBLIC        ADC0H
  X:0968H         PUBLIC        temp_adc
  D:00BDH         PUBLIC        ADC0L
  I:001BH         PUBLIC        AdcEndId
  C:6B0BH         SYMBOL        PinIdTab
  C:5466H         SYMBOL        _AdcFilter
  D:00BDH         PUBLIC        ADC0
  C:6B18H         SYMBOL        PinMuxTab
  -------         PROC          ADC_INIT
  C:6E59H         LINE#         45
  C:6E59H         LINE#         46
  C:6E59H         LINE#         47
  C:6E5CH         LINE#         48
  C:6E5FH         LINE#         49
  C:6E62H         LINE#         50
  -------         ENDPROC       ADC_INIT
  -------         PROC          ADC_ENABLE
  C:0026H         LINE#         53
  C:0026H         LINE#         54
  C:0026H         LINE#         55
  C:0029H         LINE#         56
  -------         ENDPROC       ADC_ENABLE
  -------         PROC          ADC_GETXVAL
  C:6F6DH         LINE#         64
  C:6F6DH         LINE#         65
  C:6F6DH         LINE#         66
  C:6F75H         LINE#         67
  -------         ENDPROC       ADC_GETXVAL
  -------         PROC          ADC_GETYVAL
  C:6F76H         LINE#         75
  C:6F76H         LINE#         76
  C:6F76H         LINE#         77
  C:6F7EH         LINE#         78
  -------         ENDPROC       ADC_GETYVAL
  -------         PROC          ADC_GETTEMP
  C:6F7FH         LINE#         86
  C:6F7FH         LINE#         87
  C:6F7FH         LINE#         88
  C:6F87H         LINE#         89
  -------         ENDPROC       ADC_GETTEMP
  -------         PROC          ADC_SETINIT
  -------         DO            
  D:0007H         SYMBOL        SfrPage_
  -------         ENDDO         
  C:677BH         LINE#         110
  C:677BH         LINE#         111
BL51 BANKED LINKER/LOCATER V6.22                                                      09/18/2013  13:48:52  PAGE 26


  C:677DH         LINE#         114
  C:6780H         LINE#         115
  C:6783H         LINE#         116
  C:6786H         LINE#         117
  C:6789H         LINE#         118
  C:678CH         LINE#         119
  C:678FH         LINE#         120
  C:6792H         LINE#         121
  C:6795H         LINE#         122
  C:6798H         LINE#         123
  C:679BH         LINE#         124
  C:679EH         LINE#         125
  C:67A0H         LINE#         126
  C:67A3H         LINE#         127
  C:67A6H         LINE#         128
  C:67A8H         LINE#         129
  -------         ENDPROC       ADC_SETINIT
  -------         PROC          ADC_VREFINIT
  C:70D8H         LINE#         131
  C:70D8H         LINE#         132
  C:70D8H         LINE#         133
  C:70DBH         LINE#         134
  -------         ENDPROC       ADC_VREFINIT
  -------         PROC          ADC_ISRINIT
  C:70DCH         LINE#         136
  C:70DCH         LINE#         137
  C:70DCH         LINE#         138
  C:70DFH         LINE#         139
  -------         ENDPROC       ADC_ISRINIT
  -------         PROC          _ADCFILTER
  D:0057H         SYMBOL        p_adc
  D:005AH         SYMBOL        val
  C:5466H         LINE#         148
  C:5470H         LINE#         149
  C:5470H         LINE#         150
  C:5485H         LINE#         151
  C:5485H         LINE#         153
  C:54D4H         LINE#         154
  C:54D4H         LINE#         156
  C:54D4H         LINE#         157
  C:54E3H         LINE#         158
  C:54EAH         LINE#         159
  C:54EAH         LINE#         160
  -------         ENDPROC       _ADCFILTER
  -------         PROC          ADCENTITYINIT
  C:621AH         LINE#         218
  C:621AH         LINE#         219
  C:621AH         LINE#         221
  C:621FH         LINE#         222
  C:6221H         LINE#         223
  C:6223H         LINE#         224
  C:6229H         LINE#         226
  C:6233H         LINE#         228
  C:6239H         LINE#         229
  C:623CH         LINE#         230
  C:623EH         LINE#         231
  C:6244H         LINE#         233
BL51 BANKED LINKER/LOCATER V6.22                                                      09/18/2013  13:48:52  PAGE 27


  C:624CH         LINE#         235
  C:6252H         LINE#         236
  C:6255H         LINE#         237
  C:6257H         LINE#         238
  C:625DH         LINE#         240
  -------         ENDPROC       ADCENTITYINIT
  -------         PROC          _ADC_SAVEANDSWITCH
  D:0004H         SYMBOL        val
  -------         DO            
  D:0054H         SYMBOL        adc_ent
  -------         ENDDO         
  C:5B43H         LINE#         264
  C:5B47H         LINE#         265
  C:5B47H         LINE#         267
  C:5B50H         LINE#         271
  C:5B58H         LINE#         272
  C:5B58H         LINE#         273
  C:5B6CH         LINE#         274
  C:5B6CH         LINE#         275
  C:5B78H         LINE#         276
  C:5B7AH         LINE#         277
  C:5B82H         LINE#         279
  C:5B8BH         LINE#         281
  C:5B95H         LINE#         282
  C:5B98H         LINE#         284
  C:5B9EH         LINE#         285
  C:5BA7H         LINE#         286
  C:5BAAH         LINE#         287
  -------         ENDPROC       _ADC_SAVEANDSWITCH
  -------         PROC          ADC_ISR
  -------         DO            
  X:0852H         SYMBOL        sum
  X:0856H         SYMBOL        cnt
  -------         ENDDO         
  C:5242H         LINE#         295
  C:525FH         LINE#         300
  C:5261H         LINE#         301
  C:5277H         LINE#         302
  C:528AH         LINE#         303
  C:528AH         LINE#         304
  C:529CH         LINE#         305
  C:52A6H         LINE#         306
  C:52ADH         LINE#         307
  C:52AFH         LINE#         309
  C:52B2H         LINE#         310
  -------         ENDPROC       ADC_ISR
  -------         ENDMOD        ADCDRV

  -------         MODULE        ANGAPP
  C:0000H         SYMBOL        _ICE_DUMMY_
  C:7096H         PUBLIC        _SetAngYUsrZero
  C:60EAH         PUBLIC        GetXAngAllSetVal
  C:6136H         PUBLIC        GetYAngAllSetVal
  D:00A0H         PUBLIC        P2
  C:7084H         PUBLIC        _SetAngXSysZero
  C:708AH         PUBLIC        _SetAngYSysZero
  B:00A0H.5       PUBLIC        LED_S
BL51 BANKED LINKER/LOCATER V6.22                                                      09/18/2013  13:48:52  PAGE 28


  C:67A9H         PUBLIC        GetAngP
  B:00A0H.7       PUBLIC        LED_X
  B:00A0H.6       PUBLIC        LED_Y
  X:0BEBH         SYMBOL        angp
  C:32A8H         PUBLIC        AngProc
  C:4F75H         PUBLIC        AngInit
  X:0BEFH         SYMBOL        angx_usrzero
  X:0BF3H         SYMBOL        angy_usrzero
  C:7030H         PUBLIC        GetAngXInst
  C:7037H         PUBLIC        GetAngYInst
  X:0BF7H         SYMBOL        angx_syszero
  X:0BFBH         SYMBOL        angy_syszero
  C:704CH         PUBLIC        GetAngPSet
  C:709CH         PUBLIC        _SetAngXInst
  C:70A2H         PUBLIC        _SetAngYInst
  C:703EH         PUBLIC        GetAngXSet
  C:7045H         PUBLIC        GetAngYSet
  C:6A5DH         PUBLIC        _AlarmS
  C:6E32H         PUBLIC        _SetAngPSet
  C:6A21H         PUBLIC        _AlarmX
  C:6A3FH         PUBLIC        _AlarmY
  C:6E18H         PUBLIC        _SetAngXSet
  C:6E25H         PUBLIC        _SetAngYSet
  X:0BFFH         SYMBOL        angx_inst
  X:0C03H         SYMBOL        angy_inst
  X:0C07H         SYMBOL        angp_set
  C:4878H         SYMBOL        _PAngCalc
  X:0C0BH         SYMBOL        angx_set
  X:0C0FH         SYMBOL        angy_set
  C:68F8H         PUBLIC        _SetAngZero
  C:7053H         PUBLIC        GetAngXZeroUsr
  C:7022H         PUBLIC        GetAngXUsrZero
  C:705AH         PUBLIC        GetAngYZeroUsr
  C:7029H         PUBLIC        GetAngYUsrZero
  C:6A03H         PUBLIC        _SetAngZeroAdd
  X:0C13H         SYMBOL        BufZerox_usr
  C:7014H         PUBLIC        GetAngXSysZero
  X:0C17H         SYMBOL        BufZeroy_usr
  C:701BH         PUBLIC        GetAngYSysZero
  C:7061H         PUBLIC        GetAngXRelSys
  C:7068H         PUBLIC        GetAngYRelSys
  X:0C1BH         SYMBOL        BufZerox_sys
  X:0C1FH         SYMBOL        BufZeroy_sys
  C:7090H         PUBLIC        _SetAngXUsrZero
  -------         PROC          ANGINIT
  C:4F75H         LINE#         41
  C:4F75H         LINE#         42
  C:4F75H         LINE#         43
  C:4F78H         LINE#         45
  C:4F82H         LINE#         47
  C:4F8DH         LINE#         48
  C:4F98H         LINE#         49
  C:4FA3H         LINE#         50
  C:4FAEH         LINE#         51
  C:4FB9H         LINE#         52
  C:4FC4H         LINE#         53
  C:4FCFH         LINE#         54
BL51 BANKED LINKER/LOCATER V6.22                                                      09/18/2013  13:48:52  PAGE 29


  C:4FDAH         LINE#         55
  C:4FE5H         LINE#         57
  C:4FEFH         LINE#         58
  C:4FF9H         LINE#         59
  C:5003H         LINE#         60
  C:500DH         LINE#         62
  -------         ENDPROC       ANGINIT
  -------         PROC          _PANGCALC
  D:0004H         SYMBOL        angx
  D:003EH         SYMBOL        angy
  -------         DO            
  D:0042H         SYMBOL        x
  D:0004H         SYMBOL        y
  D:0046H         SYMBOL        s
  -------         ENDDO         
  C:4878H         LINE#         70
  C:4878H         LINE#         71
  C:4878H         LINE#         74
  C:4884H         LINE#         75
  C:48A2H         LINE#         76
  C:48ADH         LINE#         77
  C:48C0H         LINE#         79
  C:48CCH         LINE#         80
  C:48E2H         LINE#         81
  C:48E5H         LINE#         82
  C:48F0H         LINE#         84
  C:4906H         LINE#         85
  C:491AH         LINE#         86
  C:491AH         LINE#         87
  C:4923H         LINE#         88
  C:4923H         LINE#         89
  C:494CH         LINE#         90
  C:494FH         LINE#         91
  -------         ENDPROC       _PANGCALC
  -------         PROC          GETANGP
  C:67A9H         LINE#         99
  C:67A9H         LINE#         100
  C:67A9H         LINE#         102
  C:67D0H         LINE#         103
  C:67D6H         LINE#         104
  -------         ENDPROC       GETANGP
  -------         PROC          GETANGXSYSZERO
  C:7014H         LINE#         106
  C:7014H         LINE#         107
  C:7014H         LINE#         108
  C:701AH         LINE#         109
  -------         ENDPROC       GETANGXSYSZERO
  -------         PROC          GETANGYSYSZERO
  C:701BH         LINE#         110
  C:701BH         LINE#         111
  C:701BH         LINE#         112
  C:7021H         LINE#         113
  -------         ENDPROC       GETANGYSYSZERO
  -------         PROC          GETANGXUSRZERO
  C:7022H         LINE#         114
  C:7022H         LINE#         115
  C:7022H         LINE#         116
BL51 BANKED LINKER/LOCATER V6.22                                                      09/18/2013  13:48:52  PAGE 30


  C:7028H         LINE#         117
  -------         ENDPROC       GETANGXUSRZERO
  -------         PROC          GETANGYUSRZERO
  C:7029H         LINE#         118
  C:7029H         LINE#         119
  C:7029H         LINE#         120
  C:702FH         LINE#         121
  -------         ENDPROC       GETANGYUSRZERO
  -------         PROC          GETANGXINST
  C:7030H         LINE#         123
  C:7030H         LINE#         124
  C:7030H         LINE#         125
  C:7036H         LINE#         126
  -------         ENDPROC       GETANGXINST
  -------         PROC          GETANGYINST
  C:7037H         LINE#         127
  C:7037H         LINE#         128
  C:7037H         LINE#         129
  C:703DH         LINE#         130
  -------         ENDPROC       GETANGYINST
  -------         PROC          GETANGXSET
  C:703EH         LINE#         132
  C:703EH         LINE#         133
  C:703EH         LINE#         134
  C:7044H         LINE#         135
  -------         ENDPROC       GETANGXSET
  -------         PROC          GETANGYSET
  C:7045H         LINE#         136
  C:7045H         LINE#         137
  C:7045H         LINE#         138
  C:704BH         LINE#         139
  -------         ENDPROC       GETANGYSET
  -------         PROC          GETANGPSET
  C:704CH         LINE#         140
  C:704CH         LINE#         141
  C:704CH         LINE#         142
  C:7052H         LINE#         143
  -------         ENDPROC       GETANGPSET
  -------         PROC          GETANGXZEROUSR
  C:7053H         LINE#         145
  C:7053H         LINE#         146
  C:7053H         LINE#         147
  C:7059H         LINE#         148
  -------         ENDPROC       GETANGXZEROUSR
  -------         PROC          GETANGYZEROUSR
  C:705AH         LINE#         149
  C:705AH         LINE#         150
  C:705AH         LINE#         151
  C:7060H         LINE#         152
  -------         ENDPROC       GETANGYZEROUSR
  -------         PROC          GETANGXRELSYS
  C:7061H         LINE#         154
  C:7061H         LINE#         155
  C:7061H         LINE#         156
  C:7067H         LINE#         157
  -------         ENDPROC       GETANGXRELSYS
  -------         PROC          GETANGYRELSYS
BL51 BANKED LINKER/LOCATER V6.22                                                      09/18/2013  13:48:52  PAGE 31


  C:7068H         LINE#         158
  C:7068H         LINE#         159
  C:7068H         LINE#         160
  C:706EH         LINE#         161
  -------         ENDPROC       GETANGYRELSYS
  -------         PROC          _SETANGXSYSZERO
  D:0004H         SYMBOL        zore
  C:7084H         LINE#         170
  C:7084H         LINE#         171
  C:7084H         LINE#         172
  -------         ENDPROC       _SETANGXSYSZERO
  -------         PROC          _SETANGYSYSZERO
  D:0004H         SYMBOL        zore
  C:708AH         LINE#         174
  C:708AH         LINE#         175
  C:708AH         LINE#         176
  -------         ENDPROC       _SETANGYSYSZERO
  -------         PROC          _SETANGXUSRZERO
  D:0004H         SYMBOL        zore
  C:7090H         LINE#         179
  C:7090H         LINE#         180
  C:7090H         LINE#         181
  -------         ENDPROC       _SETANGXUSRZERO
  -------         PROC          _SETANGYUSRZERO
  D:0004H         SYMBOL        zore
  C:7096H         LINE#         183
  C:7096H         LINE#         184
  C:7096H         LINE#         185
  -------         ENDPROC       _SETANGYUSRZERO
  -------         PROC          _SETANGXINST
  D:0004H         SYMBOL        ang_inst
  C:709CH         LINE#         188
  C:709CH         LINE#         189
  C:709CH         LINE#         190
  -------         ENDPROC       _SETANGXINST
  -------         PROC          _SETANGYINST
  D:0004H         SYMBOL        ang_inst
  C:70A2H         LINE#         192
  C:70A2H         LINE#         193
  C:70A2H         LINE#         194
  -------         ENDPROC       _SETANGYINST
  -------         PROC          _SETANGXSET
  D:0004H         SYMBOL        ang_set
  C:6E18H         LINE#         197
  C:6E18H         LINE#         198
  C:6E18H         LINE#         199
  C:6E1CH         LINE#         200
  C:6E1CH         LINE#         201
  C:6E1FH         LINE#         202
  C:6E1FH         LINE#         203
  -------         ENDPROC       _SETANGXSET
  -------         PROC          _SETANGYSET
  D:0004H         SYMBOL        ang_set
  C:6E25H         LINE#         205
  C:6E25H         LINE#         206
  C:6E25H         LINE#         207
  C:6E29H         LINE#         208
BL51 BANKED LINKER/LOCATER V6.22                                                      09/18/2013  13:48:52  PAGE 32


  C:6E29H         LINE#         209
  C:6E2CH         LINE#         210
  C:6E2CH         LINE#         211
  -------         ENDPROC       _SETANGYSET
  -------         PROC          _SETANGPSET
  D:0004H         SYMBOL        ang_set
  C:6E32H         LINE#         213
  C:6E32H         LINE#         214
  C:6E32H         LINE#         215
  C:6E36H         LINE#         216
  C:6E36H         LINE#         217
  C:6E39H         LINE#         218
  C:6E39H         LINE#         219
  -------         ENDPROC       _SETANGPSET
  -------         PROC          L?0073
  -------         ENDPROC       L?0073
  -------         PROC          _SETANGZERO
  D:0001H         SYMBOL        angval
  D:003EH         SYMBOL        setval
  C:68F8H         LINE#         230
  C:6900H         LINE#         231
  C:6900H         LINE#         232
  -------         ENDPROC       _SETANGZERO
  -------         PROC          _SETANGZEROADD
  D:0001H         SYMBOL        angval
  D:003EH         SYMBOL        setval
  C:6A03H         LINE#         235
  C:6A0BH         LINE#         236
  C:6A0BH         LINE#         237
  -------         ENDPROC       _SETANGZEROADD
  -------         PROC          GETXANGALLSETVAL
  -------         DO            
  D:003AH         SYMBOL        tmp
  -------         ENDDO         
  C:60EAH         LINE#         246
  C:60EAH         LINE#         247
  C:60EAH         LINE#         249
  C:60F5H         LINE#         250
  C:60FFH         LINE#         251
  C:610DH         LINE#         252
  C:6116H         LINE#         253
  C:6124H         LINE#         254
  C:612DH         LINE#         255
  C:6135H         LINE#         257
  -------         ENDPROC       GETXANGALLSETVAL
  -------         PROC          GETYANGALLSETVAL
  -------         DO            
  D:003AH         SYMBOL        tmp
  -------         ENDDO         
  C:6136H         LINE#         265
  C:6136H         LINE#         266
  C:6136H         LINE#         268
  C:6141H         LINE#         269
  C:614BH         LINE#         270
  C:6159H         LINE#         271
  C:6162H         LINE#         272
  C:6170H         LINE#         273
BL51 BANKED LINKER/LOCATER V6.22                                                      09/18/2013  13:48:52  PAGE 33


  C:6179H         LINE#         274
  C:6181H         LINE#         275
  -------         ENDPROC       GETYANGALLSETVAL
  -------         PROC          _ALARMX
  D:0007H         SYMBOL        vol
  C:6A21H         LINE#         284
  C:6A21H         LINE#         285
  C:6A21H         LINE#         286
  C:6A2DH         LINE#         287
  C:6A2DH         LINE#         288
  C:6A30H         LINE#         289
  C:6A30H         LINE#         290
  C:6A32H         LINE#         291
  C:6A33H         LINE#         293
  C:6A33H         LINE#         294
  C:6A35H         LINE#         295
  C:6A35H         LINE#         296
  C:6A36H         LINE#         298
  C:6A36H         LINE#         299
  C:6A39H         LINE#         300
  C:6A39H         LINE#         301
  C:6A3BH         LINE#         302
  C:6A3CH         LINE#         304
  C:6A3CH         LINE#         305
  C:6A3EH         LINE#         306
  C:6A3EH         LINE#         307
  C:6A3EH         LINE#         308
  -------         ENDPROC       _ALARMX
  -------         PROC          _ALARMY
  D:0007H         SYMBOL        vol
  C:6A3FH         LINE#         312
  C:6A3FH         LINE#         313
  C:6A3FH         LINE#         314
  C:6A4BH         LINE#         315
  C:6A4BH         LINE#         316
  C:6A4EH         LINE#         317
  C:6A4EH         LINE#         318
  C:6A50H         LINE#         319
  C:6A51H         LINE#         321
  C:6A51H         LINE#         322
  C:6A53H         LINE#         323
  C:6A53H         LINE#         324
  C:6A54H         LINE#         326
  C:6A54H         LINE#         327
  C:6A57H         LINE#         328
  C:6A57H         LINE#         329
  C:6A59H         LINE#         330
  C:6A5AH         LINE#         332
  C:6A5AH         LINE#         333
  C:6A5CH         LINE#         334
  C:6A5CH         LINE#         335
  C:6A5CH         LINE#         336
  -------         ENDPROC       _ALARMY
  -------         PROC          _ALARMS
  D:0007H         SYMBOL        vol
  C:6A5DH         LINE#         340
  C:6A5DH         LINE#         341
BL51 BANKED LINKER/LOCATER V6.22                                                      09/18/2013  13:48:52  PAGE 34


  C:6A5DH         LINE#         342
  C:6A69H         LINE#         343
  C:6A69H         LINE#         344
  C:6A6CH         LINE#         345
  C:6A6CH         LINE#         346
  C:6A6EH         LINE#         347
  C:6A6FH         LINE#         349
  C:6A6FH         LINE#         350
  C:6A71H         LINE#         351
  C:6A71H         LINE#         352
  C:6A72H         LINE#         354
  C:6A72H         LINE#         355
  C:6A75H         LINE#         356
  C:6A75H         LINE#         357
  C:6A77H         LINE#         358
  C:6A78H         LINE#         360
  C:6A78H         LINE#         361
  C:6A7AH         LINE#         362
  C:6A7AH         LINE#         363
  C:6A7AH         LINE#         364
  -------         ENDPROC       _ALARMS
  -------         PROC          ANGPROC
  -------         DO            
  D:0021H         SYMBOL        data_x
  D:0025H         SYMBOL        data_y
  -------         ENDDO         
  C:32A8H         LINE#         367
  C:32A8H         LINE#         368
  C:32A8H         LINE#         376
  C:32B3H         LINE#         377
  C:32F0H         LINE#         378
  C:32F0H         LINE#         379
  C:32F2H         LINE#         380
  C:32F4H         LINE#         381
  C:3331H         LINE#         382
  C:3331H         LINE#         383
  C:3336H         LINE#         384
  C:3336H         LINE#         387
  C:3341H         LINE#         388
  C:337EH         LINE#         389
  C:337EH         LINE#         390
  C:3380H         LINE#         391
  C:3382H         LINE#         392
  C:33BFH         LINE#         393
  C:33BFH         LINE#         394
  C:33C4H         LINE#         395
  C:33C4H         LINE#         398
  C:33EBH         LINE#         399
  C:3406H         LINE#         400
  C:3406H         LINE#         401
  C:3408H         LINE#         402
  C:340AH         LINE#         403
  C:3425H         LINE#         404
  C:3425H         LINE#         405
  C:342AH         LINE#         406
  C:342AH         LINE#         408
  -------         ENDPROC       ANGPROC
BL51 BANKED LINKER/LOCATER V6.22                                                      09/18/2013  13:48:52  PAGE 35


  -------         ENDMOD        ANGAPP

  -------         MODULE        CALIBRATION
  C:0000H         SYMBOL        _ICE_DUMMY_
  C:6DD2H         SYMBOL        _Ang_WrAngVal
  C:6FFCH         PUBLIC        _SetAngCalCnt
  C:6FF4H         PUBLIC        _SetTempCalCnt
  C:6B9EH         SYMBOL        _Temp_WrTempVal
  X:0000H         PUBLIC        Ang_Xcal
  D:00A0H         PUBLIC        P2
  X:0166H         PUBLIC        Ang_Ycal
  X:02CCH         PUBLIC        Temp_Xcal
  X:03A9H         PUBLIC        Temp_Ycal
  C:6F9AH         PUBLIC        AngXCalcPrm
  C:6FA3H         PUBLIC        AngYCalcPrm
  C:6F88H         PUBLIC        TempXCalcPrm
  C:6F91H         PUBLIC        TempYCalcPrm
  C:342BH         SYMBOL        _Ang_CalcPrm
  C:3C85H         SYMBOL        _Temp_CalcPrm
  C:3FF1H         PUBLIC        AngCalDataInit
  C:5D97H         PUBLIC        TempCalDataInit
  C:70AEH         PUBLIC        GetAngXCalCnt
  C:70B4H         PUBLIC        GetAngYCalCnt
  C:70A8H         PUBLIC        GetTempXCalCnt
  C:6EA1H         PUBLIC        _GetAngXCalAdcVal
  C:6EB9H         PUBLIC        _GetAngYCalAdcVal
  C:6E95H         PUBLIC        _GetTempXCalAdcVal
  C:6EADH         PUBLIC        _GetTempYCalAdcVal
  X:0486H         SYMBOL        temp_buf
  C:6F0CH         PUBLIC        _SetAngXCalCnt
  C:6F22H         PUBLIC        _SetAngYCalCnt
  C:6F01H         PUBLIC        _SetTempXCalCnt
  C:6F17H         PUBLIC        _SetTempYCalCnt
  C:6D62H         SYMBOL        _Ang_RdAdcVal
  C:70E4H         SYMBOL        _Ang_SetCalCnt
  C:6D40H         SYMBOL        _Temp_RdAdcVal
  C:70E0H         SYMBOL        _Temp_SetCalCnt
  C:6C7BH         PUBLIC        _SetAngXCalAdcVal
  C:6CA5H         PUBLIC        _SetAngYCalAdcVal
  C:6C66H         PUBLIC        _SetTempXCalAdcVal
  C:6C90H         PUBLIC        _SetTempYCalAdcVal
  C:6E71H         PUBLIC        _GetAngXCalAngVal
  C:6E89H         PUBLIC        _GetAngYCalAngVal
  C:6E65H         PUBLIC        _GetTempXCalTempVal
  C:6E7DH         PUBLIC        _GetTempYCalTempVal
  C:6DC4H         SYMBOL        _Ang_RdAngVal
  C:6B87H         SYMBOL        _Temp_RdTempVal
  C:6EC5H         PUBLIC        _SetAngXCalAngVal
  C:6ED1H         PUBLIC        _SetAngYCalAngVal
  C:6C3CH         PUBLIC        _SetTempXCalTempVal
  C:6D73H         SYMBOL        _Ang_WrAdcVal
  C:6C51H         PUBLIC        _SetTempYCalTempVal
  C:6D51H         SYMBOL        _Temp_WrAdcVal
  C:45D9H         PUBLIC        CalibInit
  -------         PROC          _TEMP_SETCALCNT
  D:0001H         SYMBOL        p_cal
  D:0005H         SYMBOL        num
BL51 BANKED LINKER/LOCATER V6.22                                                      09/18/2013  13:48:52  PAGE 36


  C:70E0H         LINE#         32
  C:70E0H         LINE#         33
  C:70E0H         LINE#         34
  -------         ENDPROC       _TEMP_SETCALCNT
  -------         PROC          _TEMP_RDTEMPVAL
  D:0001H         SYMBOL        p_cal
  D:0005H         SYMBOL        posid
  C:6B87H         LINE#         44
  C:6B87H         LINE#         45
  C:6B87H         LINE#         46
  C:6B9DH         LINE#         47
  -------         ENDPROC       _TEMP_RDTEMPVAL
  -------         PROC          _TEMP_RDADCVAL
  D:0001H         SYMBOL        p_cal
  D:0005H         SYMBOL        posid
  C:6D40H         LINE#         56
  C:6D40H         LINE#         57
  C:6D40H         LINE#         58
  C:6D50H         LINE#         59
  -------         ENDPROC       _TEMP_RDADCVAL
  -------         PROC          _TEMP_WRTEMPVAL
  D:0001H         SYMBOL        p_cal
  D:0004H         SYMBOL        val
  D:002BH         SYMBOL        posid
  C:6B9EH         LINE#         68
  C:6B9EH         LINE#         69
  C:6B9EH         LINE#         70
  -------         ENDPROC       _TEMP_WRTEMPVAL
  -------         PROC          _TEMP_WRADCVAL
  D:0001H         SYMBOL        p_cal
  D:0004H         SYMBOL        val
  D:002BH         SYMBOL        posid
  C:6D51H         LINE#         80
  C:6D51H         LINE#         81
  C:6D51H         LINE#         82
  -------         ENDPROC       _TEMP_WRADCVAL
  -------         PROC          _TEMP_CALCPRM
  D:0031H         SYMBOL        p_cal
  -------         DO            
  D:0034H         SYMBOL        i
  -------         ENDDO         
  C:3C85H         LINE#         92
  C:3C8BH         LINE#         93
  C:3C8BH         LINE#         95
  C:3CA2H         LINE#         96
  C:3CA2H         LINE#         97
  C:3D31H         LINE#         98
  C:3DABH         LINE#         99
  C:3DB0H         LINE#         100
  -------         ENDPROC       _TEMP_CALCPRM
  -------         PROC          _ANG_SETCALCNT
  D:0001H         SYMBOL        p_cal
  D:0005H         SYMBOL        num
  C:70E4H         LINE#         109
  C:70E4H         LINE#         110
  C:70E4H         LINE#         111
  -------         ENDPROC       _ANG_SETCALCNT
BL51 BANKED LINKER/LOCATER V6.22                                                      09/18/2013  13:48:52  PAGE 37


  -------         PROC          _ANG_RDANGVAL
  D:0001H         SYMBOL        p_cal
  D:0005H         SYMBOL        posid
  C:6DC4H         LINE#         120
  C:6DC4H         LINE#         121
  C:6DC4H         LINE#         122
  C:6DD1H         LINE#         123
  -------         ENDPROC       _ANG_RDANGVAL
  -------         PROC          _ANG_RDADCVAL
  D:0001H         SYMBOL        p_cal
  D:0005H         SYMBOL        posid
  C:6D62H         LINE#         132
  C:6D62H         LINE#         133
  C:6D62H         LINE#         134
  C:6D72H         LINE#         135
  -------         ENDPROC       _ANG_RDADCVAL
  -------         PROC          _ANG_WRANGVAL
  D:0001H         SYMBOL        p_cal
  D:0004H         SYMBOL        val
  D:0045H         SYMBOL        posid
  C:6DD2H         LINE#         143
  C:6DD2H         LINE#         144
  C:6DD2H         LINE#         145
  -------         ENDPROC       _ANG_WRANGVAL
  -------         PROC          _ANG_WRADCVAL
  D:0001H         SYMBOL        p_cal
  D:0004H         SYMBOL        val
  D:003EH         SYMBOL        posid
  C:6D73H         LINE#         155
  C:6D73H         LINE#         156
  C:6D73H         LINE#         157
  -------         ENDPROC       _ANG_WRADCVAL
  -------         PROC          _ANG_CALCPRM
  D:0023H         SYMBOL        p_cal
  -------         DO            
  D:0026H         SYMBOL        ang0
  D:002AH         SYMBOL        ang1
  D:002EH         SYMBOL        i
  -------         ENDDO         
  C:342BH         LINE#         167
  C:3431H         LINE#         168
  C:3431H         LINE#         173
  C:3448H         LINE#         174
  C:3448H         LINE#         175
  C:3478H         LINE#         176
  C:34AEH         LINE#         177
  C:3535H         LINE#         178
  C:35A1H         LINE#         179
  C:35A6H         LINE#         180
  -------         ENDPROC       _ANG_CALCPRM
  -------         PROC          GETTEMPXCALCNT
  C:70A8H         LINE#         190
  C:70A8H         LINE#         191
  C:70A8H         LINE#         192
  C:70ADH         LINE#         193
  -------         ENDPROC       GETTEMPXCALCNT
  -------         PROC          GETANGXCALCNT
BL51 BANKED LINKER/LOCATER V6.22                                                      09/18/2013  13:48:52  PAGE 38


  C:70AEH         LINE#         197
  C:70AEH         LINE#         198
  C:70AEH         LINE#         199
  C:70B3H         LINE#         200
  -------         ENDPROC       GETANGXCALCNT
  -------         PROC          GETANGYCALCNT
  C:70B4H         LINE#         207
  C:70B4H         LINE#         208
  C:70B4H         LINE#         209
  C:70B9H         LINE#         210
  -------         ENDPROC       GETANGYCALCNT
  -------         PROC          _SETTEMPXCALCNT
  D:0005H         SYMBOL        cnt
  C:6F01H         LINE#         220
  C:6F03H         LINE#         221
  C:6F03H         LINE#         222
  -------         ENDPROC       _SETTEMPXCALCNT
  -------         PROC          _SETANGXCALCNT
  D:0005H         SYMBOL        cnt
  C:6F0CH         LINE#         225
  C:6F0EH         LINE#         226
  C:6F0EH         LINE#         227
  -------         ENDPROC       _SETANGXCALCNT
  -------         PROC          _SETTEMPYCALCNT
  D:0005H         SYMBOL        cnt
  C:6F17H         LINE#         230
  C:6F19H         LINE#         231
  C:6F19H         LINE#         232
  -------         ENDPROC       _SETTEMPYCALCNT
  -------         PROC          _SETANGYCALCNT
  D:0005H         SYMBOL        cnt
  C:6F22H         LINE#         235
  C:6F24H         LINE#         236
  C:6F24H         LINE#         237
  -------         ENDPROC       _SETANGYCALCNT
  -------         PROC          _SETTEMPCALCNT
  D:0006H         SYMBOL        cnt
  C:6FF4H         LINE#         240
  C:6FF6H         LINE#         241
  C:6FF6H         LINE#         242
  C:6FF9H         LINE#         243
  -------         ENDPROC       _SETTEMPCALCNT
  -------         PROC          _SETANGCALCNT
  D:0006H         SYMBOL        cnt
  C:6FFCH         LINE#         246
  C:6FFEH         LINE#         247
  C:6FFEH         LINE#         248
  C:7001H         LINE#         249
  -------         ENDPROC       _SETANGCALCNT
  -------         PROC          _GETTEMPXCALTEMPVAL
  D:0005H         SYMBOL        pos
  C:6E65H         LINE#         261
  C:6E67H         LINE#         262
  C:6E67H         LINE#         263
  C:6E70H         LINE#         264
  -------         ENDPROC       _GETTEMPXCALTEMPVAL
  -------         PROC          _GETANGXCALANGVAL
BL51 BANKED LINKER/LOCATER V6.22                                                      09/18/2013  13:48:52  PAGE 39


  D:0005H         SYMBOL        pos
  C:6E71H         LINE#         271
  C:6E73H         LINE#         272
  C:6E73H         LINE#         273
  C:6E7CH         LINE#         274
  -------         ENDPROC       _GETANGXCALANGVAL
  -------         PROC          _GETTEMPYCALTEMPVAL
  D:0005H         SYMBOL        pos
  C:6E7DH         LINE#         282
  C:6E7FH         LINE#         283
  C:6E7FH         LINE#         284
  C:6E88H         LINE#         285
  -------         ENDPROC       _GETTEMPYCALTEMPVAL
  -------         PROC          _GETANGYCALANGVAL
  D:0005H         SYMBOL        pos
  C:6E89H         LINE#         292
  C:6E8BH         LINE#         293
  C:6E8BH         LINE#         294
  C:6E94H         LINE#         295
  -------         ENDPROC       _GETANGYCALANGVAL
  -------         PROC          _GETTEMPXCALADCVAL
  D:0005H         SYMBOL        pos
  C:6E95H         LINE#         303
  C:6E97H         LINE#         304
  C:6E97H         LINE#         305
  C:6EA0H         LINE#         306
  -------         ENDPROC       _GETTEMPXCALADCVAL
  -------         PROC          _GETANGXCALADCVAL
  D:0005H         SYMBOL        pos
  C:6EA1H         LINE#         313
  C:6EA3H         LINE#         314
  C:6EA3H         LINE#         315
  C:6EACH         LINE#         316
  -------         ENDPROC       _GETANGXCALADCVAL
  -------         PROC          _GETTEMPYCALADCVAL
  D:0005H         SYMBOL        pos
  C:6EADH         LINE#         323
  C:6EAFH         LINE#         324
  C:6EAFH         LINE#         325
  C:6EB8H         LINE#         326
  -------         ENDPROC       _GETTEMPYCALADCVAL
  -------         PROC          _GETANGYCALADCVAL
  D:0005H         SYMBOL        pos
  C:6EB9H         LINE#         333
  C:6EBBH         LINE#         334
  C:6EBBH         LINE#         335
  C:6EC4H         LINE#         336
  -------         ENDPROC       _GETANGYCALADCVAL
  -------         PROC          _SETTEMPXCALTEMPVAL
  D:0082H         SYMBOL        val
  D:0007H         SYMBOL        pos
  C:6C3CH         LINE#         348
  C:6C42H         LINE#         349
  C:6C42H         LINE#         350
  -------         ENDPROC       _SETTEMPXCALTEMPVAL
  -------         PROC          _SETANGXCALANGVAL
  D:0004H         SYMBOL        val
BL51 BANKED LINKER/LOCATER V6.22                                                      09/18/2013  13:48:52  PAGE 40


  D:003DH         SYMBOL        pos
  C:6EC5H         LINE#         358
  C:6EC5H         LINE#         359
  C:6EC5H         LINE#         360
  -------         ENDPROC       _SETANGXCALANGVAL
  -------         PROC          _SETTEMPYCALTEMPVAL
  D:0082H         SYMBOL        val
  D:0007H         SYMBOL        pos
  C:6C51H         LINE#         368
  C:6C57H         LINE#         369
  C:6C57H         LINE#         370
  -------         ENDPROC       _SETTEMPYCALTEMPVAL
  -------         PROC          _SETANGYCALANGVAL
  D:0004H         SYMBOL        val
  D:003DH         SYMBOL        pos
  C:6ED1H         LINE#         378
  C:6ED1H         LINE#         379
  C:6ED1H         LINE#         380
  -------         ENDPROC       _SETANGYCALANGVAL
  -------         PROC          _SETTEMPXCALADCVAL
  D:0082H         SYMBOL        val
  D:0007H         SYMBOL        pos
  C:6C66H         LINE#         389
  C:6C6CH         LINE#         390
  C:6C6CH         LINE#         391
  -------         ENDPROC       _SETTEMPXCALADCVAL
  -------         PROC          _SETANGXCALADCVAL
  D:0082H         SYMBOL        val
  D:0007H         SYMBOL        pos
  C:6C7BH         LINE#         400
  C:6C81H         LINE#         401
  C:6C81H         LINE#         402
  -------         ENDPROC       _SETANGXCALADCVAL
  -------         PROC          _SETTEMPYCALADCVAL
  D:0082H         SYMBOL        val
  D:0007H         SYMBOL        pos
  C:6C90H         LINE#         410
  C:6C96H         LINE#         411
  C:6C96H         LINE#         412
  -------         ENDPROC       _SETTEMPYCALADCVAL
  -------         PROC          _SETANGYCALADCVAL
  D:0082H         SYMBOL        val
  D:0007H         SYMBOL        pos
  C:6CA5H         LINE#         420
  C:6CABH         LINE#         421
  C:6CABH         LINE#         422
  -------         ENDPROC       _SETANGYCALADCVAL
  -------         PROC          TEMPXCALCPRM
  C:6F88H         LINE#         429
  C:6F88H         LINE#         430
  C:6F88H         LINE#         431
  -------         ENDPROC       TEMPXCALCPRM
  -------         PROC          TEMPYCALCPRM
  C:6F91H         LINE#         436
  C:6F91H         LINE#         437
  C:6F91H         LINE#         438
  -------         ENDPROC       TEMPYCALCPRM
BL51 BANKED LINKER/LOCATER V6.22                                                      09/18/2013  13:48:52  PAGE 41


  -------         PROC          ANGXCALCPRM
  C:6F9AH         LINE#         445
  C:6F9AH         LINE#         446
  C:6F9AH         LINE#         447
  -------         ENDPROC       ANGXCALCPRM
  -------         PROC          ANGYCALCPRM
  C:6FA3H         LINE#         453
  C:6FA3H         LINE#         454
  C:6FA3H         LINE#         455
  -------         ENDPROC       ANGYCALCPRM
  -------         PROC          TEMPCALDATAINIT
  -------         DO            
  D:0022H         SYMBOL        i
  -------         ENDDO         
  C:5D97H         LINE#         472
  C:5D97H         LINE#         473
  C:5D97H         LINE#         475
  C:5D9CH         LINE#         476
  C:5D9FH         LINE#         477
  C:5D9FH         LINE#         478
  C:5DC9H         LINE#         479
  C:5DDAH         LINE#         480
  C:5DEBH         LINE#         481
  C:5DF2H         LINE#         482
  -------         ENDPROC       TEMPCALDATAINIT
  -------         PROC          ANGCALDATAINIT
  -------         DO            
  D:0003H         SYMBOL        i
  -------         ENDDO         
  C:3FF1H         LINE#         491
  C:3FF1H         LINE#         492
  C:3FF1H         LINE#         494
  C:3FF6H         LINE#         495
  C:3FF8H         LINE#         496
  C:3FF8H         LINE#         497
  C:4017H         LINE#         498
  C:4039H         LINE#         500
  C:4058H         LINE#         501
  C:407AH         LINE#         502
  C:4083H         LINE#         504
  C:408DH         LINE#         505
  C:4097H         LINE#         506
  C:40A1H         LINE#         507
  C:40ABH         LINE#         508
  C:40B5H         LINE#         509
  C:40BFH         LINE#         511
  C:40C9H         LINE#         512
  C:40D3H         LINE#         513
  C:40DDH         LINE#         514
  C:40E7H         LINE#         515
  C:40F1H         LINE#         516
  C:40FBH         LINE#         518
  -------         ENDPROC       ANGCALDATAINIT
  -------         PROC          CALIBINIT
  C:45D9H         LINE#         528
  C:45D9H         LINE#         529
  C:45D9H         LINE#         530
BL51 BANKED LINKER/LOCATER V6.22                                                      09/18/2013  13:48:52  PAGE 42


  C:45E5H         LINE#         531
  C:45F1H         LINE#         532
  C:45FBH         LINE#         533
  C:4605H         LINE#         534
  C:460FH         LINE#         535
  C:4619H         LINE#         538
  C:4625H         LINE#         539
  C:4631H         LINE#         540
  C:463BH         LINE#         541
  C:4645H         LINE#         542
  C:464FH         LINE#         543
  C:4659H         LINE#         546
  C:4663H         LINE#         547
  C:466DH         LINE#         548
  C:4677H         LINE#         549
  C:4681H         LINE#         550
  C:468BH         LINE#         553
  C:4695H         LINE#         554
  C:469FH         LINE#         555
  C:46A9H         LINE#         556
  C:46B3H         LINE#         557
  -------         ENDPROC       CALIBINIT
  -------         ENDMOD        CALIBRATION

  -------         MODULE        CMDSUB
  C:0000H         SYMBOL        _ICE_DUMMY_
  C:58B7H         PUBLIC        TempSortAndCalcPrm
  D:0012H         PUBLIC        px_axis
  D:0014H         PUBLIC        py_axis
  D:00A0H         PUBLIC        P2
  X:0C23H         SYMBOL        temp_xcalref
  X:0C25H         SYMBOL        temp_ycalref
  C:5BABH         PUBLIC        _Temp_CalSamp
  C:44F1H         PUBLIC        _Temp_CalTRefSet
  X:0C27H         PUBLIC        SendSpeedNum
  C:6BFAH         PUBLIC        Temp_CalStop
  C:6CF8H         PUBLIC        Temp_CalSta
  X:0C28H         PUBLIC        SystemVer
  X:0C38H         PUBLIC        SendActPosi
  X:0C39H         PUBLIC        ACalXId
  X:0C3AH         PUBLIC        ACalYId
  C:5674H         PUBLIC        _Temp_CalValWr
  C:5358H         PUBLIC        Adc_XCalStop
  C:53DFH         PUBLIC        Adc_YCalStop
  -------         PROC          TEMPSORTANDCALCPRM
  C:58B7H         LINE#         81
  C:58B7H         LINE#         82
  C:58B7H         LINE#         84
  C:5921H         LINE#         86
  C:5924H         LINE#         87
  -------         ENDPROC       TEMPSORTANDCALCPRM
  -------         PROC          _TEMP_CALVALWR
  D:0033H         SYMBOL        id
  D:0004H         SYMBOL        temp
  D:0036H         SYMBOL        x
  D:0038H         SYMBOL        y
  C:5674H         LINE#         97
BL51 BANKED LINKER/LOCATER V6.22                                                      09/18/2013  13:48:52  PAGE 43


  C:567AH         LINE#         98
  C:567AH         LINE#         99
  C:5684H         LINE#         100
  C:56A5H         LINE#         102
  C:56C6H         LINE#         103
  C:56E7H         LINE#         104
  C:56E9H         LINE#         105
  -------         ENDPROC       _TEMP_CALVALWR
  -------         PROC          TEMP_CALSTA
  C:6CF8H         LINE#         113
  C:6CF8H         LINE#         114
  C:6CF8H         LINE#         115
  C:6D01H         LINE#         116
  C:6D07H         LINE#         117
  C:6D09H         LINE#         118
  -------         ENDPROC       TEMP_CALSTA
  -------         PROC          TEMP_CALSTOP
  C:6BFAH         LINE#         126
  C:6BFAH         LINE#         127
  C:6BFAH         LINE#         128
  C:6C05H         LINE#         129
  C:6C0AH         LINE#         130
  C:6C0DH         LINE#         131
  C:6C0FH         LINE#         132
  -------         ENDPROC       TEMP_CALSTOP
  -------         PROC          _TEMP_CALSAMP
  D:0007H         SYMBOL        id
  D:002DH         SYMBOL        temp
  D:002FH         SYMBOL        x
  D:0031H         SYMBOL        y
  C:5BABH         LINE#         134
  C:5BB3H         LINE#         135
  C:5BB3H         LINE#         136
  C:5BBBH         LINE#         137
  C:5BBEH         LINE#         139
  C:5BC1H         LINE#         140
  C:5BC1H         LINE#         141
  C:5BCBH         LINE#         142
  C:5BD3H         LINE#         143
  C:5BD3H         LINE#         144
  C:5BFDH         LINE#         145
  C:5BFFH         LINE#         147
  C:5C0EH         LINE#         148
  C:5C10H         LINE#         149
  -------         ENDPROC       _TEMP_CALSAMP
  -------         PROC          _TEMP_CALTREFSET
  D:002CH         SYMBOL        id
  -------         DO            
  D:0007H         SYMBOL        i
  D:002DH         SYMBOL        x
  D:002FH         SYMBOL        y
  -------         ENDDO         
  C:44F1H         LINE#         157
  C:44F3H         LINE#         158
  C:44F3H         LINE#         162
  C:450FH         LINE#         163
  C:4530H         LINE#         164
BL51 BANKED LINKER/LOCATER V6.22                                                      09/18/2013  13:48:52  PAGE 44


  C:4551H         LINE#         166
  C:456AH         LINE#         167
  C:456AH         LINE#         168
  C:459AH         LINE#         169
  C:45CAH         LINE#         170
  C:45CDH         LINE#         171
  C:45D3H         LINE#         172
  C:45D6H         LINE#         173
  C:45D8H         LINE#         174
  -------         ENDPROC       _TEMP_CALTREFSET
  -------         PROC          ADC_XCALSTOP
  -------         DO            
  D:0022H         SYMBOL        n
  -------         ENDDO         
  C:5358H         LINE#         221
  C:5358H         LINE#         222
  C:5358H         LINE#         223
  C:536DH         LINE#         225
  C:5378H         LINE#         226
  C:5383H         LINE#         227
  C:5388H         LINE#         228
  C:53D9H         LINE#         230
  C:53DCH         LINE#         231
  C:53DEH         LINE#         232
  -------         ENDPROC       ADC_XCALSTOP
  -------         PROC          ADC_YCALSTOP
  -------         DO            
  D:0022H         SYMBOL        n
  -------         ENDDO         
  C:53DFH         LINE#         269
  C:53DFH         LINE#         270
  C:53DFH         LINE#         271
  C:53F4H         LINE#         273
  C:53FFH         LINE#         274
  C:540AH         LINE#         275
  C:540FH         LINE#         276
  C:5460H         LINE#         278
  C:5463H         LINE#         279
  C:5465H         LINE#         280
  -------         ENDPROC       ADC_YCALSTOP
  -------         ENDMOD        CMDSUB

  -------         MODULE        COMM
  C:0000H         SYMBOL        _ICE_DUMMY_
  D:0090H         PUBLIC        P1
  D:00A0H         PUBLIC        P2
  B:00A8H.7       PUBLIC        EA
  C:002EH         PUBLIC        Comm_TimerProc
  C:6F59H         PUBLIC        Comm_TimerInit
  D:00A7H         PUBLIC        SFRPAGE
  C:4E30H         PUBLIC        _Comm_GetChar
  X:06B0H         SYMBOL        CommTimer
  D:00B8H         PUBLIC        IP
  C:5845H         PUBLIC        Comm_Isr
  C:70E8H         PUBLIC        Comm_SendStop
  C:70BAH         PUBLIC        Comm_SendSta
  D:00ABH         PUBLIC        SBCON0
BL51 BANKED LINKER/LOCATER V6.22                                                      09/18/2013  13:48:52  PAGE 45


  B:0098H.7       PUBLIC        OVR0
  C:51B6H         PUBLIC        _Comm_PutChar
  X:06B2H         PUBLIC        CommBuf
  C:6A7BH         PUBLIC        Comm_HardwareInit
  B:00A8H.4       PUBLIC        ES0
  B:0098H.0       PUBLIC        RI0
  B:0098H.1       PUBLIC        TI0
  B:0020H.0       PUBLIC        CommRxFlag
  C:500EH         PUBLIC        Comm_SoftwareInit
  B:0020H.1       PUBLIC        CommTxFlag
  C:4D8BH         PUBLIC        _Comm_GetTxChar
  D:0099H         PUBLIC        SBUF0
  C:6980H         PUBLIC        _Comm_PutStr
  D:00ACH         PUBLIC        SBRL0
  D:0098H         PUBLIC        SCON0
  C:5570H         PUBLIC        _Comm_PutRxChar
  -------         PROC          COMM_ISR
  -------         DO            
  D:006EH         SYMBOL        temp
  D:006FH         SYMBOL        err
  -------         ENDDO         
  C:5845H         LINE#         29
  C:5862H         LINE#         34
  C:5865H         LINE#         35
  C:5867H         LINE#         36
  C:5872H         LINE#         37
  C:5878H         LINE#         38
  C:587BH         LINE#         40
  C:587DH         LINE#         41
  C:587FH         LINE#         43
  C:5882H         LINE#         44
  C:5884H         LINE#         45
  C:5884H         LINE#         46
  C:5884H         LINE#         48
  C:5887H         LINE#         49
  C:5889H         LINE#         50
  C:588CH         LINE#         52
  C:588FH         LINE#         54
  C:588FH         LINE#         55
  C:5894H         LINE#         56
  C:5897H         LINE#         58
  C:5897H         LINE#         59
  C:5897H         LINE#         61
  C:589AH         LINE#         62
  C:589CH         LINE#         63
  C:589CH         LINE#         64
  -------         ENDPROC       COMM_ISR
  -------         PROC          COMM_HARDWAREINIT
  -------         DO            
  D:0007H         SYMBOL        SfrPage_
  -------         ENDDO         
  C:6A7BH         LINE#         66
  C:6A7BH         LINE#         67
  C:6A7DH         LINE#         70
  C:6A80H         LINE#         71
  C:6A83H         LINE#         75
  C:6A89H         LINE#         76
BL51 BANKED LINKER/LOCATER V6.22                                                      09/18/2013  13:48:52  PAGE 46


  C:6A8CH         LINE#         90
  C:6A8FH         LINE#         91
  C:6A91H         LINE#         93
  C:6A94H         LINE#         94
  C:6A96H         LINE#         95
  C:6A98H         LINE#         96
  -------         ENDPROC       COMM_HARDWAREINIT
  -------         PROC          COMM_SOFTWAREINIT
  -------         DO            
  D:0021H         SYMBOL        p_buf
  -------         ENDDO         
  C:500EH         LINE#         98
  C:500EH         LINE#         99
  C:500EH         LINE#         100
  C:5017H         LINE#         102
  C:5023H         LINE#         103
  C:503EH         LINE#         104
  C:5059H         LINE#         105
  C:5068H         LINE#         106
  C:5081H         LINE#         107
  C:509CH         LINE#         108
  -------         ENDPROC       COMM_SOFTWAREINIT
  -------         PROC          COMM_SENDSTA
  C:70BAH         LINE#         129
  C:70BAH         LINE#         130
  C:70BAH         LINE#         131
  C:70BDH         LINE#         132
  C:70BFH         LINE#         133
  -------         ENDPROC       COMM_SENDSTA
  -------         PROC          COMM_SENDSTOP
  C:70E8H         LINE#         135
  C:70E8H         LINE#         136
  C:70E8H         LINE#         137
  C:70EBH         LINE#         138
  -------         ENDPROC       COMM_SENDSTOP
  -------         PROC          _COMM_GETTXCHAR
  D:0070H         SYMBOL        err
  -------         DO            
  D:0073H         SYMBOL        p_buf
  D:0007H         SYMBOL        c
  -------         ENDDO         
  C:4D8BH         LINE#         147
  C:4D91H         LINE#         148
  C:4D9DH         LINE#         151
  C:4D9FH         LINE#         152
  C:4DAEH         LINE#         153
  C:4DBEH         LINE#         154
  C:4DCCH         LINE#         155
  C:4DF8H         LINE#         156
  C:4E13H         LINE#         157
  C:4E13H         LINE#         158
  C:4E1DH         LINE#         159
  C:4E1FH         LINE#         160
  C:4E20H         LINE#         161
  C:4E20H         LINE#         163
  C:4E2BH         LINE#         164
  C:4E2DH         LINE#         165
BL51 BANKED LINKER/LOCATER V6.22                                                      09/18/2013  13:48:52  PAGE 47


  C:4E2FH         LINE#         166
  C:4E2FH         LINE#         167
  -------         ENDPROC       _COMM_GETTXCHAR
  -------         PROC          _COMM_PUTCHAR
  D:0007H         SYMBOL        c
  -------         DO            
  D:003CH         SYMBOL        p_buf
  -------         ENDDO         
  C:51B6H         LINE#         176
  C:51B6H         LINE#         177
  C:51C2H         LINE#         179
  C:51C4H         LINE#         180
  C:51D3H         LINE#         181
  C:51E3H         LINE#         182
  C:51F1H         LINE#         183
  C:521DH         LINE#         184
  C:5238H         LINE#         185
  C:5238H         LINE#         186
  C:523AH         LINE#         187
  C:523DH         LINE#         188
  C:523DH         LINE#         190
  C:523FH         LINE#         191
  C:5241H         LINE#         192
  C:5241H         LINE#         193
  -------         ENDPROC       _COMM_PUTCHAR
  -------         PROC          _COMM_PUTRXCHAR
  D:0007H         SYMBOL        c
  -------         DO            
  D:0070H         SYMBOL        p_buf
  -------         ENDDO         
  C:5570H         LINE#         206
  C:5570H         LINE#         207
  C:557CH         LINE#         209
  C:557EH         LINE#         210
  C:558AH         LINE#         211
  C:5597H         LINE#         212
  C:55ABH         LINE#         213
  C:55D6H         LINE#         214
  C:55F1H         LINE#         215
  C:55F1H         LINE#         216
  C:55F1H         LINE#         217
  C:55F3H         LINE#         218
  -------         ENDPROC       _COMM_PUTRXCHAR
  -------         PROC          _COMM_GETCHAR
  D:0021H         SYMBOL        err
  -------         DO            
  D:0024H         SYMBOL        p_buf
  D:0007H         SYMBOL        c
  -------         ENDDO         
  C:4E30H         LINE#         226
  C:4E36H         LINE#         227
  C:4E42H         LINE#         230
  C:4E44H         LINE#         231
  C:4E50H         LINE#         232
  C:4E5DH         LINE#         233
  C:4E71H         LINE#         234
  C:4E9CH         LINE#         235
BL51 BANKED LINKER/LOCATER V6.22                                                      09/18/2013  13:48:52  PAGE 48


  C:4EB7H         LINE#         236
  C:4EB7H         LINE#         237
  C:4EC1H         LINE#         238
  C:4EC3H         LINE#         239
  C:4EC4H         LINE#         240
  C:4EC4H         LINE#         242
  C:4ECFH         LINE#         243
  C:4ED1H         LINE#         244
  C:4ED3H         LINE#         245
  C:4ED3H         LINE#         246
  -------         ENDPROC       _COMM_GETCHAR
  -------         PROC          _COMM_PUTSTR
  D:0039H         SYMBOL        ptr
  D:0005H         SYMBOL        n
  -------         DO            
  D:0006H         SYMBOL        i
  -------         ENDDO         
  C:6980H         LINE#         249
  C:6986H         LINE#         250
  C:6986H         LINE#         252
  C:698DH         LINE#         253
  C:699DH         LINE#         254
  C:69A0H         LINE#         255
  -------         ENDPROC       _COMM_PUTSTR
  -------         PROC          COMM_TIMERINIT
  C:6F59H         LINE#         263
  C:6F59H         LINE#         264
  C:6F59H         LINE#         265
  C:6F62H         LINE#         266
  -------         ENDPROC       COMM_TIMERINIT
  -------         PROC          COMM_TIMERPROC
  C:002EH         LINE#         268
  C:002EH         LINE#         269
  C:002EH         LINE#         270
  C:003DH         LINE#         271
  C:003DH         LINE#         272
  C:0048H         LINE#         273
  C:004AH         LINE#         274
  C:004AH         LINE#         275
  -------         ENDPROC       COMM_TIMERPROC
  -------         ENDMOD        COMM

  -------         MODULE        DELAY
  C:0000H         SYMBOL        _ICE_DUMMY_
  D:00A0H         PUBLIC        P2
  C:6F63H         PUBLIC        delay_ms_
  C:6F2DH         PUBLIC        _delay_cyc
  C:6BB5H         PUBLIC        _delay_ms
  C:6DA6H         PUBLIC        delay_100us
  -------         PROC          DELAY_100US
  -------         DO            
  D:0006H         SYMBOL        i
  -------         ENDDO         
  C:6DA6H         LINE#         25
  C:6DA6H         LINE#         26
  C:6DA6H         LINE#         29
  C:6DB4H         LINE#         30
BL51 BANKED LINKER/LOCATER V6.22                                                      09/18/2013  13:48:52  PAGE 49


  -------         ENDPROC       DELAY_100US
  -------         PROC          DELAY_MS_
  -------         DO            
  D:0005H         SYMBOL        i
  -------         ENDDO         
  C:6F63H         LINE#         32
  C:6F63H         LINE#         33
  C:6F63H         LINE#         36
  C:6F65H         LINE#         37
  C:6F68H         LINE#         38
  C:6F6CH         LINE#         39
  -------         ENDPROC       DELAY_MS_
  -------         PROC          _DELAY_MS
  D:0002H         SYMBOL        n
  -------         DO            
  D:0082H         SYMBOL        i
  -------         ENDDO         
  C:6BB5H         LINE#         41
  C:6BB9H         LINE#         42
  C:6BB9H         LINE#         45
  C:6BC5H         LINE#         46
  C:6BC8H         LINE#         47
  C:6BCBH         LINE#         48
  -------         ENDPROC       _DELAY_MS
  -------         PROC          _DELAY_CYC
  D:0006H         SYMBOL        n
  C:6F2DH         LINE#         50
  C:6F2DH         LINE#         51
  C:6F2DH         LINE#         52
  C:6F37H         LINE#         53
  -------         ENDPROC       _DELAY_CYC
  -------         ENDMOD        DELAY

  -------         MODULE        FILTER
  C:0000H         SYMBOL        _ICE_DUMMY_
  C:479DH         PUBLIC        _SlideWinFilter
  C:6917H         PUBLIC        _ValInRange
  C:5D3AH         PUBLIC        _Filter_1st
  -------         PROC          _VALINRANGE
  D:0006H         SYMBOL        old_val
  D:0004H         SYMBOL        new_val
  D:0002H         SYMBOL        range
  C:6917H         LINE#         26
  C:6917H         LINE#         27
  C:6917H         LINE#         28
  C:6935H         LINE#         29
  C:6938H         LINE#         31
  C:693AH         LINE#         32
  -------         ENDPROC       _VALINRANGE
  -------         PROC          _SLIDEWINFILTER
  D:005CH         SYMBOL        pbufpos
  D:005FH         SYMBOL        pbufcnt
  D:0062H         SYMBOL        pbuf
  D:0065H         SYMBOL        val
  D:0067H         SYMBOL        ftcnt
  -------         DO            
  D:0069H         SYMBOL        data_ram
BL51 BANKED LINKER/LOCATER V6.22                                                      09/18/2013  13:48:52  PAGE 50


  D:006DH         SYMBOL        i
  -------         ENDDO         
  C:479DH         LINE#         41
  C:47A3H         LINE#         42
  C:47A3H         LINE#         43
  C:47ACH         LINE#         45
  C:47BAH         LINE#         46
  C:47BAH         LINE#         47
  C:47BEH         LINE#         48
  C:47BEH         LINE#         50
  C:47EAH         LINE#         51
  C:47F5H         LINE#         54
  C:4806H         LINE#         55
  C:4806H         LINE#         56
  C:480BH         LINE#         57
  C:4810H         LINE#         58
  C:4810H         LINE#         60
  C:4810H         LINE#         61
  C:481DH         LINE#         62
  C:481DH         LINE#         63
  C:484DH         LINE#         64
  C:4851H         LINE#         65
  C:4877H         LINE#         66
  C:4877H         LINE#         67
  C:4877H         LINE#         68
  -------         ENDPROC       _SLIDEWINFILTER
  -------         PROC          _FILTER_1ST
  D:0027H         SYMBOL        old_val
  D:002BH         SYMBOL        new_val
  D:002DH         SYMBOL        filtercnt
  C:5D3AH         LINE#         77
  C:5D42H         LINE#         78
  C:5D42H         LINE#         79
  C:5D96H         LINE#         80
  -------         ENDPROC       _FILTER_1ST
  -------         ENDMOD        FILTER

  -------         MODULE        FLASH
  C:0000H         SYMBOL        _ICE_DUMMY_
  D:00A0H         PUBLIC        P2
  B:00A8H.7       PUBLIC        EA
  D:008FH         PUBLIC        PSCTL
  C:6DE0H         SYMBOL        FlashChk
  D:00A7H         PUBLIC        SFRPAGE
  C:5EB5H         SYMBOL        _Flash_BufRd
  C:6FACH         SYMBOL        Ram_CalDataInit
  C:604BH         SYMBOL        Ram_CalDataInit_User
  D:00FFH         PUBLIC        VDM0CN
  X:04B0H         PUBLIC        DispBuf
  C:5C11H         SYMBOL        _Flash_BufWr
  C:6858H         SYMBOL        _Flash_PageErase
  C:637BH         PUBLIC        Flash_CalDataUpdate
  C:60ADH         SYMBOL        _Flash_CalDataUpdate_User
  C:6B57H         PUBLIC        Flash_UserDataUpdate
  C:66EBH         SYMBOL        _FlashUpdate
  C:2A51H         SYMBOL        _Ram_Buf2CalData
  C:2702H         SYMBOL        _Ram_CalData2Buf
BL51 BANKED LINKER/LOCATER V6.22                                                      09/18/2013  13:48:52  PAGE 51


  D:00EFH         PUBLIC        RSTSRC
  D:00ACH         PUBLIC        SBRL0
  C:65EDH         SYMBOL        _Flash_CheckSum
  C:5EFCH         SYMBOL        FlashArea_User
  C:40FCH         PUBLIC        Flash_CalDataInit
  D:00B7H         PUBLIC        FLKEY
  -------         PROC          FLASH_CALDATAINIT
  -------         DO            
  D:0021H         SYMBOL        SfrPage_
  -------         ENDDO         
  C:40FCH         LINE#         40
  C:40FCH         LINE#         41
  C:40FCH         LINE#         42
  C:40FFH         LINE#         43
  C:4112H         LINE#         44
  C:411AH         LINE#         45
  C:411AH         LINE#         46
  C:411DH         LINE#         47
  C:4120H         LINE#         48
  C:4123H         LINE#         50
  C:4123H         LINE#         51
  C:4128H         LINE#         52
  C:412BH         LINE#         53
  C:413BH         LINE#         54
  C:413BH         LINE#         55
  C:413EH         LINE#         56
  C:4140H         LINE#         58
  C:4140H         LINE#         59
  C:4153H         LINE#         60
  C:4163H         LINE#         61
  C:4163H         LINE#         62
  C:4166H         LINE#         63
  C:416BH         LINE#         64
  C:417CH         LINE#         65
  C:417EH         LINE#         67
  C:417EH         LINE#         68
  C:4181H         LINE#         69
  C:4186H         LINE#         70
  C:4186H         LINE#         71
  C:4186H         LINE#         73
  C:4186H         LINE#         75
  C:418EH         LINE#         76
  C:4196H         LINE#         78
  C:419CH         LINE#         79
  C:419FH         LINE#         81
  C:41A5H         LINE#         82
  C:41A8H         LINE#         84
  C:41AEH         LINE#         85
  C:41B1H         LINE#         87
  C:41B4H         LINE#         88
  C:41CFH         LINE#         90
  C:41D2H         LINE#         91
  C:41FDH         LINE#         92
  C:4200H         LINE#         93
  -------         ENDPROC       FLASH_CALDATAINIT
  -------         PROC          FLASH_CALDATAUPDATE
  C:637BH         LINE#         101
BL51 BANKED LINKER/LOCATER V6.22                                                      09/18/2013  13:48:52  PAGE 52


  C:637BH         LINE#         102
  C:637BH         LINE#         103
  C:6380H         LINE#         104
  C:6393H         LINE#         105
  C:6398H         LINE#         106
  C:63ABH         LINE#         107
  -------         ENDPROC       FLASH_CALDATAUPDATE
  -------         PROC          FLASH_USERDATAUPDATE
  C:6B57H         LINE#         109
  C:6B57H         LINE#         110
  C:6B57H         LINE#         112
  C:6B5AH         LINE#         113
  -------         ENDPROC       FLASH_USERDATAUPDATE
  -------         PROC          _FLASHUPDATE
  D:0042H         SYMBOL        addr
  D:0044H         SYMBOL        buf
  D:0047H         SYMBOL        n
  -------         DO            
  B:0020H.2       SYMBOL        ea_temp
  -------         ENDDO         
  C:66EBH         LINE#         117
  C:66F5H         LINE#         118
  C:66F5H         LINE#         119
  C:66F9H         LINE#         120
  C:66FBH         LINE#         122
  C:66FEH         LINE#         123
  C:6705H         LINE#         124
  C:6718H         LINE#         126
  C:671CH         LINE#         127
  -------         ENDPROC       _FLASHUPDATE
  C:60A9H         SYMBOL        L?0088
  -------         PROC          L?0087
  -------         ENDPROC       L?0087
  C:60A9H         SYMBOL        L?0088
  -------         PROC          _FLASH_CALDATAUPDATE_USER
  D:0039H         SYMBOL        page
  D:003AH         SYMBOL        addr
  D:003CH         SYMBOL        buf
  D:003FH         SYMBOL        n
  -------         DO            
  D:0041H         SYMBOL        sum
  D:0082H         SYMBOL        pread
  -------         ENDDO         
  C:60ADH         LINE#         136
  C:60B9H         LINE#         137
  C:60B9H         LINE#         141
  C:60C5H         LINE#         143
  C:60C9H         LINE#         144
  C:60CEH         LINE#         146
  C:60D6H         LINE#         147
  C:60E9H         LINE#         148
  -------         ENDPROC       _FLASH_CALDATAUPDATE_USER
  -------         PROC          RAM_CALDATAINIT
  C:6FACH         LINE#         156
  C:6FACH         LINE#         157
  C:6FACH         LINE#         158
  C:6FAFH         LINE#         159
BL51 BANKED LINKER/LOCATER V6.22                                                      09/18/2013  13:48:52  PAGE 53


  C:6FB2H         LINE#         160
  -------         ENDPROC       RAM_CALDATAINIT
  -------         PROC          _RAM_CALDATA2BUF
  D:0042H         SYMBOL        page
  -------         DO            
  D:0043H         SYMBOL        i
  D:0044H         SYMBOL        j
  D:0046H         SYMBOL        k
  -------         ENDDO         
  C:2702H         LINE#         163
  C:2704H         LINE#         164
  C:2704H         LINE#         167
  C:270DH         LINE#         168
  C:270DH         LINE#         169
  C:270FH         LINE#         170
  C:270FH         LINE#         172
  C:2722H         LINE#         173
  C:2735H         LINE#         174
  C:274AH         LINE#         175
  C:275FH         LINE#         177
  C:2768H         LINE#         178
  C:276EH         LINE#         179
  C:2771H         LINE#         180
  C:2771H         LINE#         181
  C:2795H         LINE#         182
  C:279CH         LINE#         184
  C:27A7H         LINE#         185
  C:27AAH         LINE#         186
  C:27AAH         LINE#         188
  C:27D0H         LINE#         189
  C:27F6H         LINE#         190
  C:281CH         LINE#         191
  C:2825H         LINE#         192
  C:2830H         LINE#         193
  C:2841H         LINE#         194
  C:2852H         LINE#         195
  C:286BH         LINE#         198
  C:287DH         LINE#         199
  C:288FH         LINE#         200
  C:28A2H         LINE#         202
  C:28B3H         LINE#         203
  C:28B6H         LINE#         204
  C:28B6H         LINE#         205
  C:28DCH         LINE#         206
  C:2902H         LINE#         207
  C:290BH         LINE#         209
  C:2916H         LINE#         210
  C:291DH         LINE#         211
  C:291DH         LINE#         212
  C:292BH         LINE#         213
  C:2935H         LINE#         215
  C:2935H         LINE#         216
  C:2935H         LINE#         217
  C:2938H         LINE#         218
  C:2941H         LINE#         219
  C:2941H         LINE#         220
  C:2949H         LINE#         221
BL51 BANKED LINKER/LOCATER V6.22                                                      09/18/2013  13:48:52  PAGE 54


  C:2951H         LINE#         222
  C:2959H         LINE#         223
  C:2961H         LINE#         224
  C:2970H         LINE#         225
  C:297CH         LINE#         227
  C:2982H         LINE#         229
  C:2994H         LINE#         230
  C:29A6H         LINE#         232
  C:29B8H         LINE#         233
  C:29CAH         LINE#         235
  C:29DCH         LINE#         236
  C:29EEH         LINE#         237
  C:2A00H         LINE#         238
  C:2A18H         LINE#         240
  C:2A23H         LINE#         241
  C:2A2AH         LINE#         242
  C:2A2AH         LINE#         243
  C:2A38H         LINE#         244
  C:2A42H         LINE#         247
  C:2A48H         LINE#         248
  C:2A50H         LINE#         249
  C:2A50H         LINE#         250
  -------         ENDPROC       _RAM_CALDATA2BUF
  -------         PROC          _RAM_BUF2CALDATA
  D:0022H         SYMBOL        page
  -------         DO            
  D:0023H         SYMBOL        i
  D:0024H         SYMBOL        j
  -------         ENDDO         
  C:2A51H         LINE#         256
  C:2A53H         LINE#         257
  C:2A53H         LINE#         259
  C:2A5CH         LINE#         260
  C:2A5CH         LINE#         261
  C:2A5EH         LINE#         262
  C:2A5EH         LINE#         269
  C:2A72H         LINE#         270
  C:2A86H         LINE#         271
  C:2A9BH         LINE#         272
  C:2AB0H         LINE#         274
  C:2AB9H         LINE#         275
  C:2ABFH         LINE#         276
  C:2AC2H         LINE#         277
  C:2AC2H         LINE#         278
  C:2AE6H         LINE#         279
  C:2AEDH         LINE#         282
  C:2AF8H         LINE#         283
  C:2AFBH         LINE#         284
  C:2AFBH         LINE#         285
  C:2B21H         LINE#         286
  C:2B47H         LINE#         287
  C:2B6DH         LINE#         289
  C:2B76H         LINE#         290
  C:2B81H         LINE#         291
  C:2B92H         LINE#         292
  C:2BA3H         LINE#         293
  C:2BBBH         LINE#         295
BL51 BANKED LINKER/LOCATER V6.22                                                      09/18/2013  13:48:52  PAGE 55


  C:2BCDH         LINE#         296
  C:2BDFH         LINE#         297
  C:2BF0H         LINE#         299
  C:2C01H         LINE#         300
  C:2C04H         LINE#         301
  C:2C04H         LINE#         302
  C:2C2AH         LINE#         303
  C:2C50H         LINE#         304
  C:2C59H         LINE#         308
  C:2C59H         LINE#         309
  C:2C62H         LINE#         310
  C:2C62H         LINE#         311
  C:2C6AH         LINE#         312
  C:2C72H         LINE#         313
  C:2C7AH         LINE#         314
  C:2C82H         LINE#         315
  C:2C91H         LINE#         316
  C:2C9DH         LINE#         318
  C:2CA3H         LINE#         320
  C:2CB5H         LINE#         321
  C:2CC7H         LINE#         323
  C:2CD9H         LINE#         324
  C:2CEBH         LINE#         326
  C:2CFDH         LINE#         327
  C:2D0FH         LINE#         328
  C:2D21H         LINE#         329
  C:2D35H         LINE#         331
  C:2D35H         LINE#         332
  -------         ENDPROC       _RAM_BUF2CALDATA
  C:65E3H         SYMBOL        L?0086
  -------         PROC          L?0085
  -------         ENDPROC       L?0085
  C:65E3H         SYMBOL        L?0086
  -------         PROC          _FLASH_CHECKSUM
  D:0001H         SYMBOL        addr
  D:0048H         SYMBOL        n
  -------         DO            
  D:004AH         SYMBOL        pread
  D:0004H         SYMBOL        i
  D:0007H         SYMBOL        sum
  -------         ENDDO         
  C:65EDH         LINE#         336
  C:65F1H         LINE#         337
  C:65F1H         LINE#         339
  C:65F3H         LINE#         340
  C:65F9H         LINE#         341
  C:6604H         LINE#         342
  C:6604H         LINE#         343
  C:6612H         LINE#         344
  C:6619H         LINE#         345
  C:6619H         LINE#         346
  -------         ENDPROC       _FLASH_CHECKSUM
  -------         PROC          _FLASH_PAGEERASE
  D:0006H         SYMBOL        addr
  -------         DO            
  D:0082H         SYMBOL        pwrite
  B:0020H.3       SYMBOL        ea_temp
BL51 BANKED LINKER/LOCATER V6.22                                                      09/18/2013  13:48:52  PAGE 56


  -------         ENDDO         
  C:6858H         LINE#         355
  C:6858H         LINE#         356
  C:6858H         LINE#         357
  C:685CH         LINE#         360
  C:6860H         LINE#         361
  C:6862H         LINE#         362
  C:6865H         LINE#         363
  C:6868H         LINE#         364
  C:686BH         LINE#         365
  C:686EH         LINE#         366
  C:6871H         LINE#         367
  C:6874H         LINE#         368
  C:6877H         LINE#         369
  C:6879H         LINE#         370
  C:687CH         LINE#         371
  C:6880H         LINE#         372
  -------         ENDPROC       _FLASH_PAGEERASE
  -------         PROC          _FLASH_BUFWR
  D:0006H         SYMBOL        addr
  D:004BH         SYMBOL        buf
  D:004EH         SYMBOL        n
  -------         DO            
  D:0050H         SYMBOL        pwrite
  B:0020H.3       SYMBOL        ea_temp
  D:0052H         SYMBOL        i
  -------         ENDDO         
  C:5C11H         LINE#         381
  C:5C17H         LINE#         382
  C:5C17H         LINE#         383
  C:5C1BH         LINE#         387
  C:5C1FH         LINE#         388
  C:5C21H         LINE#         389
  C:5C31H         LINE#         390
  C:5C34H         LINE#         391
  C:5C37H         LINE#         392
  C:5C3AH         LINE#         393
  C:5C3DH         LINE#         394
  C:5C40H         LINE#         395
  C:5C43H         LINE#         396
  C:5C46H         LINE#         397
  C:5C64H         LINE#         398
  C:5C67H         LINE#         399
  C:5C71H         LINE#         400
  C:5C75H         LINE#         401
  -------         ENDPROC       _FLASH_BUFWR
  C:5EA5H         SYMBOL        L?0084
  -------         PROC          L?0083
  -------         ENDPROC       L?0083
  C:5EA5H         SYMBOL        L?0084
  -------         PROC          _FLASH_BUFRD
  D:0006H         SYMBOL        addr
  D:0024H         SYMBOL        buf
  D:0027H         SYMBOL        n
  -------         DO            
  D:0029H         SYMBOL        pread
  B:0020H.2       SYMBOL        ea_temp
BL51 BANKED LINKER/LOCATER V6.22                                                      09/18/2013  13:48:52  PAGE 57


  D:0006H         SYMBOL        i
  -------         ENDDO         
  C:5EB5H         LINE#         410
  C:5EBBH         LINE#         411
  C:5EBBH         LINE#         412
  C:5EBFH         LINE#         415
  C:5EC3H         LINE#         416
  C:5EC5H         LINE#         417
  C:5ED1H         LINE#         418
  C:5ED1H         LINE#         419
  C:5EF0H         LINE#         420
  C:5EF7H         LINE#         421
  C:5EFBH         LINE#         422
  -------         ENDPROC       _FLASH_BUFRD
  -------         PROC          FLASHCHK
  -------         DO            
  D:0007H         SYMBOL        temp
  -------         ENDDO         
  C:6DE0H         LINE#         431
  C:6DE0H         LINE#         432
  C:6DE0H         LINE#         433
  C:6DE5H         LINE#         434
  C:6DEBH         LINE#         436
  C:6DEDH         LINE#         437
  -------         ENDPROC       FLASHCHK
  -------         PROC          FLASHAREA_USER
  C:5EFCH         LINE#         446
  C:5EFCH         LINE#         447
  C:5EFCH         LINE#         448
  C:5F0FH         LINE#         449
  C:5F1FH         LINE#         450
  C:5F1FH         LINE#         451
  C:5F22H         LINE#         452
  C:5F25H         LINE#         453
  C:5F35H         LINE#         454
  C:5F37H         LINE#         456
  C:5F37H         LINE#         457
  C:5F3CH         LINE#         458
  C:5F51H         LINE#         460
  C:5F51H         LINE#         462
  -------         ENDPROC       FLASHAREA_USER
  -------         PROC          RAM_CALDATAINIT_USER
  C:604BH         LINE#         473
  C:604BH         LINE#         474
  C:604BH         LINE#         476
  C:6056H         LINE#         477
  C:6061H         LINE#         478
  C:606CH         LINE#         479
  C:6077H         LINE#         480
  C:6082H         LINE#         481
  C:608DH         LINE#         482
  C:6098H         LINE#         483
  -------         ENDPROC       RAM_CALDATAINIT_USER
  -------         ENDMOD        FLASH

  -------         MODULE        INIT
  C:0000H         SYMBOL        _ICE_DUMMY_
BL51 BANKED LINKER/LOCATER V6.22                                                      09/18/2013  13:48:52  PAGE 58


  D:00A0H         PUBLIC        P2
  C:5FFAH         PUBLIC        Init_SystemPara
  D:00A7H         PUBLIC        SFRPAGE
  D:00A4H         PUBLIC        P0MDOUT
  D:00A6H         PUBLIC        P2MDOUT
  C:6A99H         PUBLIC        Init_All
  D:00E1H         PUBLIC        XBR0
  D:00C7H         PUBLIC        XBR2
  D:00FFH         PUBLIC        VDM0CN
  D:00F1H         PUBLIC        P0MDIN
  D:00F2H         PUBLIC        P1MDIN
  D:00D4H         PUBLIC        P0SKIP
  D:00D5H         PUBLIC        P1SKIP
  D:008FH         PUBLIC        CLKSEL
  D:00A1H         PUBLIC        OSCICN
  C:6B25H         SYMBOL        Sys_ClkInit
  C:693BH         PUBLIC        Sys_PortInit
  D:00EFH         PUBLIC        RSTSRC
  -------         PROC          INIT_SYSTEMPARA
  C:5FFAH         LINE#         26
  C:5FFAH         LINE#         27
  C:5FFAH         LINE#         28
  C:6000H         LINE#         29
  C:6004H         LINE#         30
  C:601CH         LINE#         32
  C:6026H         LINE#         33
  C:602CH         LINE#         34
  C:6032H         LINE#         35
  C:603CH         LINE#         36
  C:6045H         LINE#         37
  C:604AH         LINE#         40
  -------         ENDPROC       INIT_SYSTEMPARA
  -------         PROC          SYS_CLKINIT
  -------         DO            
  D:0007H         SYMBOL        SfrPage_
  -------         ENDDO         
  C:6B25H         LINE#         42
  C:6B25H         LINE#         43
  C:6B27H         LINE#         45
  C:6B2AH         LINE#         47
  C:6B2DH         LINE#         51
  C:6B30H         LINE#         52
  C:6B35H         LINE#         53
  C:6B38H         LINE#         54
  C:6B3BH         LINE#         56
  C:6B3DH         LINE#         57
  -------         ENDPROC       SYS_CLKINIT
  -------         PROC          SYS_PORTINIT
  -------         DO            
  D:0007H         SYMBOL        SfrPage_
  -------         ENDDO         
  C:693BH         LINE#         59
  C:693BH         LINE#         60
  C:693BH         LINE#         61
  C:693DH         LINE#         62
  C:6940H         LINE#         63
  C:6943H         LINE#         64
BL51 BANKED LINKER/LOCATER V6.22                                                      09/18/2013  13:48:52  PAGE 59


  C:6946H         LINE#         65
  C:6949H         LINE#         66
  C:694CH         LINE#         67
  C:694FH         LINE#         69
  C:6952H         LINE#         70
  C:6955H         LINE#         71
  C:6958H         LINE#         72
  C:695BH         LINE#         73
  C:695DH         LINE#         74
  -------         ENDPROC       SYS_PORTINIT
  -------         PROC          INIT_ALL
  C:6A99H         LINE#         76
  C:6A99H         LINE#         77
  C:6A99H         LINE#         78
  C:6A9CH         LINE#         79
  C:6A9FH         LINE#         81
  C:6AA2H         LINE#         82
  C:6AA5H         LINE#         84
  C:6AA8H         LINE#         85
  C:6AABH         LINE#         86
  C:6AAEH         LINE#         87
  C:6AB1H         LINE#         88
  C:6AB4H         LINE#         89
  -------         ENDPROC       INIT_ALL
  -------         ENDMOD        INIT

  -------         MODULE        KEY
  C:0000H         SYMBOL        _ICE_DUMMY_
  D:00A0H         PUBLIC        P2
  C:6804H         PUBLIC        Key_Proc
  C:63BEH         SYMBOL        Key_Down
  X:0C57H         PUBLIC        KeyEnb
  B:00A0H.4       PUBLIC        KEY_IO
  -------         PROC          KEY_DOWN
  -------         DO            
  X:0C55H         SYMBOL        KeyTime
  -------         ENDDO         
  C:63BEH         LINE#         26
  C:63BEH         LINE#         27
  C:63BEH         LINE#         30
  C:63C0H         LINE#         31
  C:63C7H         LINE#         32
  C:63CAH         LINE#         33
  C:63DCH         LINE#         34
  C:63E6H         LINE#         35
  C:63F2H         LINE#         36
  C:63F5H         LINE#         38
  C:63F8H         LINE#         39
  C:63F8H         LINE#         41
  C:63FFH         LINE#         42
  C:6400H         LINE#         43
  C:6400H         LINE#         44
  -------         ENDPROC       KEY_DOWN
  -------         PROC          KEY_PROC
  C:6804H         LINE#         46
  C:6804H         LINE#         47
  C:6804H         LINE#         48
BL51 BANKED LINKER/LOCATER V6.22                                                      09/18/2013  13:48:52  PAGE 60


  C:680AH         LINE#         49
  C:6810H         LINE#         50
  C:6810H         LINE#         51
  C:6816H         LINE#         52
  C:681CH         LINE#         53
  C:6827H         LINE#         54
  C:682AH         LINE#         55
  C:682DH         LINE#         56
  C:682DH         LINE#         57
  -------         ENDPROC       KEY_PROC
  -------         ENDMOD        KEY

  -------         MODULE        MAIN
  C:0000H         SYMBOL        _ICE_DUMMY_
  C:706FH         PUBLIC        Main_Temp
  D:00A0H         PUBLIC        P2
  B:00A8H.7       PUBLIC        EA
  B:00A0H.5       PUBLIC        LED_S
  D:00A7H         PUBLIC        SFRPAGE
  B:00A0H.7       PUBLIC        LED_X
  B:00A0H.6       PUBLIC        LED_Y
  D:00D9H         PUBLIC        PCA0MD
  C:67D7H         PUBLIC        main
  X:0C50H         PUBLIC        AlarmHighLow
  X:0C52H         PUBLIC        MenuId
  X:0C53H         PUBLIC        TempA
  -------         PROC          MAIN_TEMP
  C:706FH         LINE#         27
  C:706FH         LINE#         28
  C:706FH         LINE#         29
  C:7071H         LINE#         30
  C:7073H         LINE#         31
  C:7075H         LINE#         32
  -------         ENDPROC       MAIN_TEMP
  -------         PROC          MAIN
  C:67D7H         LINE#         34
  C:67D7H         LINE#         35
  C:67D7H         LINE#         36
  C:67DAH         LINE#         37
  C:67DDH         LINE#         38
  C:67E0H         LINE#         39
  C:67E2H         LINE#         40
  C:67E5H         LINE#         41
  C:67EAH         LINE#         42
  C:67EDH         LINE#         43
  C:67F3H         LINE#         44
  C:67F3H         LINE#         45
  C:67F3H         LINE#         46
  C:67F6H         LINE#         47
  C:67F9H         LINE#         48
  C:67FCH         LINE#         49
  C:67FFH         LINE#         50
  C:6802H         LINE#         51
  -------         ENDPROC       MAIN
  -------         ENDMOD        MAIN

  -------         MODULE        MODBUSCRC
BL51 BANKED LINKER/LOCATER V6.22                                                      09/18/2013  13:48:52  PAGE 61


  C:0000H         SYMBOL        _ICE_DUMMY_
  D:00A0H         PUBLIC        P2
  C:6650H         PUBLIC        _ModbusCrcCnt
  C:2D36H         SYMBOL        CrcTabHi
  C:2E36H         SYMBOL        CrcTabLi
  -------         PROC          _MODBUSCRCCNT
  D:0035H         SYMBOL        ptr
  D:0005H         SYMBOL        len
  -------         DO            
  D:0002H         SYMBOL        index
  D:0007H         SYMBOL        crchi
  D:0004H         SYMBOL        crcli
  -------         ENDDO         
  C:6650H         LINE#         114
  C:6656H         LINE#         115
  C:6656H         LINE#         119
  C:6658H         LINE#         120
  C:665AH         LINE#         122
  C:6660H         LINE#         123
  C:6660H         LINE#         124
  C:6670H         LINE#         125
  C:6676H         LINE#         126
  C:667CH         LINE#         127
  C:667EH         LINE#         128
  C:6684H         LINE#         129
  -------         ENDPROC       _MODBUSCRCCNT
  -------         ENDMOD        MODBUSCRC

  -------         MODULE        MODBUSRTU
  C:0000H         SYMBOL        _ICE_DUMMY_
  D:00A0H         PUBLIC        P2
  C:62ADH         SYMBOL        _ModRtu_RlyError
  C:6881H         PUBLIC        _ModRtu_WrAddr
  C:68A9H         PUBLIC        _ModRtu_WrBaud
  X:0C40H         PUBLIC        AngRange
  C:66B8H         PUBLIC        _ModRtu_SetZero
  C:4404H         SYMBOL        _ModRtu_RdReg
  C:0BE7H         PUBLIC        _ModRtu_RdVal
  C:64BCH         PUBLIC        _ModRtu_RxProc
  C:6F38H         PUBLIC        _ModRtu_WrCrc
  C:4201H         SYMBOL        _ModRtu_WrReg
  X:0C42H         SYMBOL        udflashtag
  C:1761H         PUBLIC        _ModRtu_WrVal
  C:6EDDH         PUBLIC        _ModRtu_8to16
  C:6E3FH         PUBLIC        _ModRtu_Rd16u
  C:69A7H         PUBLIC        _ModRtu_Wr16u
  C:50A7H         SYMBOL        _FloatToInt
  C:6C10H         PUBLIC        _ModRtu_ChkCrc
  X:0C43H         PUBLIC        AngAlarmOffset
  X:0C47H         PUBLIC        Addr
  C:509DH         SYMBOL        L?0728
  -------         PROC          L?0727
  -------         ENDPROC       L?0727
  C:509DH         SYMBOL        L?0728
  -------         PROC          _FLOATTOINT
  D:003AH         SYMBOL        ang
  D:003EH         SYMBOL        highlow
BL51 BANKED LINKER/LOCATER V6.22                                                      09/18/2013  13:48:52  PAGE 62


  -------         DO            
  D:0040H         SYMBOL        temp
  D:0044H         SYMBOL        vol
  -------         ENDDO         
  C:50A7H         LINE#         27
  C:50AFH         LINE#         28
  C:50AFH         LINE#         32
  C:50C1H         LINE#         33
  C:50C9H         LINE#         35
  C:50D9H         LINE#         36
  C:50D9H         LINE#         37
  C:50ECH         LINE#         38
  C:50F9H         LINE#         39
  C:50FBH         LINE#         41
  C:50FBH         LINE#         42
  C:510EH         LINE#         43
  C:5125H         LINE#         44
  C:5125H         LINE#         45
  C:5129H         LINE#         46
  -------         ENDPROC       _FLOATTOINT
  -------         PROC          _MODRTU_CHKCRC
  D:0001H         SYMBOL        buf
  D:0005H         SYMBOL        len
  C:6C10H         LINE#         54
  C:6C10H         LINE#         55
  C:6C10H         LINE#         56
  C:6C16H         LINE#         57
  C:6C16H         LINE#         58
  C:6C19H         LINE#         59
  C:6C19H         LINE#         60
  C:6C20H         LINE#         61
  C:6C20H         LINE#         62
  C:6C23H         LINE#         63
  C:6C23H         LINE#         65
  C:6C23H         LINE#         66
  C:6C25H         LINE#         67
  C:6C25H         LINE#         68
  -------         ENDPROC       _MODRTU_CHKCRC
  -------         PROC          _MODRTU_WRCRC
  D:0001H         SYMBOL        buf
  D:0004H         SYMBOL        crc
  C:6F38H         LINE#         76
  C:6F38H         LINE#         77
  C:6F38H         LINE#         78
  C:6F3CH         LINE#         79
  -------         ENDPROC       _MODRTU_WRCRC
  -------         PROC          _MODRTU_8TO16
  D:0001H         SYMBOL        buf
  -------         DO            
  D:0006H         SYMBOL        temp
  -------         ENDDO         
  C:6EDDH         LINE#         88
  C:6EDDH         LINE#         89
  C:6EDDH         LINE#         92
  C:6EE0H         LINE#         93
  C:6EE1H         LINE#         94
  C:6EE8H         LINE#         95
BL51 BANKED LINKER/LOCATER V6.22                                                      09/18/2013  13:48:52  PAGE 63


  C:6EE8H         LINE#         96
  -------         ENDPROC       _MODRTU_8TO16
  -------         PROC          _MODRTU_SETZERO
  D:0001H         SYMBOL        buf
  -------         DO            
  D:0039H         SYMBOL        temp
  -------         ENDDO         
  C:66B8H         LINE#         104
  C:66B8H         LINE#         105
  C:66B8H         LINE#         106
  C:66BFH         LINE#         108
  C:66C7H         LINE#         109
  C:66C7H         LINE#         110
  C:66CDH         LINE#         111
  C:66D0H         LINE#         112
  C:66D2H         LINE#         113
  C:66D8H         LINE#         114
  C:66D8H         LINE#         115
  C:66DFH         LINE#         116
  C:66EAH         LINE#         117
  C:66EAH         LINE#         118
  -------         ENDPROC       _MODRTU_SETZERO
  C:69A1H         SYMBOL        L?0730
  -------         PROC          L?0729
  -------         ENDPROC       L?0729
  C:69A1H         SYMBOL        L?0730
  -------         PROC          _MODRTU_WR16U
  D:0001H         SYMBOL        buf
  -------         DO            
  D:0006H         SYMBOL        temp
  D:0004H         SYMBOL        dat
  -------         ENDDO         
  C:69A7H         LINE#         126
  C:69A7H         LINE#         127
  C:69A7H         LINE#         131
  C:69AAH         LINE#         132
  C:69ABH         LINE#         133
  C:69B2H         LINE#         134
  C:69C1H         LINE#         135
  C:69C1H         LINE#         136
  -------         ENDPROC       _MODRTU_WR16U
  -------         PROC          _MODRTU_WRADDR
  D:0001H         SYMBOL        buf
  -------         DO            
  D:0006H         SYMBOL        temp
  -------         ENDDO         
  C:6881H         LINE#         144
  C:6881H         LINE#         145
  C:6881H         LINE#         148
  C:6884H         LINE#         149
  C:6885H         LINE#         150
  C:688CH         LINE#         151
  C:68A1H         LINE#         152
  C:68A6H         LINE#         153
  C:68A8H         LINE#         154
  -------         ENDPROC       _MODRTU_WRADDR
  -------         PROC          _MODRTU_WRBAUD
BL51 BANKED LINKER/LOCATER V6.22                                                      09/18/2013  13:48:52  PAGE 64


  D:0001H         SYMBOL        buf
  -------         DO            
  D:0006H         SYMBOL        temp
  -------         ENDDO         
  C:68A9H         LINE#         162
  C:68A9H         LINE#         163
  C:68A9H         LINE#         166
  C:68ACH         LINE#         167
  C:68ADH         LINE#         168
  C:68B4H         LINE#         169
  C:68C6H         LINE#         170
  C:68CBH         LINE#         171
  C:68CDH         LINE#         172
  -------         ENDPROC       _MODRTU_WRBAUD
  -------         PROC          _MODRTU_WRVAL
  D:0031H         SYMBOL        addr
  D:0033H         SYMBOL        buf
  D:0036H         SYMBOL        excode
  -------         DO            
  X:0C3BH         SYMBOL        vol32u
  X:0C3FH         SYMBOL        vol8u
  X:0C48H         SYMBOL        volf
  X:0C4CH         SYMBOL        pc_data
  X:0C4EH         SYMBOL        vol16s
  -------         ENDDO         
  C:1761H         LINE#         181
  C:176BH         LINE#         182
  C:176BH         LINE#         189
  C:1783H         LINE#         190
  C:18C7H         LINE#         191
  C:18C7H         LINE#         192
  C:18CDH         LINE#         193
  C:18CDH         LINE#         194
  C:18CFH         LINE#         195
  C:18D5H         LINE#         196
  C:18D5H         LINE#         197
  C:18D7H         LINE#         198
  C:18DDH         LINE#         199
  C:18DDH         LINE#         200
  C:18DFH         LINE#         201
  C:18E5H         LINE#         202
  C:18E5H         LINE#         203
  C:18E7H         LINE#         204
  C:18EDH         LINE#         205
  C:18EDH         LINE#         206
  C:18EFH         LINE#         207
  C:18F8H         LINE#         208
  C:18FEH         LINE#         209
  C:1901H         LINE#         213
  C:1901H         LINE#         214
  C:1907H         LINE#         215
  C:1910H         LINE#         216
  C:1910H         LINE#         217
  C:1916H         LINE#         218
  C:191FH         LINE#         220
  C:191FH         LINE#         221
  C:191FH         LINE#         222
BL51 BANKED LINKER/LOCATER V6.22                                                      09/18/2013  13:48:52  PAGE 65


  C:191FH         LINE#         223
  C:191FH         LINE#         225
  C:191FH         LINE#         227
  C:191FH         LINE#         228
  C:191FH         LINE#         232
  C:191FH         LINE#         233
  C:191FH         LINE#         234
  C:191FH         LINE#         236
  C:191FH         LINE#         238
  C:191FH         LINE#         239
  C:191FH         LINE#         243
  C:191FH         LINE#         244
  C:191FH         LINE#         245
  C:191FH         LINE#         246
  C:1934H         LINE#         247
  C:1937H         LINE#         248
  C:1937H         LINE#         249
  C:1937H         LINE#         250
  C:1937H         LINE#         251
  C:193AH         LINE#         252
  C:193AH         LINE#         253
  C:193AH         LINE#         254
  C:193AH         LINE#         255
  C:193AH         LINE#         256
  C:193AH         LINE#         257
  C:193DH         LINE#         258
  C:193DH         LINE#         259
  C:193DH         LINE#         260
  C:193DH         LINE#         261
  C:1940H         LINE#         262
  C:1940H         LINE#         263
  C:1940H         LINE#         264
  C:1940H         LINE#         265
  C:1940H         LINE#         266
  C:1940H         LINE#         267
  C:1943H         LINE#         268
  C:1943H         LINE#         269
  C:1943H         LINE#         270
  C:1943H         LINE#         271
  C:1946H         LINE#         272
  C:1946H         LINE#         273
  C:1946H         LINE#         274
  C:1946H         LINE#         275
  C:1946H         LINE#         276
  C:1946H         LINE#         277
  C:1949H         LINE#         278
  C:1949H         LINE#         279
  C:1949H         LINE#         280
  C:1949H         LINE#         281
  C:194CH         LINE#         282
  C:194CH         LINE#         283
  C:194CH         LINE#         284
  C:194CH         LINE#         285
  C:194CH         LINE#         286
  C:194CH         LINE#         287
  C:194FH         LINE#         288
  C:194FH         LINE#         289
BL51 BANKED LINKER/LOCATER V6.22                                                      09/18/2013  13:48:52  PAGE 66


  C:194FH         LINE#         290
  C:194FH         LINE#         291
  C:1952H         LINE#         292
  C:1952H         LINE#         293
  C:1952H         LINE#         294
  C:1984H         LINE#         295
  C:1998H         LINE#         296
  C:1998H         LINE#         297
  C:199BH         LINE#         298
  C:199DH         LINE#         299
  C:19B4H         LINE#         300
  C:19B4H         LINE#         301
  C:19BBH         LINE#         302
  C:19BBH         LINE#         303
  C:19BEH         LINE#         304
  C:19BEH         LINE#         305
  C:19BEH         LINE#         306
  C:19BEH         LINE#         307
  C:19C1H         LINE#         308
  C:19C1H         LINE#         309
  C:19C1H         LINE#         310
  C:19F3H         LINE#         311
  C:1A07H         LINE#         312
  C:1A07H         LINE#         313
  C:1A07H         LINE#         314
  C:1A0AH         LINE#         315
  C:1A21H         LINE#         316
  C:1A21H         LINE#         317
  C:1A25H         LINE#         318
  C:1A25H         LINE#         319
  C:1A28H         LINE#         320
  C:1A28H         LINE#         321
  C:1A28H         LINE#         322
  C:1A28H         LINE#         323
  C:1A2BH         LINE#         324
  C:1A2BH         LINE#         325
  C:1A2BH         LINE#         326
  C:1A2BH         LINE#         327
  C:1A2BH         LINE#         328
  C:1A2BH         LINE#         329
  C:1A2EH         LINE#         330
  C:1A2EH         LINE#         331
  C:1A2EH         LINE#         332
  C:1A2EH         LINE#         333
  C:1A31H         LINE#         334
  C:1A31H         LINE#         335
  C:1A31H         LINE#         336
  C:1A31H         LINE#         337
  C:1A31H         LINE#         338
  C:1A31H         LINE#         340
  C:1A34H         LINE#         341
  C:1A34H         LINE#         342
  C:1A34H         LINE#         343
  C:1A44H         LINE#         344
  C:1A57H         LINE#         345
  C:1A57H         LINE#         346
  C:1A57H         LINE#         347
BL51 BANKED LINKER/LOCATER V6.22                                                      09/18/2013  13:48:52  PAGE 67


  C:1A57H         LINE#         348
  C:1A6AH         LINE#         349
  C:1A6AH         LINE#         350
  C:1A6DH         LINE#         351
  C:1A6DH         LINE#         352
  C:1A70H         LINE#         356
  C:1A70H         LINE#         357
  C:1A70H         LINE#         358
  C:1A70H         LINE#         359
  C:1A70H         LINE#         360
  C:1A70H         LINE#         361
  C:1A70H         LINE#         362
  C:1A70H         LINE#         363
  C:1A70H         LINE#         364
  C:1A70H         LINE#         365
  C:1A8FH         LINE#         366
  C:1AA2H         LINE#         367
  C:1AA5H         LINE#         368
  C:1AA5H         LINE#         369
  C:1AA5H         LINE#         370
  C:1AB2H         LINE#         371
  C:1AC3H         LINE#         372
  C:1ACBH         LINE#         373
  C:1AEBH         LINE#         374
  C:1AEBH         LINE#         375
  C:1AEFH         LINE#         376
  C:1AF3H         LINE#         377
  C:1AF7H         LINE#         378
  C:1AFBH         LINE#         379
  C:1AFFH         LINE#         380
  C:1B03H         LINE#         381
  C:1B0BH         LINE#         383
  C:1B0EH         LINE#         384
  C:1B0EH         LINE#         385
  C:1B0EH         LINE#         386
  C:1B0EH         LINE#         387
  C:1B0EH         LINE#         388
  C:1B0EH         LINE#         389
  C:1B11H         LINE#         391
  C:1B11H         LINE#         392
  C:1B11H         LINE#         393
  C:1B43H         LINE#         394
  C:1B4FH         LINE#         395
  C:1B64H         LINE#         396
  C:1B64H         LINE#         397
  C:1B70H         LINE#         398
  C:1B72H         LINE#         400
  C:1B72H         LINE#         401
  C:1B86H         LINE#         402
  C:1B86H         LINE#         403
  C:1B95H         LINE#         404
  C:1B95H         LINE#         405
  C:1BA1H         LINE#         406
  C:1BA1H         LINE#         407
  C:1BA4H         LINE#         408
  C:1BB3H         LINE#         409
  C:1BB3H         LINE#         410
BL51 BANKED LINKER/LOCATER V6.22                                                      09/18/2013  13:48:52  PAGE 68


  C:1BD1H         LINE#         411
  C:1BF6H         LINE#         412
  C:1BF6H         LINE#         413
  C:1BFFH         LINE#         414
  C:1C09H         LINE#         415
  C:1C14H         LINE#         416
  C:1C1FH         LINE#         417
  C:1C2AH         LINE#         418
  C:1C35H         LINE#         419
  C:1C40H         LINE#         420
  C:1C4BH         LINE#         421
  C:1C4BH         LINE#         422
  C:1C4BH         LINE#         424
  C:1C4BH         LINE#         425
  C:1C62H         LINE#         426
  C:1C7CH         LINE#         428
  C:1C7CH         LINE#         429
  C:1C84H         LINE#         430
  C:1C84H         LINE#         431
  C:1CA0H         LINE#         432
  C:1CACH         LINE#         433
  C:1CAFH         LINE#         435
  C:1CAFH         LINE#         436
  C:1CCCH         LINE#         437
  C:1CD8H         LINE#         439
  C:1CD8H         LINE#         440
  C:1CDBH         LINE#         441
  C:1CDBH         LINE#         442
  C:1CDBH         LINE#         443
  C:1CFBH         LINE#         444
  C:1D07H         LINE#         445
  C:1D07H         LINE#         446
  C:1D0AH         LINE#         447
  C:1D0AH         LINE#         448
  C:1D0DH         LINE#         449
  C:1D0DH         LINE#         450
  C:1D0DH         LINE#         451
  C:1D2DH         LINE#         452
  C:1D46H         LINE#         453
  C:1D46H         LINE#         454
  C:1D4CH         LINE#         455
  C:1D4FH         LINE#         456
  C:1D51H         LINE#         457
  C:1D5CH         LINE#         458
  C:1D67H         LINE#         459
  C:1D6AH         LINE#         460
  C:1D70H         LINE#         461
  C:1D73H         LINE#         462
  C:1D75H         LINE#         463
  C:1D80H         LINE#         464
  C:1D8BH         LINE#         465
  C:1D8EH         LINE#         466
  C:1D8EH         LINE#         467
  C:1D8EH         LINE#         468
  C:1D8EH         LINE#         469
  C:1D8EH         LINE#         470
  C:1D8EH         LINE#         471
BL51 BANKED LINKER/LOCATER V6.22                                                      09/18/2013  13:48:52  PAGE 69


  C:1D91H         LINE#         472
  C:1D91H         LINE#         473
  C:1D91H         LINE#         474
  C:1DC3H         LINE#         475
  C:1DCFH         LINE#         476
  C:1DE5H         LINE#         477
  C:1DE8H         LINE#         478
  C:1DE8H         LINE#         479
  C:1DE8H         LINE#         480
  C:1DE8H         LINE#         481
  C:1DEBH         LINE#         482
  C:1DEBH         LINE#         483
  C:1DEBH         LINE#         484
  C:1E1DH         LINE#         485
  C:1E29H         LINE#         486
  C:1E3FH         LINE#         487
  C:1E42H         LINE#         488
  C:1E42H         LINE#         489
  C:1E42H         LINE#         490
  C:1E42H         LINE#         491
  C:1E45H         LINE#         492
  C:1E45H         LINE#         493
  C:1E45H         LINE#         494
  C:1E77H         LINE#         495
  C:1E83H         LINE#         496
  C:1E99H         LINE#         497
  C:1E9CH         LINE#         498
  C:1E9CH         LINE#         499
  C:1E9CH         LINE#         500
  C:1E9CH         LINE#         501
  C:1E9FH         LINE#         502
  C:1E9FH         LINE#         503
  C:1E9FH         LINE#         504
  C:1ED1H         LINE#         505
  C:1EDDH         LINE#         506
  C:1EF3H         LINE#         507
  C:1EF6H         LINE#         508
  C:1EF6H         LINE#         509
  C:1EF6H         LINE#         510
  C:1EF6H         LINE#         511
  C:1EF8H         LINE#         512
  C:1EF8H         LINE#         513
  C:1EF8H         LINE#         514
  C:1F2AH         LINE#         515
  C:1F36H         LINE#         516
  C:1F4CH         LINE#         517
  C:1F4FH         LINE#         518
  C:1F4FH         LINE#         519
  C:1F4FH         LINE#         520
  C:1F5DH         LINE#         521
  C:1F5FH         LINE#         522
  C:1F5FH         LINE#         523
  C:1F5FH         LINE#         524
  C:1F91H         LINE#         525
  C:1F9DH         LINE#         526
  C:1FB6H         LINE#         527
  C:1FB8H         LINE#         528
BL51 BANKED LINKER/LOCATER V6.22                                                      09/18/2013  13:48:52  PAGE 70


  C:1FB8H         LINE#         529
  C:1FB8H         LINE#         530
  C:1FD7H         LINE#         531
  C:1FDBH         LINE#         532
  C:1FDDH         LINE#         533
  C:1FDDH         LINE#         534
  C:1FDDH         LINE#         535
  C:1FFCH         LINE#         536
  C:1FFFH         LINE#         537
  C:2001H         LINE#         539
  C:2001H         LINE#         540
  C:2001H         LINE#         542
  C:2001H         LINE#         544
  C:2001H         LINE#         545
  C:2001H         LINE#         549
  C:2001H         LINE#         550
  C:2001H         LINE#         551
  C:2001H         LINE#         553
  C:2001H         LINE#         555
  C:2001H         LINE#         556
  C:2001H         LINE#         560
  C:2001H         LINE#         562
  C:2001H         LINE#         563
  C:2001H         LINE#         565
  C:2001H         LINE#         567
  C:2001H         LINE#         568
  C:2001H         LINE#         570
  C:2001H         LINE#         571
  C:2001H         LINE#         572
  C:2001H         LINE#         574
  C:2001H         LINE#         577
  C:2001H         LINE#         578
  C:2001H         LINE#         580
  C:2001H         LINE#         582
  C:2001H         LINE#         583
  C:2001H         LINE#         585
  C:2001H         LINE#         586
  C:2001H         LINE#         587
  C:2001H         LINE#         589
  C:2001H         LINE#         591
  C:2001H         LINE#         592
  C:2001H         LINE#         594
  C:2001H         LINE#         596
  C:2001H         LINE#         597
  C:2001H         LINE#         599
  C:2001H         LINE#         600
  C:2001H         LINE#         601
  C:2001H         LINE#         603
  C:2001H         LINE#         606
  C:2001H         LINE#         607
  C:2001H         LINE#         609
  C:2001H         LINE#         611
  C:2001H         LINE#         612
  C:2001H         LINE#         614
  C:2001H         LINE#         615
  C:2001H         LINE#         616
  C:2001H         LINE#         618
BL51 BANKED LINKER/LOCATER V6.22                                                      09/18/2013  13:48:52  PAGE 71


  C:2001H         LINE#         621
  C:2001H         LINE#         622
  C:2001H         LINE#         624
  C:200CH         LINE#         625
  C:200FH         LINE#         626
  C:200FH         LINE#         627
  C:2011H         LINE#         628
  -------         ENDPROC       _MODRTU_WRVAL
  -------         PROC          _MODRTU_RD16U
  D:0001H         SYMBOL        buf
  D:0004H         SYMBOL        dat
  C:6E3FH         LINE#         636
  C:6E3FH         LINE#         637
  C:6E3FH         LINE#         638
  C:6E45H         LINE#         639
  -------         ENDPROC       _MODRTU_RD16U
  -------         PROC          _MODRTU_RDVAL
  D:0032H         SYMBOL        addr
  D:0034H         SYMBOL        buf
  D:0037H         SYMBOL        excode
  -------         DO            
  X:0C48H         SYMBOL        pc_data
  X:0C4AH         SYMBOL        vol16s
  -------         ENDDO         
  C:0BE7H         LINE#         648
  C:0BF1H         LINE#         649
  C:0BF1H         LINE#         653
  C:11C1H         LINE#         654
  C:11C1H         LINE#         656
  C:11C6H         LINE#         657
  C:11CBH         LINE#         659
  C:11D0H         LINE#         661
  C:11D5H         LINE#         662
  C:11DAH         LINE#         664
  C:11DFH         LINE#         665
  C:11E4H         LINE#         667
  C:11F6H         LINE#         668
  C:1201H         LINE#         669
  C:1214H         LINE#         671
  C:1214H         LINE#         672
  C:1214H         LINE#         673
  C:1217H         LINE#         674
  C:121AH         LINE#         675
  C:121DH         LINE#         676
  C:1220H         LINE#         677
  C:1223H         LINE#         678
  C:1226H         LINE#         679
  C:1229H         LINE#         680
  C:122CH         LINE#         681
  C:122FH         LINE#         682
  C:1232H         LINE#         683
  C:1235H         LINE#         684
  C:1238H         LINE#         685
  C:123BH         LINE#         686
  C:123EH         LINE#         687
  C:123EH         LINE#         688
  C:123EH         LINE#         689
BL51 BANKED LINKER/LOCATER V6.22                                                      09/18/2013  13:48:52  PAGE 72


  C:123EH         LINE#         690
  C:123EH         LINE#         691
  C:123EH         LINE#         692
  C:123EH         LINE#         693
  C:123EH         LINE#         694
  C:1244H         LINE#         695
  C:1247H         LINE#         696
  C:124AH         LINE#         697
  C:124DH         LINE#         698
  C:1250H         LINE#         699
  C:1253H         LINE#         700
  C:1256H         LINE#         701
  C:1259H         LINE#         702
  C:125CH         LINE#         703
  C:125FH         LINE#         704
  C:1262H         LINE#         705
  C:1265H         LINE#         706
  C:1268H         LINE#         707
  C:126BH         LINE#         708
  C:126EH         LINE#         709
  C:1271H         LINE#         710
  C:1274H         LINE#         711
  C:1274H         LINE#         712
  C:1274H         LINE#         713
  C:1277H         LINE#         714
  C:127DH         LINE#         715
  C:127DH         LINE#         719
  C:1289H         LINE#         720
  C:128FH         LINE#         721
  C:128FH         LINE#         722
  C:128FH         LINE#         723
  C:128FH         LINE#         724
  C:128FH         LINE#         725
  C:128FH         LINE#         726
  C:128FH         LINE#         727
  C:128FH         LINE#         728
  C:128FH         LINE#         729
  C:128FH         LINE#         730
  C:128FH         LINE#         731
  C:128FH         LINE#         732
  C:128FH         LINE#         733
  C:128FH         LINE#         734
  C:128FH         LINE#         735
  C:128FH         LINE#         736
  C:128FH         LINE#         737
  C:128FH         LINE#         738
  C:128FH         LINE#         739
  C:128FH         LINE#         740
  C:128FH         LINE#         741
  C:128FH         LINE#         742
  C:128FH         LINE#         743
  C:129AH         LINE#         744
  C:129AH         LINE#         745
  C:129AH         LINE#         746
  C:129AH         LINE#         747
  C:129AH         LINE#         748
  C:129AH         LINE#         749
BL51 BANKED LINKER/LOCATER V6.22                                                      09/18/2013  13:48:52  PAGE 73


  C:129AH         LINE#         750
  C:129AH         LINE#         751
  C:129AH         LINE#         752
  C:129AH         LINE#         753
  C:129AH         LINE#         754
  C:129AH         LINE#         755
  C:129AH         LINE#         756
  C:129AH         LINE#         757
  C:129AH         LINE#         758
  C:129AH         LINE#         759
  C:129AH         LINE#         760
  C:129AH         LINE#         761
  C:129AH         LINE#         762
  C:129AH         LINE#         763
  C:129AH         LINE#         764
  C:12A5H         LINE#         765
  C:12A5H         LINE#         766
  C:12A5H         LINE#         767
  C:12A5H         LINE#         768
  C:12A5H         LINE#         769
  C:12A5H         LINE#         770
  C:12A5H         LINE#         771
  C:12A5H         LINE#         772
  C:12A5H         LINE#         773
  C:12A5H         LINE#         774
  C:12A5H         LINE#         775
  C:12A5H         LINE#         776
  C:12A5H         LINE#         777
  C:12A5H         LINE#         778
  C:12A5H         LINE#         779
  C:12A5H         LINE#         780
  C:12A5H         LINE#         781
  C:12A5H         LINE#         782
  C:12A5H         LINE#         783
  C:12A5H         LINE#         784
  C:12A5H         LINE#         785
  C:12B0H         LINE#         786
  C:12B0H         LINE#         787
  C:12B0H         LINE#         788
  C:12B0H         LINE#         789
  C:12B0H         LINE#         790
  C:12B0H         LINE#         791
  C:12B0H         LINE#         792
  C:12B0H         LINE#         793
  C:12B0H         LINE#         794
  C:12B0H         LINE#         795
  C:12B0H         LINE#         796
  C:12B0H         LINE#         797
  C:12B0H         LINE#         799
  C:12BDH         LINE#         800
  C:12C3H         LINE#         801
  C:12CCH         LINE#         802
  C:12DFH         LINE#         803
  C:12DFH         LINE#         804
  C:12DFH         LINE#         805
  C:12DFH         LINE#         806
  C:12DFH         LINE#         807
BL51 BANKED LINKER/LOCATER V6.22                                                      09/18/2013  13:48:52  PAGE 74


  C:12DFH         LINE#         808
  C:12DFH         LINE#         809
  C:12DFH         LINE#         810
  C:12DFH         LINE#         811
  C:12DFH         LINE#         812
  C:12DFH         LINE#         813
  C:12DFH         LINE#         814
  C:12DFH         LINE#         815
  C:12DFH         LINE#         816
  C:12DFH         LINE#         817
  C:12DFH         LINE#         818
  C:12DFH         LINE#         819
  C:12DFH         LINE#         820
  C:12DFH         LINE#         821
  C:12DFH         LINE#         822
  C:12DFH         LINE#         823
  C:12DFH         LINE#         824
  C:12DFH         LINE#         825
  C:12DFH         LINE#         826
  C:12DFH         LINE#         827
  C:12EAH         LINE#         828
  C:12EAH         LINE#         829
  C:12EAH         LINE#         830
  C:12EAH         LINE#         831
  C:12EAH         LINE#         832
  C:12EAH         LINE#         833
  C:12EAH         LINE#         834
  C:12EAH         LINE#         835
  C:12EAH         LINE#         836
  C:12EAH         LINE#         837
  C:12EAH         LINE#         838
  C:12EAH         LINE#         839
  C:12EAH         LINE#         840
  C:12EAH         LINE#         841
  C:12EAH         LINE#         842
  C:12EAH         LINE#         843
  C:12EAH         LINE#         844
  C:12EAH         LINE#         845
  C:12EAH         LINE#         846
  C:12EAH         LINE#         847
  C:12EAH         LINE#         848
  C:12EAH         LINE#         849
  C:12EAH         LINE#         850
  C:12EAH         LINE#         851
  C:12EAH         LINE#         852
  C:1301H         LINE#         853
  C:1301H         LINE#         854
  C:1301H         LINE#         855
  C:1301H         LINE#         856
  C:1301H         LINE#         857
  C:1301H         LINE#         858
  C:1301H         LINE#         859
  C:1301H         LINE#         860
  C:1301H         LINE#         861
  C:1301H         LINE#         862
  C:1301H         LINE#         863
  C:1301H         LINE#         864
BL51 BANKED LINKER/LOCATER V6.22                                                      09/18/2013  13:48:52  PAGE 75


  C:1301H         LINE#         865
  C:1301H         LINE#         866
  C:1301H         LINE#         867
  C:1301H         LINE#         868
  C:1301H         LINE#         869
  C:1301H         LINE#         870
  C:1301H         LINE#         871
  C:1301H         LINE#         872
  C:1301H         LINE#         873
  C:1301H         LINE#         874
  C:1301H         LINE#         875
  C:1301H         LINE#         876
  C:1301H         LINE#         877
  C:1322H         LINE#         879
  C:132FH         LINE#         880
  C:1335H         LINE#         881
  C:133EH         LINE#         882
  C:1351H         LINE#         883
  C:1351H         LINE#         884
  C:1351H         LINE#         885
  C:1351H         LINE#         886
  C:1351H         LINE#         887
  C:1351H         LINE#         888
  C:1351H         LINE#         889
  C:1351H         LINE#         890
  C:1351H         LINE#         891
  C:1351H         LINE#         892
  C:1351H         LINE#         893
  C:1351H         LINE#         894
  C:1351H         LINE#         895
  C:1351H         LINE#         896
  C:1351H         LINE#         897
  C:1351H         LINE#         898
  C:1351H         LINE#         899
  C:1351H         LINE#         900
  C:1351H         LINE#         901
  C:1351H         LINE#         902
  C:1351H         LINE#         903
  C:1351H         LINE#         904
  C:1351H         LINE#         905
  C:1351H         LINE#         906
  C:1351H         LINE#         907
  C:135CH         LINE#         908
  C:135CH         LINE#         909
  C:135CH         LINE#         910
  C:135CH         LINE#         911
  C:135CH         LINE#         912
  C:135CH         LINE#         913
  C:135CH         LINE#         914
  C:135CH         LINE#         915
  C:135CH         LINE#         916
  C:135CH         LINE#         917
  C:135CH         LINE#         918
  C:135CH         LINE#         919
  C:135CH         LINE#         920
  C:135CH         LINE#         921
  C:135CH         LINE#         922
BL51 BANKED LINKER/LOCATER V6.22                                                      09/18/2013  13:48:52  PAGE 76


  C:135CH         LINE#         923
  C:135CH         LINE#         924
  C:135CH         LINE#         925
  C:135CH         LINE#         926
  C:135CH         LINE#         927
  C:135CH         LINE#         928
  C:135CH         LINE#         929
  C:135CH         LINE#         930
  C:135CH         LINE#         931
  C:135CH         LINE#         932
  C:1372H         LINE#         933
  C:1372H         LINE#         934
  C:1372H         LINE#         935
  C:1372H         LINE#         936
  C:1372H         LINE#         937
  C:1372H         LINE#         938
  C:1372H         LINE#         939
  C:1372H         LINE#         940
  C:1372H         LINE#         941
  C:1372H         LINE#         942
  C:1372H         LINE#         943
  C:1372H         LINE#         944
  C:1372H         LINE#         945
  C:1372H         LINE#         946
  C:1372H         LINE#         947
  C:1372H         LINE#         948
  C:1372H         LINE#         949
  C:1372H         LINE#         950
  C:1372H         LINE#         951
  C:1372H         LINE#         952
  C:1372H         LINE#         953
  C:1372H         LINE#         954
  C:1372H         LINE#         955
  C:1372H         LINE#         956
  C:1372H         LINE#         957
  C:1392H         LINE#         959
  C:139FH         LINE#         960
  C:13A4H         LINE#         961
  C:13A9H         LINE#         962
  C:13AEH         LINE#         963
  C:13B3H         LINE#         964
  C:13B8H         LINE#         965
  C:13BDH         LINE#         966
  C:13C2H         LINE#         967
  C:13D6H         LINE#         968
  C:13E0H         LINE#         969
  C:13EAH         LINE#         970
  C:13F4H         LINE#         971
  C:13FEH         LINE#         972
  C:140BH         LINE#         973
  C:1422H         LINE#         974
  C:142FH         LINE#         975
  C:1446H         LINE#         976
  C:1453H         LINE#         977
  C:146AH         LINE#         978
  C:1477H         LINE#         979
  C:148EH         LINE#         980
BL51 BANKED LINKER/LOCATER V6.22                                                      09/18/2013  13:48:52  PAGE 77


  C:149BH         LINE#         981
  C:14B2H         LINE#         982
  C:14BFH         LINE#         983
  C:14D6H         LINE#         984
  C:14E3H         LINE#         985
  C:14FAH         LINE#         986
  C:1507H         LINE#         987
  C:151EH         LINE#         988
  C:152BH         LINE#         989
  C:1542H         LINE#         990
  C:154FH         LINE#         991
  C:1566H         LINE#         992
  C:1573H         LINE#         993
  C:158AH         LINE#         994
  C:1597H         LINE#         995
  C:15AEH         LINE#         996
  C:15BEH         LINE#         997
  C:15D8H         LINE#         998
  C:15E5H         LINE#         999
  C:15FCH         LINE#         1000
  C:1609H         LINE#         1001
  C:1620H         LINE#         1002
  C:162DH         LINE#         1003
  C:1644H         LINE#         1004
  C:1651H         LINE#         1005
  C:1668H         LINE#         1006
  C:1675H         LINE#         1007
  C:168CH         LINE#         1008
  C:1699H         LINE#         1009
  C:16AFH         LINE#         1011
  C:16AFH         LINE#         1012
  C:16AFH         LINE#         1013
  C:16AFH         LINE#         1014
  C:16AFH         LINE#         1015
  C:16AFH         LINE#         1016
  C:16AFH         LINE#         1018
  C:16AFH         LINE#         1019
  C:16AFH         LINE#         1020
  C:16AFH         LINE#         1021
  C:16AFH         LINE#         1022
  C:16AFH         LINE#         1023
  C:16AFH         LINE#         1025
  C:16AFH         LINE#         1026
  C:16AFH         LINE#         1027
  C:16AFH         LINE#         1028
  C:16AFH         LINE#         1030
  C:16B3H         LINE#         1031
  C:16BFH         LINE#         1032
  C:16CCH         LINE#         1033
  C:16D8H         LINE#         1034
  C:16DBH         LINE#         1035
  C:16FCH         LINE#         1036
  C:1709H         LINE#         1037
  C:1714H         LINE#         1038
  C:171FH         LINE#         1039
  C:172CH         LINE#         1040
  C:1734H         LINE#         1041
BL51 BANKED LINKER/LOCATER V6.22                                                      09/18/2013  13:48:52  PAGE 78


  C:173FH         LINE#         1042
  C:173FH         LINE#         1043
  C:173FH         LINE#         1044
  C:174AH         LINE#         1045
  C:174DH         LINE#         1047
  C:174DH         LINE#         1048
  C:175EH         LINE#         1049
  C:1760H         LINE#         1050
  -------         ENDPROC       _MODRTU_RDVAL
  -------         PROC          _MODRTU_RDREG
  D:0025H         SYMBOL        buf
  -------         DO            
  D:0028H         SYMBOL        addr
  D:002AH         SYMBOL        i
  D:002CH         SYMBOL        j
  D:002EH         SYMBOL        crc
  D:0030H         SYMBOL        err_code
  D:0031H         SYMBOL        excode
  -------         ENDDO         
  C:4404H         LINE#         1063
  C:440AH         LINE#         1064
  C:440AH         LINE#         1066
  C:440FH         LINE#         1067
  C:4411H         LINE#         1069
  C:4419H         LINE#         1070
  C:442BH         LINE#         1071
  C:443DH         LINE#         1072
  C:444DH         LINE#         1073
  C:444DH         LINE#         1074
  C:447AH         LINE#         1075
  C:447AH         LINE#         1076
  C:447DH         LINE#         1077
  C:447FH         LINE#         1078
  C:447FH         LINE#         1079
  C:4487H         LINE#         1080
  C:4491H         LINE#         1081
  C:4496H         LINE#         1082
  C:4496H         LINE#         1083
  C:44A1H         LINE#         1085
  C:44A1H         LINE#         1086
  C:44B1H         LINE#         1087
  C:44C3H         LINE#         1088
  C:44CCH         LINE#         1089
  C:44DFH         LINE#         1090
  C:44EDH         LINE#         1091
  C:44F0H         LINE#         1092
  -------         ENDPROC       _MODRTU_RDREG
  -------         PROC          _MODRTU_WRREG
  D:0025H         SYMBOL        buf
  D:0028H         SYMBOL        n
  -------         DO            
  D:0029H         SYMBOL        addr
  D:002BH         SYMBOL        i
  D:002DH         SYMBOL        j
  D:0004H         SYMBOL        crc
  D:002FH         SYMBOL        err_code
  D:0030H         SYMBOL        excode
BL51 BANKED LINKER/LOCATER V6.22                                                      09/18/2013  13:48:52  PAGE 79


  -------         ENDDO         
  C:4201H         LINE#         1100
  C:4209H         LINE#         1101
  C:4209H         LINE#         1104
  C:420CH         LINE#         1106
  C:421AH         LINE#         1107
  C:4255H         LINE#         1108
  C:4263H         LINE#         1109
  C:4273H         LINE#         1110
  C:4273H         LINE#         1111
  C:42A0H         LINE#         1112
  C:42A0H         LINE#         1113
  C:42A3H         LINE#         1114
  C:42A5H         LINE#         1115
  C:42A5H         LINE#         1116
  C:42ADH         LINE#         1117
  C:42B7H         LINE#         1118
  C:42C2H         LINE#         1119
  C:42C7H         LINE#         1120
  C:42C7H         LINE#         1121
  C:42CCH         LINE#         1123
  C:42CCH         LINE#         1124
  C:42DBH         LINE#         1125
  C:42E9H         LINE#         1126
  C:42F4H         LINE#         1127
  C:42F7H         LINE#         1128
  C:42FEH         LINE#         1129
  C:42FEH         LINE#         1130
  C:4300H         LINE#         1131
  C:4303H         LINE#         1132
  C:4303H         LINE#         1133
  -------         ENDPROC       _MODRTU_WRREG
  -------         PROC          _MODRTU_RLYERROR
  D:0032H         SYMBOL        buf
  D:0005H         SYMBOL        excode
  -------         DO            
  D:0004H         SYMBOL        crc
  -------         ENDDO         
  C:62ADH         LINE#         1152
  C:62B3H         LINE#         1153
  C:62B3H         LINE#         1155
  C:62C2H         LINE#         1156
  C:62CFH         LINE#         1157
  C:62D6H         LINE#         1158
  C:62E3H         LINE#         1159
  C:62EAH         LINE#         1160
  C:62EFH         LINE#         1161
  -------         ENDPROC       _MODRTU_RLYERROR
  -------         PROC          _MODRTU_RXPROC
  D:0021H         SYMBOL        buf
  D:0024H         SYMBOL        n
  C:64BCH         LINE#         1170
  C:64C4H         LINE#         1171
  C:64C4H         LINE#         1172
  C:64CAH         LINE#         1174
  C:64DEH         LINE#         1175
  C:64DEH         LINE#         1176
BL51 BANKED LINKER/LOCATER V6.22                                                      09/18/2013  13:48:52  PAGE 80


  C:64E1H         LINE#         1177
  C:64E1H         LINE#         1178
  C:64ECH         LINE#         1179
  C:64ECH         LINE#         1180
  C:64F7H         LINE#         1181
  C:64F7H         LINE#         1182
  C:64F7H         LINE#         1183
  -------         ENDPROC       _MODRTU_RXPROC
  -------         ENDMOD        MODBUSRTU

  -------         MODULE        SEND
  C:0000H         SYMBOL        _ICE_DUMMY_
  C:30DEH         PUBLIC        SendSpeed
  D:00A0H         PUBLIC        P2
  X:0BA9H         PUBLIC        Braud_Num
  D:00A7H         PUBLIC        SFRPAGE
  C:3ED9H         PUBLIC        Send_TimeProc
  D:000EH         SYMBOL        px_ax
  D:0010H         SYMBOL        py_ax
  C:3715H         SYMBOL        _Send_CDeal
  C:3B3FH         SYMBOL        _Send_RDeal
  C:2012H         SYMBOL        _Send_SDeal
  C:0003H         SYMBOL        _Send_TDeal
  C:5C76H         SYMBOL        _Send_UDeal
  C:4304H         SYMBOL        _Send_WDeal
  D:00ACH         PUBLIC        SBRL0
  C:30F2H         PUBLIC        Braud
  -------         PROC          SEND_TIMEPROC
  -------         DO            
  X:0AE1H         SYMBOL        rx_buf
  D:0008H         SYMBOL        ptr
  D:000BH         SYMBOL        i
  D:000CH         SYMBOL        err
  D:000DH         SYMBOL        cmd
  -------         ENDDO         
  C:3ED9H         LINE#         39
  C:3ED9H         LINE#         40
  C:3ED9H         LINE#         47
  C:3EDFH         LINE#         49
  C:3EE1H         LINE#         50
  C:3EEAH         LINE#         51
  C:3EEDH         LINE#         52
  C:3EEDH         LINE#         53
  C:3F03H         LINE#         54
  C:3F09H         LINE#         55
  C:3F09H         LINE#         56
  C:3F12H         LINE#         57
  C:3F19H         LINE#         58
  C:3F19H         LINE#         60
  C:3F22H         LINE#         61
  C:3F22H         LINE#         62
  C:3F22H         LINE#         63
  C:3F24H         LINE#         66
  C:3F24H         LINE#         68
  C:3F34H         LINE#         69
  C:3F34H         LINE#         71
  C:3F3FH         LINE#         73
BL51 BANKED LINKER/LOCATER V6.22                                                      09/18/2013  13:48:52  PAGE 81


  C:3F3FH         LINE#         75
  C:3F5EH         LINE#         76
  C:3F5EH         LINE#         78
  C:3F67H         LINE#         79
  C:3F67H         LINE#         80
  C:3F71H         LINE#         81
  C:3F72H         LINE#         84
  C:3F72H         LINE#         85
  C:3F78H         LINE#         86
  C:3F90H         LINE#         87
  C:3F98H         LINE#         88
  C:3FA3H         LINE#         89
  C:3FA3H         LINE#         90
  C:3FABH         LINE#         91
  C:3FB6H         LINE#         92
  C:3FB6H         LINE#         93
  C:3FC1H         LINE#         94
  C:3FC1H         LINE#         95
  C:3FCCH         LINE#         96
  C:3FCCH         LINE#         97
  C:3FD3H         LINE#         98
  C:3FDEH         LINE#         99
  C:3FDEH         LINE#         100
  C:3FE5H         LINE#         101
  C:3FF0H         LINE#         102
  C:3FF0H         LINE#         103
  C:3FF0H         LINE#         104
  -------         ENDPROC       SEND_TIMEPROC
  -------         PROC          _SEND_RDEAL
  D:0021H         SYMBOL        buf
  D:0024H         SYMBOL        n
  -------         DO            
  D:0025H         SYMBOL        data_8u
  -------         ENDDO         
  C:3B3FH         LINE#         112
  C:3B47H         LINE#         113
  C:3B47H         LINE#         115
  C:3B5CH         LINE#         116
  C:3B65H         LINE#         117
  C:3B68H         LINE#         118
  C:3B68H         LINE#         119
  C:3B83H         LINE#         120
  C:3B8CH         LINE#         121
  C:3B8FH         LINE#         122
  C:3B8FH         LINE#         123
  C:3BAAH         LINE#         124
  C:3BB3H         LINE#         125
  C:3BB6H         LINE#         126
  C:3BB6H         LINE#         127
  C:3BD1H         LINE#         128
  C:3BDAH         LINE#         129
  C:3BDDH         LINE#         130
  C:3BDDH         LINE#         131
  C:3BF8H         LINE#         132
  C:3C01H         LINE#         133
  C:3C04H         LINE#         134
  C:3C04H         LINE#         140
BL51 BANKED LINKER/LOCATER V6.22                                                      09/18/2013  13:48:52  PAGE 82


  C:3C1FH         LINE#         141
  C:3C25H         LINE#         142
  C:3C35H         LINE#         143
  C:3C3EH         LINE#         144
  C:3C43H         LINE#         145
  C:3C43H         LINE#         146
  C:3C5EH         LINE#         147
  C:3C63H         LINE#         148
  C:3C73H         LINE#         149
  C:3C7CH         LINE#         150
  C:3C81H         LINE#         151
  C:3C81H         LINE#         176
  C:3C84H         LINE#         177
  -------         ENDPROC       _SEND_RDEAL
  -------         PROC          _SEND_CDEAL
  D:0021H         SYMBOL        buf
  D:0024H         SYMBOL        n
  C:3715H         LINE#         185
  C:371DH         LINE#         186
  C:371DH         LINE#         187
  C:3732H         LINE#         188
  C:373BH         LINE#         189
  C:3746H         LINE#         190
  C:3751H         LINE#         191
  C:3759H         LINE#         192
  C:3759H         LINE#         193
  C:375CH         LINE#         194
  C:3777H         LINE#         195
  C:3780H         LINE#         196
  C:378BH         LINE#         197
  C:378EH         LINE#         198
  C:3799H         LINE#         199
  C:37A4H         LINE#         200
  C:37A4H         LINE#         241
  C:37BFH         LINE#         242
  C:37C8H         LINE#         243
  C:37CEH         LINE#         244
  C:37D6H         LINE#         245
  C:37D6H         LINE#         246
  C:37D9H         LINE#         247
  C:37D9H         LINE#         248
  C:37DCH         LINE#         249
  C:37F7H         LINE#         250
  C:37FDH         LINE#         251
  C:3803H         LINE#         252
  C:380BH         LINE#         253
  C:380BH         LINE#         254
  C:380DH         LINE#         255
  C:380DH         LINE#         256
  C:380FH         LINE#         257
  C:382AH         LINE#         258
  C:3830H         LINE#         259
  C:3836H         LINE#         260
  C:383EH         LINE#         261
  C:383EH         LINE#         262
  C:3840H         LINE#         263
  C:3840H         LINE#         264
BL51 BANKED LINKER/LOCATER V6.22                                                      09/18/2013  13:48:52  PAGE 83


  C:3842H         LINE#         265
  C:385DH         LINE#         266
  C:3862H         LINE#         267
  C:3868H         LINE#         268
  C:3873H         LINE#         269
  C:3876H         LINE#         270
  C:3876H         LINE#         271
  C:3879H         LINE#         272
  C:3879H         LINE#         273
  -------         ENDPROC       _SEND_CDEAL
  -------         PROC          _SEND_SDEAL
  D:0021H         SYMBOL        buf
  D:0024H         SYMBOL        n
  -------         DO            
  D:0025H         SYMBOL        data_ram
  D:0026H         SYMBOL        data_8u
  D:0027H         SYMBOL        data_32s
  D:0007H         SYMBOL        i
  D:002BH         SYMBOL        SfrPage_
  -------         ENDDO         
  C:2012H         LINE#         281
  C:201AH         LINE#         282
  C:201AH         LINE#         285
  C:201DH         LINE#         287
  C:2032H         LINE#         288
  C:203BH         LINE#         289
  C:2046H         LINE#         290
  C:2049H         LINE#         291
  C:204FH         LINE#         292
  C:2050H         LINE#         293
  C:206BH         LINE#         294
  C:2074H         LINE#         295
  C:207FH         LINE#         296
  C:2082H         LINE#         297
  C:2087H         LINE#         298
  C:209EH         LINE#         299
  C:209EH         LINE#         300
  C:20A1H         LINE#         301
  C:20A1H         LINE#         302
  C:20A2H         LINE#         303
  C:20C9H         LINE#         304
  C:20D2H         LINE#         305
  C:20EBH         LINE#         306
  C:20EBH         LINE#         307
  C:20EBH         LINE#         308
  C:20FFH         LINE#         310
  C:20FFH         LINE#         311
  C:2104H         LINE#         312
  C:2109H         LINE#         313
  C:210CH         LINE#         314
  C:210EH         LINE#         316
  C:210EH         LINE#         317
  C:2111H         LINE#         318
  C:2111H         LINE#         319
  C:212EH         LINE#         320
  C:212FH         LINE#         321
  C:2144H         LINE#         322
BL51 BANKED LINKER/LOCATER V6.22                                                      09/18/2013  13:48:52  PAGE 84


  C:2147H         LINE#         323
  C:2147H         LINE#         324
  C:2147H         LINE#         325
  C:214AH         LINE#         326
  C:2153H         LINE#         328
  C:216EH         LINE#         329
  C:2177H         LINE#         330
  C:2187H         LINE#         331
  C:2198H         LINE#         332
  C:219DH         LINE#         333
  C:21A5H         LINE#         334
  C:21A5H         LINE#         335
  C:21A8H         LINE#         336
  C:21C3H         LINE#         337
  C:21CCH         LINE#         338
  C:21D2H         LINE#         339
  C:21D8H         LINE#         340
  C:21E0H         LINE#         341
  C:21E0H         LINE#         342
  C:21E3H         LINE#         343
  C:21FEH         LINE#         344
  C:2207H         LINE#         345
  C:220DH         LINE#         346
  C:2213H         LINE#         347
  C:221BH         LINE#         348
  C:221BH         LINE#         349
  C:221EH         LINE#         350
  C:2239H         LINE#         351
  C:2242H         LINE#         352
  C:2260H         LINE#         353
  C:226BH         LINE#         354
  C:226EH         LINE#         355
  C:2279H         LINE#         356
  C:2279H         LINE#         357
  C:2294H         LINE#         358
  C:229DH         LINE#         359
  C:22BBH         LINE#         360
  C:22C6H         LINE#         361
  C:22C9H         LINE#         362
  C:22D4H         LINE#         363
  C:22D4H         LINE#         373
  C:22EFH         LINE#         374
  C:22F8H         LINE#         375
  C:2308H         LINE#         376
  C:231CH         LINE#         377
  C:2321H         LINE#         378
  C:2329H         LINE#         379
  C:2329H         LINE#         380
  C:232CH         LINE#         381
  C:2347H         LINE#         382
  C:2350H         LINE#         383
  C:2360H         LINE#         384
  C:2374H         LINE#         385
  C:2379H         LINE#         386
  C:2381H         LINE#         387
  C:2381H         LINE#         388
  C:2384H         LINE#         445
BL51 BANKED LINKER/LOCATER V6.22                                                      09/18/2013  13:48:52  PAGE 85


  C:239FH         LINE#         446
  C:23A8H         LINE#         447
  C:23E6H         LINE#         448
  C:23E6H         LINE#         449
  C:23E9H         LINE#         450
  C:2404H         LINE#         451
  C:240DH         LINE#         453
  C:2449H         LINE#         454
  C:2449H         LINE#         455
  C:244CH         LINE#         456
  C:2467H         LINE#         457
  C:2470H         LINE#         458
  C:2487H         LINE#         459
  C:248FH         LINE#         460
  C:248FH         LINE#         461
  C:2492H         LINE#         462
  C:24ADH         LINE#         463
  C:24B6H         LINE#         464
  C:24D4H         LINE#         466
  C:24DFH         LINE#         467
  C:24E7H         LINE#         468
  C:24E7H         LINE#         469
  C:24EAH         LINE#         470
  C:2505H         LINE#         471
  C:250EH         LINE#         472
  C:252CH         LINE#         474
  C:2537H         LINE#         475
  C:253FH         LINE#         476
  C:253FH         LINE#         477
  C:2542H         LINE#         478
  C:255DH         LINE#         479
  C:2566H         LINE#         480
  C:2584H         LINE#         482
  C:258FH         LINE#         483
  C:2597H         LINE#         484
  C:2597H         LINE#         485
  C:259AH         LINE#         486
  C:25B5H         LINE#         487
  C:25BEH         LINE#         488
  C:25DCH         LINE#         489
  C:25E6H         LINE#         490
  C:25EEH         LINE#         491
  C:25EEH         LINE#         492
  C:25F1H         LINE#         493
  C:260CH         LINE#         494
  C:2615H         LINE#         495
  C:2620H         LINE#         496
  C:2623H         LINE#         497
  C:262AH         LINE#         498
  C:262DH         LINE#         499
  C:262DH         LINE#         500
  C:2648H         LINE#         501
  C:2648H         LINE#         502
  C:2651H         LINE#         503
  C:2661H         LINE#         504
  C:2669H         LINE#         505
  C:266FH         LINE#         506
BL51 BANKED LINKER/LOCATER V6.22                                                      09/18/2013  13:48:52  PAGE 86


  C:2674H         LINE#         507
  C:2677H         LINE#         508
  C:267EH         LINE#         509
  C:2681H         LINE#         510
  C:26B0H         LINE#         511
  C:26B3H         LINE#         512
  C:26B4H         LINE#         513
  C:26CFH         LINE#         514
  C:26CFH         LINE#         515
  C:26D5H         LINE#         516
  C:26E5H         LINE#         517
  C:26EDH         LINE#         518
  C:26F3H         LINE#         519
  C:26FEH         LINE#         520
  C:2701H         LINE#         521
  C:2701H         LINE#         522
  -------         ENDPROC       _SEND_SDEAL
  -------         PROC          _SEND_WDEAL
  D:0021H         SYMBOL        buf
  D:0024H         SYMBOL        n
  -------         DO            
  D:0025H         SYMBOL        data_x
  D:0027H         SYMBOL        data_y
  D:0029H         SYMBOL        data_t
  -------         ENDDO         
  C:4304H         LINE#         530
  C:430CH         LINE#         531
  C:430CH         LINE#         534
  C:4324H         LINE#         535
  C:432DH         LINE#         536
  C:434BH         LINE#         537
  C:4368H         LINE#         538
  C:4385H         LINE#         539
  C:43A7H         LINE#         540
  C:43AFH         LINE#         541
  C:43B1H         LINE#         543
  C:43B1H         LINE#         544
  C:43B1H         LINE#         545
  C:43B3H         LINE#         546
  C:43CEH         LINE#         547
  C:43D4H         LINE#         548
  C:43D7H         LINE#         550
  C:43D7H         LINE#         551
  C:43F5H         LINE#         552
  C:4400H         LINE#         553
  C:4403H         LINE#         554
  C:4403H         LINE#         555
  -------         ENDPROC       _SEND_WDEAL
  -------         PROC          _SEND_UDEAL
  D:0021H         SYMBOL        buf
  D:0024H         SYMBOL        n
  C:5C76H         LINE#         563
  C:5C7EH         LINE#         564
  C:5C7EH         LINE#         565
  C:5C93H         LINE#         566
  C:5C93H         LINE#         568
  C:5C99H         LINE#         569
BL51 BANKED LINKER/LOCATER V6.22                                                      09/18/2013  13:48:52  PAGE 87


  C:5C9CH         LINE#         570
  C:5CA4H         LINE#         571
  C:5CA4H         LINE#         573
  C:5CA6H         LINE#         574
  C:5CC1H         LINE#         575
  C:5CC1H         LINE#         576
  C:5CC6H         LINE#         577
  C:5CC9H         LINE#         578
  C:5CD4H         LINE#         579
  C:5CD7H         LINE#         580
  C:5CD7H         LINE#         582
  C:5CDAH         LINE#         583
  -------         ENDPROC       _SEND_UDEAL
  -------         PROC          _SEND_TDEAL
  D:0001H         SYMBOL        buf
  D:0021H         SYMBOL        n
  C:0003H         LINE#         594
  C:0005H         LINE#         595
  C:0005H         LINE#         596
  C:001AH         LINE#         597
  C:001FH         LINE#         598
  C:0022H         LINE#         599
  C:0022H         LINE#         600
  -------         ENDPROC       _SEND_TDEAL
  -------         ENDMOD        SEND

  -------         MODULE        SENSOR
  C:0000H         SYMBOL        _ICE_DUMMY_
  D:00A0H         PUBLIC        P2
  C:6D0AH         PUBLIC        _SnXFilter
  C:6D1CH         PUBLIC        _SnYFilter
  D:00E8H         PUBLIC        ADC0CN
  C:4AD9H         SYMBOL        _GetOffset
  C:7076H         PUBLIC        GetXAng
  C:707DH         PUBLIC        GetYAng
  C:55F4H         SYMBOL        _SnFilter
  C:6AD5H         PUBLIC        SnXDataInit
  C:6AF0H         PUBLIC        SnYDataInit
  C:70C0H         PUBLIC        GetFilterCnt
  C:5A71H         SYMBOL        _Sn_DataInit
  C:70C6H         PUBLIC        _SetFilterCnt
  C:6DC0H         PUBLIC        Get_McuTemp
  C:6FE2H         PUBLIC        GetXOftVal
  C:6FEBH         PUBLIC        GetYOftVal
  X:0BAAH         SYMBOL        filtercnt
  X:0BABH         PUBLIC        accel_x
  C:4ED4H         SYMBOL        _GetAngCalcVal
  X:0BCBH         PUBLIC        accel_y
  C:52CDH         PUBLIC        SnProc
  C:5996H         PUBLIC        SnInit
  C:6FD0H         PUBLIC        GetXFtVal
  C:6FD9H         PUBLIC        GetYFtVal
  C:6FBEH         PUBLIC        AngXCalc
  C:7004H         PUBLIC        _GetXOffset
  C:6FC7H         PUBLIC        AngYCalc
  C:700CH         PUBLIC        _GetYOffset
  C:4CE4H         SYMBOL        _Ang_Calc
BL51 BANKED LINKER/LOCATER V6.22                                                      09/18/2013  13:48:52  PAGE 88


  -------         PROC          _SN_DATAINIT
  D:0021H         SYMBOL        p_sn
  D:0024H         SYMBOL        p_tempcal
  D:0027H         SYMBOL        p_angcal
  C:5A71H         LINE#         31
  C:5A77H         LINE#         32
  C:5A77H         LINE#         33
  C:5A7DH         LINE#         34
  C:5A8CH         LINE#         35
  C:5A96H         LINE#         36
  C:5A9FH         LINE#         37
  C:5AA9H         LINE#         38
  C:5AC1H         LINE#         39
  C:5AD9H         LINE#         40
  -------         ENDPROC       _SN_DATAINIT
  -------         PROC          _SNFILTER
  D:0021H         SYMBOL        p_sn
  D:0024H         SYMBOL        val
  D:0026H         SYMBOL        ftcnt
  C:55F4H         LINE#         49
  C:55FEH         LINE#         50
  C:55FEH         LINE#         51
  C:5617H         LINE#         52
  C:5617H         LINE#         53
  C:5635H         LINE#         55
  C:5653H         LINE#         57
  C:5655H         LINE#         59
  C:5660H         LINE#         60
  -------         ENDPROC       _SNFILTER
  -------         PROC          L?0047
  -------         ENDPROC       L?0047
  -------         PROC          _GETOFFSET
  D:0021H         SYMBOL        p_sn
  D:0024H         SYMBOL        temp
  -------         DO            
  D:0026H         SYMBOL        i
  D:0004H         SYMBOL        offset
  -------         ENDDO         
  C:4AD9H         LINE#         70
  C:4AE3H         LINE#         71
  C:4AE3H         LINE#         75
  C:4AFEH         LINE#         76
  C:4AFEH         LINE#         77
  C:4B30H         LINE#         78
  C:4B30H         LINE#         79
  C:4B34H         LINE#         80
  C:4B86H         LINE#         82
  C:4B89H         LINE#         83
  -------         ENDPROC       _GETOFFSET
  -------         PROC          _GETANGCALCVAL
  D:0028H         SYMBOL        p_sn
  D:002BH         SYMBOL        val
  -------         DO            
  D:002DH         SYMBOL        i
  D:0004H         SYMBOL        tmp
  -------         ENDDO         
  C:4ED4H         LINE#         92
BL51 BANKED LINKER/LOCATER V6.22                                                      09/18/2013  13:48:52  PAGE 89


  C:4EDEH         LINE#         93
  C:4EDEH         LINE#         97
  C:4EF9H         LINE#         98
  C:4EF9H         LINE#         99
  C:4F1EH         LINE#         100
  C:4F1EH         LINE#         101
  C:4F22H         LINE#         102
  C:4F74H         LINE#         103
  C:4F74H         LINE#         104
  -------         ENDPROC       _GETANGCALCVAL
  -------         PROC          _ANG_CALC
  D:0021H         SYMBOL        p_sn
  -------         DO            
  D:0024H         SYMBOL        ang
  -------         ENDDO         
  C:4CE4H         LINE#         113
  C:4CEAH         LINE#         114
  C:4CEAH         LINE#         116
  C:4CFEH         LINE#         117
  C:4D12H         LINE#         118
  C:4D23H         LINE#         119
  C:4D39H         LINE#         120
  C:4D4AH         LINE#         122
  C:4D4AH         LINE#         123
  C:4D5DH         LINE#         124
  C:4D7BH         LINE#         125
  C:4D8AH         LINE#         126
  C:4D8AH         LINE#         127
  -------         ENDPROC       _ANG_CALC
  -------         PROC          SNXDATAINIT
  C:6AD5H         LINE#         133
  C:6AD5H         LINE#         134
  C:6AD5H         LINE#         135
  -------         ENDPROC       SNXDATAINIT
  -------         PROC          SNYDATAINIT
  C:6AF0H         LINE#         137
  C:6AF0H         LINE#         138
  C:6AF0H         LINE#         139
  -------         ENDPROC       SNYDATAINIT
  -------         PROC          _SNXFILTER
  D:0006H         SYMBOL        val
  D:0082H         SYMBOL        ftcnt
  C:6D0AH         LINE#         141
  C:6D0CH         LINE#         142
  C:6D0CH         LINE#         143
  -------         ENDPROC       _SNXFILTER
  -------         PROC          _SNYFILTER
  D:0006H         SYMBOL        val
  D:0082H         SYMBOL        ftcnt
  C:6D1CH         LINE#         145
  C:6D1EH         LINE#         146
  C:6D1EH         LINE#         147
  -------         ENDPROC       _SNYFILTER
  -------         PROC          _GETXOFFSET
  D:0004H         SYMBOL        temp
  C:7004H         LINE#         149
  C:7004H         LINE#         150
BL51 BANKED LINKER/LOCATER V6.22                                                      09/18/2013  13:48:52  PAGE 90


  C:7004H         LINE#         151
  C:700BH         LINE#         152
  -------         ENDPROC       _GETXOFFSET
  -------         PROC          _GETYOFFSET
  D:0004H         SYMBOL        temp
  C:700CH         LINE#         153
  C:700CH         LINE#         154
  C:700CH         LINE#         155
  C:7013H         LINE#         156
  -------         ENDPROC       _GETYOFFSET
  -------         PROC          ANGXCALC
  C:6FBEH         LINE#         157
  C:6FBEH         LINE#         158
  C:6FBEH         LINE#         159
  -------         ENDPROC       ANGXCALC
  -------         PROC          ANGYCALC
  C:6FC7H         LINE#         161
  C:6FC7H         LINE#         162
  C:6FC7H         LINE#         163
  -------         ENDPROC       ANGYCALC
  -------         PROC          SNINIT
  C:5996H         LINE#         172
  C:5996H         LINE#         173
  C:5996H         LINE#         174
  C:5999H         LINE#         175
  C:599EH         LINE#         176
  C:59AAH         LINE#         177
  C:59B4H         LINE#         178
  C:59BEH         LINE#         179
  C:59C8H         LINE#         180
  C:59D1H         LINE#         182
  C:59DDH         LINE#         183
  C:59E7H         LINE#         184
  C:59F1H         LINE#         185
  C:59FBH         LINE#         186
  -------         ENDPROC       SNINIT
  -------         PROC          SNPROC
  C:52CDH         LINE#         196
  C:52CDH         LINE#         197
  C:52CDH         LINE#         198
  C:52CDH         LINE#         199
  C:52D5H         LINE#         201
  C:52D9H         LINE#         203
  C:52E2H         LINE#         204
  C:52E2H         LINE#         205
  C:52E2H         LINE#         206
  C:52EDH         LINE#         207
  C:52F4H         LINE#         208
  C:5314H         LINE#         210
  C:5317H         LINE#         211
  C:5319H         LINE#         213
  C:5319H         LINE#         214
  C:5324H         LINE#         215
  C:532BH         LINE#         216
  C:534BH         LINE#         218
  C:5354H         LINE#         219
  C:5354H         LINE#         220
BL51 BANKED LINKER/LOCATER V6.22                                                      09/18/2013  13:48:52  PAGE 91


  C:5354H         LINE#         221
  C:5354H         LINE#         222
  C:5357H         LINE#         223
  C:5357H         LINE#         224
  -------         ENDPROC       SNPROC
  -------         PROC          GETFILTERCNT
  C:70C0H         LINE#         233
  C:70C0H         LINE#         234
  C:70C0H         LINE#         235
  C:70C5H         LINE#         236
  -------         ENDPROC       GETFILTERCNT
  -------         PROC          _SETFILTERCNT
  D:0007H         SYMBOL        cnt
  C:70C6H         LINE#         244
  C:70C6H         LINE#         245
  C:70C6H         LINE#         246
  C:70CBH         LINE#         247
  -------         ENDPROC       _SETFILTERCNT
  -------         PROC          L?0046
  -------         ENDPROC       L?0046
  -------         PROC          GET_MCUTEMP
  C:6DC0H         LINE#         256
  C:6DC0H         LINE#         257
  C:6DC0H         LINE#         261
  C:6DC3H         LINE#         262
  -------         ENDPROC       GET_MCUTEMP
  -------         PROC          GETXFTVAL
  C:6FD0H         LINE#         271
  C:6FD0H         LINE#         272
  C:6FD0H         LINE#         273
  C:6FD8H         LINE#         274
  -------         ENDPROC       GETXFTVAL
  -------         PROC          GETYFTVAL
  C:6FD9H         LINE#         283
  C:6FD9H         LINE#         284
  C:6FD9H         LINE#         285
  C:6FE1H         LINE#         286
  -------         ENDPROC       GETYFTVAL
  -------         PROC          GETXOFTVAL
  C:6FE2H         LINE#         295
  C:6FE2H         LINE#         296
  C:6FE2H         LINE#         297
  C:6FEAH         LINE#         298
  -------         ENDPROC       GETXOFTVAL
  -------         PROC          GETYOFTVAL
  C:6FEBH         LINE#         307
  C:6FEBH         LINE#         308
  C:6FEBH         LINE#         309
  C:6FF3H         LINE#         310
  -------         ENDPROC       GETYOFTVAL
  -------         PROC          GETXANG
  C:7076H         LINE#         319
  C:7076H         LINE#         320
  C:7076H         LINE#         321
  C:707CH         LINE#         322
  -------         ENDPROC       GETXANG
  -------         PROC          GETYANG
BL51 BANKED LINKER/LOCATER V6.22                                                      09/18/2013  13:48:52  PAGE 92


  C:707DH         LINE#         331
  C:707DH         LINE#         332
  C:707DH         LINE#         333
  C:7083H         LINE#         334
  -------         ENDPROC       GETYANG
  -------         ENDMOD        SENSOR

  -------         MODULE        SUB
  C:0000H         SYMBOL        _ICE_DUMMY_
  C:39DDH         PUBLIC        _Sub_Int32s2Str
  C:311AH         PUBLIC        _Sub_Str2Int32s
  C:695EH         PUBLIC        _Sub_Int16s2Str
  C:5DF3H         PUBLIC        _Sub_Str2Int16s
  D:00A0H         PUBLIC        P2
  C:4B8AH         PUBLIC        _Sub_Int16u2Str
  C:4A14H         PUBLIC        _Sub_Str2Int16u
  C:6C26H         PUBLIC        _Comm_PutInt8u
  C:6F43H         PUBLIC        Sub_SysRst
  C:6E4CH         PUBLIC        Comm_PutNewLineSta
  D:00A7H         PUBLIC        SFRPAGE
  C:6B3EH         PUBLIC        Sub_SendSysNum
  C:671DH         PUBLIC        _Sub_SendMcuT
  C:5E4DH         PUBLIC        Sub_SendTCalTest
  C:62F2H         PUBLIC        _Sub_SendAdcTXY
  C:6CE4H         PUBLIC        _Comm_PutInt32s
  C:6840H         PUBLIC        _Comm_PutInt16s
  C:64F8H         PUBLIC        Sub_SendAngXYP
  C:6B6FH         PUBLIC        _Comm_PutInt16u
  C:674CH         PUBLIC        _Sub_StralarmCheck
  C:4950H         PUBLIC        _Sub_SendTempCal
  C:6DFCH         PUBLIC        Sub_SendErr
  C:69C2H         PUBLIC        _Sub_Str2Int8s
  C:6DEEH         PUBLIC        Sub_SendOk
  C:69E3H         PUBLIC        _Sub_Int8u2Str
  C:6534H         PUBLIC        _Sub_Str2Int8u
  C:5ADAH         PUBLIC        _Sub_BufBubble32s
  C:5A04H         PUBLIC        _Sub_BufBubble16s
  C:56EAH         PUBLIC        _Sub_BufBubble16u
  C:575FH         PUBLIC        Sub_SendPrmtAll
  C:6182H         PUBLIC        _Sub_16SBufSwitch
  C:68CEH         PUBLIC        Sub_SendAngXY
  D:00EFH         PUBLIC        RSTSRC
  C:6E0AH         PUBLIC        Sub_SendSoftVer
  C:57D2H         PUBLIC        _Sub_SendMcuTempCal
  C:5F52H         PUBLIC        _Sub_SBufSwitch
  C:61CEH         PUBLIC        _Sub_UBufSwitch
  -------         PROC          _COMM_PUTINT32S
  D:0004H         SYMBOL        val
  C:6CE4H         LINE#         26
  C:6CE4H         LINE#         27
  C:6CE4H         LINE#         28
  C:6CEDH         LINE#         29
  -------         ENDPROC       _COMM_PUTINT32S
  C:682EH         SYMBOL        L?0097
  -------         PROC          L?0096
  -------         ENDPROC       L?0096
  C:682EH         SYMBOL        L?0097
BL51 BANKED LINKER/LOCATER V6.22                                                      09/18/2013  13:48:52  PAGE 93


  -------         PROC          _COMM_PUTINT16S
  D:0004H         SYMBOL        val
  C:6840H         LINE#         39
  C:6844H         LINE#         40
  C:6844H         LINE#         41
  C:684DH         LINE#         42
  -------         ENDPROC       _COMM_PUTINT16S
  -------         PROC          _COMM_PUTINT16U
  D:0004H         SYMBOL        val
  C:6B6FH         LINE#         51
  C:6B73H         LINE#         52
  C:6B73H         LINE#         53
  C:6B7CH         LINE#         54
  -------         ENDPROC       _COMM_PUTINT16U
  -------         PROC          _COMM_PUTINT8U
  D:0005H         SYMBOL        val
  C:6C26H         LINE#         63
  C:6C28H         LINE#         64
  C:6C28H         LINE#         65
  C:6C31H         LINE#         66
  -------         ENDPROC       _COMM_PUTINT8U
  -------         PROC          COMM_PUTNEWLINESTA
  C:6E4CH         LINE#         76
  C:6E4CH         LINE#         77
  C:6E4CH         LINE#         78
  C:6E51H         LINE#         79
  C:6E56H         LINE#         80
  -------         ENDPROC       COMM_PUTNEWLINESTA
  -------         PROC          SUB_SENDOK
  -------         DO            
  D:0001H         SYMBOL        str
  -------         ENDDO         
  C:6DEEH         LINE#         89
  C:6DEEH         LINE#         90
  C:6DEEH         LINE#         91
  C:6DF4H         LINE#         92
  C:6DF9H         LINE#         93
  -------         ENDPROC       SUB_SENDOK
  -------         PROC          SUB_SENDERR
  -------         DO            
  D:0001H         SYMBOL        str
  -------         ENDDO         
  C:6DFCH         LINE#         97
  C:6DFCH         LINE#         98
  C:6E02H         LINE#         101
  C:6E07H         LINE#         102
  -------         ENDPROC       SUB_SENDERR
  -------         PROC          SUB_SENDANGXY
  C:68CEH         LINE#         106
  C:68CEH         LINE#         107
  C:68CEH         LINE#         108
  C:68D9H         LINE#         109
  C:68DFH         LINE#         110
  C:68EAH         LINE#         111
  C:68F0H         LINE#         112
  -------         ENDPROC       SUB_SENDANGXY
  -------         PROC          SUB_SENDANGXYP
BL51 BANKED LINKER/LOCATER V6.22                                                      09/18/2013  13:48:52  PAGE 94


  C:64F8H         LINE#         115
  C:64F8H         LINE#         116
  C:64F8H         LINE#         117
  C:6503H         LINE#         118
  C:6509H         LINE#         119
  C:650CH         LINE#         120
  C:6517H         LINE#         121
  C:651DH         LINE#         122
  C:6520H         LINE#         123
  C:652BH         LINE#         124
  C:6531H         LINE#         125
  -------         ENDPROC       SUB_SENDANGXYP
  -------         PROC          _SUB_SENDADCTXY
  D:0033H         SYMBOL        temp
  D:0035H         SYMBOL        x
  D:0037H         SYMBOL        y
  C:62F2H         LINE#         129
  C:62FEH         LINE#         130
  C:62FEH         LINE#         131
  C:6310H         LINE#         132
  C:6322H         LINE#         133
  C:6334H         LINE#         134
  -------         ENDPROC       _SUB_SENDADCTXY
  -------         PROC          _SUB_SENDMCUT
  D:0030H         SYMBOL        temp
  D:0032H         SYMBOL        tadc
  C:671DH         LINE#         136
  C:6725H         LINE#         137
  C:6725H         LINE#         138
  C:6737H         LINE#         139
  C:6749H         LINE#         140
  -------         ENDPROC       _SUB_SENDMCUT
  -------         PROC          SUB_SENDPRMTALL
  C:575FH         LINE#         143
  C:575FH         LINE#         144
  C:575FH         LINE#         145
  C:5770H         LINE#         146
  C:5781H         LINE#         148
  C:578CH         LINE#         149
  C:5797H         LINE#         151
  C:57A8H         LINE#         153
  C:57B3H         LINE#         154
  C:57BEH         LINE#         156
  C:57CFH         LINE#         158
  -------         ENDPROC       SUB_SENDPRMTALL
  -------         PROC          _SUB_SENDTEMPCAL
  D:0026H         SYMBOL        i
  C:4950H         LINE#         182
  C:4952H         LINE#         183
  C:4952H         LINE#         184
  C:4962H         LINE#         185
  C:496FH         LINE#         187
  C:4982H         LINE#         188
  C:4995H         LINE#         190
  C:49B0H         LINE#         191
  C:49D3H         LINE#         192
  C:49EEH         LINE#         193
BL51 BANKED LINKER/LOCATER V6.22                                                      09/18/2013  13:48:52  PAGE 95


  C:4A11H         LINE#         195
  -------         ENDPROC       _SUB_SENDTEMPCAL
  -------         PROC          _SUB_SENDMCUTEMPCAL
  D:0026H         SYMBOL        i
  C:57D2H         LINE#         198
  C:57D4H         LINE#         199
  C:57D4H         LINE#         200
  C:57E4H         LINE#         201
  C:57F1H         LINE#         203
  C:5804H         LINE#         206
  C:581FH         LINE#         207
  C:5842H         LINE#         210
  -------         ENDPROC       _SUB_SENDMCUTEMPCAL
  -------         PROC          SUB_SENDSOFTVER
  C:6E0AH         LINE#         231
  C:6E0AH         LINE#         232
  C:6E0AH         LINE#         233
  C:6E15H         LINE#         234
  -------         ENDPROC       SUB_SENDSOFTVER
  -------         PROC          SUB_SENDSYSNUM
  C:6B3EH         LINE#         238
  C:6B3EH         LINE#         239
  C:6B3EH         LINE#         240
  C:6B49H         LINE#         241
  C:6B54H         LINE#         242
  -------         ENDPROC       SUB_SENDSYSNUM
  -------         PROC          SUB_SENDTCALTEST
  -------         DO            
  D:0022H         SYMBOL        TempX
  D:0024H         SYMBOL        TempY
  -------         ENDDO         
  C:5E4DH         LINE#         246
  C:5E4DH         LINE#         247
  C:5E4DH         LINE#         251
  C:5E61H         LINE#         252
  C:5E75H         LINE#         254
  C:5E85H         LINE#         255
  C:5E91H         LINE#         256
  C:5E98H         LINE#         257
  C:5E9BH         LINE#         260
  -------         ENDPROC       SUB_SENDTCALTEST
  -------         PROC          _SUB_STR2INT32S
  D:002CH         SYMBOL        val
  D:002FH         SYMBOL        str
  -------         DO            
  D:0032H         SYMBOL        temp
  -------         ENDDO         
  C:311AH         LINE#         269
  C:3120H         LINE#         270
  C:3120H         LINE#         273
  C:313BH         LINE#         274
  C:3150H         LINE#         275
  C:315DH         LINE#         276
  C:3172H         LINE#         277
  C:3187H         LINE#         278
  C:319CH         LINE#         279
  C:3274H         LINE#         280
BL51 BANKED LINKER/LOCATER V6.22                                                      09/18/2013  13:48:52  PAGE 96


  C:3280H         LINE#         281
  C:3280H         LINE#         282
  C:3282H         LINE#         283
  C:3282H         LINE#         284
  C:328EH         LINE#         285
  C:32A2H         LINE#         286
  C:32A5H         LINE#         287
  C:32A5H         LINE#         288
  C:32A7H         LINE#         289
  -------         ENDPROC       _SUB_STR2INT32S
  -------         PROC          _SUB_STR2INT16S
  D:002BH         SYMBOL        val
  D:002EH         SYMBOL        str
  -------         DO            
  D:0031H         SYMBOL        temp
  -------         ENDDO         
  C:5DF3H         LINE#         291
  C:5DF9H         LINE#         292
  C:5DF9H         LINE#         293
  C:5E16H         LINE#         295
  C:5E23H         LINE#         296
  C:5E2EH         LINE#         297
  C:5E30H         LINE#         298
  C:5E30H         LINE#         299
  C:5E34H         LINE#         300
  C:5E47H         LINE#         301
  C:5E4AH         LINE#         302
  C:5E4AH         LINE#         303
  C:5E4CH         LINE#         304
  -------         ENDPROC       _SUB_STR2INT16S
  -------         PROC          _SUB_STR2INT16U
  D:0033H         SYMBOL        val
  D:0036H         SYMBOL        str
  -------         DO            
  D:0007H         SYMBOL        i
  -------         ENDDO         
  C:4A14H         LINE#         306
  C:4A1AH         LINE#         307
  C:4A1AH         LINE#         310
  C:4A1CH         LINE#         311
  C:4A36H         LINE#         312
  C:4A39H         LINE#         313
  C:4A3DH         LINE#         314
  C:4AD0H         LINE#         315
  C:4AD2H         LINE#         316
  -------         ENDPROC       _SUB_STR2INT16U
  -------         PROC          _SUB_STR2INT8U
  D:0001H         SYMBOL        str
  -------         DO            
  D:0007H         SYMBOL        val
  -------         ENDDO         
  C:6534H         LINE#         318
  C:6534H         LINE#         319
  C:6534H         LINE#         321
  C:6546H         LINE#         322
  C:655BH         LINE#         323
  C:656FH         LINE#         324
BL51 BANKED LINKER/LOCATER V6.22                                                      09/18/2013  13:48:52  PAGE 97


  C:656FH         LINE#         325
  -------         ENDPROC       _SUB_STR2INT8U
  -------         PROC          _SUB_STR2INT8S
  D:002CH         SYMBOL        str
  -------         DO            
  D:0007H         SYMBOL        temp
  -------         ENDDO         
  C:69C2H         LINE#         326
  C:69C8H         LINE#         327
  C:69C8H         LINE#         329
  C:69D2H         LINE#         331
  C:69DEH         LINE#         332
  C:69DEH         LINE#         333
  C:69E2H         LINE#         334
  C:69E2H         LINE#         335
  C:69E2H         LINE#         336
  -------         ENDPROC       _SUB_STR2INT8S
  -------         PROC          _SUB_INT32S2STR
  D:002CH         SYMBOL        s
  D:002FH         SYMBOL        val
  C:39DDH         LINE#         338
  C:39EBH         LINE#         339
  C:39EBH         LINE#         340
  C:39EFH         LINE#         341
  C:39EFH         LINE#         342
  C:39FAH         LINE#         343
  C:39FCH         LINE#         344
  C:39FEH         LINE#         346
  C:39FEH         LINE#         347
  C:3A09H         LINE#         348
  C:3A09H         LINE#         349
  C:3A3AH         LINE#         351
  C:3A5BH         LINE#         352
  C:3A7DH         LINE#         353
  C:3A96H         LINE#         354
  C:3AB8H         LINE#         355
  C:3AC6H         LINE#         356
  C:3AE6H         LINE#         357
  C:3B07H         LINE#         358
  C:3B1FH         LINE#         359
  -------         ENDPROC       _SUB_INT32S2STR
  -------         PROC          _SUB_INT16S2STR
  D:0001H         SYMBOL        s
  D:0004H         SYMBOL        val
  C:695EH         LINE#         362
  C:695EH         LINE#         363
  C:695EH         LINE#         364
  C:6966H         LINE#         365
  C:696DH         LINE#         366
  C:696FH         LINE#         367
  C:6971H         LINE#         369
  C:6976H         LINE#         370
  C:6976H         LINE#         371
  -------         ENDPROC       _SUB_INT16S2STR
  -------         PROC          _SUB_INT16U2STR
  D:0039H         SYMBOL        s
  D:003CH         SYMBOL        val
BL51 BANKED LINKER/LOCATER V6.22                                                      09/18/2013  13:48:52  PAGE 98


  C:4B8AH         LINE#         374
  C:4B94H         LINE#         375
  C:4B94H         LINE#         376
  C:4BA5H         LINE#         377
  C:4BB4H         LINE#         378
  C:4BCEH         LINE#         379
  C:4BDDH         LINE#         380
  C:4BF7H         LINE#         381
  C:4C06H         LINE#         382
  C:4C20H         LINE#         383
  -------         ENDPROC       _SUB_INT16U2STR
  -------         PROC          _SUB_INT8U2STR
  D:0001H         SYMBOL        s
  D:0005H         SYMBOL        val
  C:69E3H         LINE#         386
  C:69E3H         LINE#         387
  C:69E3H         LINE#         388
  C:69EAH         LINE#         389
  C:69F4H         LINE#         390
  -------         ENDPROC       _SUB_INT8U2STR
  -------         PROC          _SUB_SBUFSWITCH
  D:002CH         SYMBOL        buf
  D:002FH         SYMBOL        i
  D:0030H         SYMBOL        j
  -------         DO            
  D:0031H         SYMBOL        temp
  -------         ENDDO         
  C:5F52H         LINE#         400
  C:5F5AH         LINE#         401
  C:5F5AH         LINE#         404
  C:5F70H         LINE#         405
  C:5F8CH         LINE#         406
  -------         ENDPROC       _SUB_SBUFSWITCH
  -------         PROC          _SUB_16SBUFSWITCH
  D:003DH         SYMBOL        buf
  D:0005H         SYMBOL        i
  D:0041H         SYMBOL        j
  -------         DO            
  D:0042H         SYMBOL        temp
  -------         ENDDO         
  C:6182H         LINE#         410
  C:6188H         LINE#         411
  C:6188H         LINE#         414
  C:619AH         LINE#         415
  C:61BBH         LINE#         416
  -------         ENDPROC       _SUB_16SBUFSWITCH
  -------         PROC          _SUB_UBUFSWITCH
  D:003DH         SYMBOL        buf
  D:0005H         SYMBOL        i
  D:0041H         SYMBOL        j
  -------         DO            
  D:0042H         SYMBOL        temp
  -------         ENDDO         
  C:61CEH         LINE#         420
  C:61D4H         LINE#         421
  C:61D4H         LINE#         424
  C:61E6H         LINE#         425
BL51 BANKED LINKER/LOCATER V6.22                                                      09/18/2013  13:48:52  PAGE 99


  C:6207H         LINE#         426
  -------         ENDPROC       _SUB_UBUFSWITCH
  -------         PROC          _SUB_BUFBUBBLE32S
  D:0023H         SYMBOL        id
  D:0026H         SYMBOL        x
  D:0029H         SYMBOL        n
  -------         DO            
  D:002AH         SYMBOL        i
  D:002BH         SYMBOL        j
  -------         ENDDO         
  C:5ADAH         LINE#         429
  C:5AE0H         LINE#         430
  C:5AE0H         LINE#         433
  C:5AEAH         LINE#         434
  C:5AF6H         LINE#         435
  C:5B1EH         LINE#         436
  C:5B2CH         LINE#         437
  C:5B3AH         LINE#         438
  C:5B3AH         LINE#         439
  C:5B3EH         LINE#         440
  C:5B42H         LINE#         441
  -------         ENDPROC       _SUB_BUFBUBBLE32S
  -------         PROC          _SUB_BUFBUBBLE16S
  D:0025H         SYMBOL        id
  D:0028H         SYMBOL        x
  D:002BH         SYMBOL        n
  -------         DO            
  D:002CH         SYMBOL        i
  D:002DH         SYMBOL        j
  -------         ENDDO         
  C:5A04H         LINE#         443
  C:5A0AH         LINE#         444
  C:5A0AH         LINE#         447
  C:5A14H         LINE#         448
  C:5A20H         LINE#         449
  C:5A52H         LINE#         450
  C:5A5AH         LINE#         451
  C:5A68H         LINE#         452
  C:5A68H         LINE#         453
  C:5A6CH         LINE#         454
  C:5A70H         LINE#         455
  -------         ENDPROC       _SUB_BUFBUBBLE16S
  -------         PROC          _SUB_BUFBUBBLE16U
  D:0031H         SYMBOL        id
  D:0034H         SYMBOL        x
  D:0037H         SYMBOL        y
  D:003AH         SYMBOL        n
  -------         DO            
  D:003BH         SYMBOL        i
  D:003CH         SYMBOL        j
  -------         ENDDO         
  C:56EAH         LINE#         460
  C:56F0H         LINE#         461
  C:56F0H         LINE#         464
  C:56FAH         LINE#         465
  C:5706H         LINE#         466
  C:5732H         LINE#         467
BL51 BANKED LINKER/LOCATER V6.22                                                      09/18/2013  13:48:52  PAGE 100


  C:573AH         LINE#         468
  C:5748H         LINE#         469
  C:5756H         LINE#         470
  C:5756H         LINE#         471
  C:575AH         LINE#         472
  C:575EH         LINE#         473
  -------         ENDPROC       _SUB_BUFBUBBLE16U
  -------         PROC          SUB_SYSRST
  -------         DO            
  D:0007H         SYMBOL        SfrPage_
  -------         ENDDO         
  C:6F43H         LINE#         476
  C:6F43H         LINE#         477
  C:6F45H         LINE#         480
  C:6F48H         LINE#         481
  C:6F4BH         LINE#         482
  C:6F4DH         LINE#         483
  -------         ENDPROC       SUB_SYSRST
  -------         PROC          _SUB_STRALARMCHECK
  D:002CH         SYMBOL        val
  D:002FH         SYMBOL        str
  C:674CH         LINE#         487
  C:6752H         LINE#         488
  C:6752H         LINE#         489
  C:6764H         LINE#         490
  C:6764H         LINE#         491
  C:6775H         LINE#         492
  C:6778H         LINE#         493
  C:6778H         LINE#         495
  C:6778H         LINE#         496
  C:677AH         LINE#         497
  C:677AH         LINE#         499
  -------         ENDPROC       _SUB_STRALARMCHECK
  -------         ENDMOD        SUB

  -------         MODULE        TIMER
  C:0000H         SYMBOL        _ICE_DUMMY_
  D:0018H         PUBLIC        MainTime4En
  D:00A0H         PUBLIC        P2
  C:647FH         PUBLIC        Timer2_ISR
  D:00A7H         PUBLIC        SFRPAGE
  C:661AH         PUBLIC        Timer2_TaskInIsr
  B:00C8H.7       PUBLIC        TF2H
  D:00CCH         PUBLIC        TMR2
  C:65ABH         PUBLIC        Timer2_Init
  D:00C8H         PUBLIC        TMR2CN
  D:00CAH         PUBLIC        TMR2RL
  B:00A8H.5       PUBLIC        ET2
  B:00C8H.2       PUBLIC        TR2
  C:6D2EH         PUBLIC        Timer2_TaskInMain
  D:008EH         PUBLIC        CKCON
  X:0C58H         PUBLIC        MainTime4Cnt
  -------         PROC          TIMER2_INIT
  -------         DO            
  D:0007H         SYMBOL        SfrPage_
  -------         ENDDO         
  C:65ABH         LINE#         26
BL51 BANKED LINKER/LOCATER V6.22                                                      09/18/2013  13:48:52  PAGE 101


  C:65ABH         LINE#         27
  C:65ABH         LINE#         28
  C:65ADH         LINE#         29
  C:65B0H         LINE#         30
  C:65B2H         LINE#         31
  C:65B5H         LINE#         32
  C:65BBH         LINE#         33
  C:65C1H         LINE#         34
  C:65C3H         LINE#         35
  C:65C5H         LINE#         36
  C:65C7H         LINE#         37
  C:65E2H         LINE#         38
  -------         ENDPROC       TIMER2_INIT
  -------         PROC          TIMER2_ISR
  C:647FH         LINE#         46
  C:649CH         LINE#         48
  C:649EH         LINE#         49
  C:64A1H         LINE#         50
  -------         ENDPROC       TIMER2_ISR
  -------         PROC          TIMER2_TASKINISR
  C:661AH         LINE#         68
  C:661AH         LINE#         69
  C:661AH         LINE#         70
  C:661DH         LINE#         71
  C:6627H         LINE#         72
  C:6631H         LINE#         73
  C:6631H         LINE#         74
  C:664CH         LINE#         75
  C:664FH         LINE#         77
  C:664FH         LINE#         78
  -------         ENDPROC       TIMER2_TASKINISR
  -------         PROC          TIMER2_TASKINMAIN
  C:6D2EH         LINE#         86
  C:6D2EH         LINE#         87
  C:6D2EH         LINE#         88
  C:6D33H         LINE#         89
  C:6D36H         LINE#         90
  C:6D3CH         LINE#         91
  C:6D3FH         LINE#         93
  C:6D3FH         LINE#         94
  -------         ENDPROC       TIMER2_TASKINMAIN
  -------         ENDMOD        TIMER

  -------         MODULE        CALMCUT
  C:0000H         SYMBOL        _ICE_DUMMY_
  D:00A0H         PUBLIC        P2
  C:70D2H         PUBLIC        McuT_CalStop
  C:70F0H         PUBLIC        McuT_CalSta
  C:6AB7H         PUBLIC        _Mcut_CalSamp
  C:6441H         SYMBOL        McuTCalcPrm
  C:387AH         SYMBOL        _Mcut_CalcPrm
  X:09F0H         PUBLIC        McuTcal
  C:6401H         PUBLIC        CalibMtInit
  C:6BCCH         SYMBOL        _McuT_RdAdcVal
  C:70ECH         SYMBOL        _McuT_SetCalCnt
  X:0ACDH         SYMBOL        mtemp_buf
  C:46BDH         PUBLIC        MTCalDataInit
BL51 BANKED LINKER/LOCATER V6.22                                                      09/18/2013  13:48:52  PAGE 102


  C:6D84H         SYMBOL        _McuT_RdTempVal
  C:6BE3H         SYMBOL        _McuT_WrAdcVal
  C:70CCH         PUBLIC        GetMcuTCalCnt
  C:6264H         PUBLIC        _McuT_CalValWr
  D:0016H         SYMBOL        PMCUTCAL
  C:6EF5H         PUBLIC        _GetMcuTCalAdcVal
  C:6F4EH         PUBLIC        _SetMcuTCalCnt
  C:6D95H         SYMBOL        _McuT_WrTempVal
  C:54EBH         PUBLIC        _GetMt
  C:6CCFH         PUBLIC        _SetMcuTCalAdcVal
  C:6EE9H         PUBLIC        _GetMcuTCalTempVal
  C:6CBAH         PUBLIC        _SetMcuTCalTempVal
  -------         PROC          _MCUT_SETCALCNT
  D:0001H         SYMBOL        p_cal
  D:0005H         SYMBOL        num
  C:70ECH         LINE#         15
  C:70ECH         LINE#         16
  C:70ECH         LINE#         17
  -------         ENDPROC       _MCUT_SETCALCNT
  -------         PROC          _MCUT_RDTEMPVAL
  D:0001H         SYMBOL        p_cal
  D:0005H         SYMBOL        posid
  C:6D84H         LINE#         28
  C:6D84H         LINE#         29
  C:6D84H         LINE#         30
  C:6D94H         LINE#         31
  -------         ENDPROC       _MCUT_RDTEMPVAL
  -------         PROC          _MCUT_RDADCVAL
  D:0001H         SYMBOL        p_cal
  D:0005H         SYMBOL        posid
  C:6BCCH         LINE#         39
  C:6BCCH         LINE#         40
  C:6BCCH         LINE#         41
  C:6BE2H         LINE#         42
  -------         ENDPROC       _MCUT_RDADCVAL
  -------         PROC          _MCUT_WRTEMPVAL
  D:0001H         SYMBOL        p_cal
  D:0004H         SYMBOL        val
  D:002BH         SYMBOL        posid
  C:6D95H         LINE#         51
  C:6D95H         LINE#         52
  C:6D95H         LINE#         53
  -------         ENDPROC       _MCUT_WRTEMPVAL
  -------         PROC          _MCUT_WRADCVAL
  D:0001H         SYMBOL        p_cal
  D:0004H         SYMBOL        val
  D:002BH         SYMBOL        posid
  C:6BE3H         LINE#         63
  C:6BE3H         LINE#         64
  C:6BE3H         LINE#         65
  -------         ENDPROC       _MCUT_WRADCVAL
  -------         PROC          _MCUT_CALCPRM
  D:0025H         SYMBOL        p_cal
  -------         DO            
  D:0028H         SYMBOL        i
  D:0029H         SYMBOL        aa
  -------         ENDDO         
BL51 BANKED LINKER/LOCATER V6.22                                                      09/18/2013  13:48:52  PAGE 103


  C:387AH         LINE#         75
  C:3880H         LINE#         76
  C:3880H         LINE#         79
  C:3897H         LINE#         80
  C:3897H         LINE#         81
  C:38C8H         LINE#         82
  C:395DH         LINE#         83
  C:39D7H         LINE#         84
  C:39DCH         LINE#         85
  -------         ENDPROC       _MCUT_CALCPRM
  -------         PROC          _SETMCUTCALCNT
  D:0005H         SYMBOL        cnt
  C:6F4EH         LINE#         94
  C:6F50H         LINE#         95
  C:6F50H         LINE#         96
  -------         ENDPROC       _SETMCUTCALCNT
  -------         PROC          GETMCUTCALCNT
  C:70CCH         LINE#         106
  C:70CCH         LINE#         107
  C:70CCH         LINE#         108
  C:70D1H         LINE#         109
  -------         ENDPROC       GETMCUTCALCNT
  -------         PROC          _GETMCUTCALTEMPVAL
  D:0005H         SYMBOL        pos
  C:6EE9H         LINE#         118
  C:6EEBH         LINE#         119
  C:6EEBH         LINE#         120
  C:6EF4H         LINE#         121
  -------         ENDPROC       _GETMCUTCALTEMPVAL
  -------         PROC          _GETMCUTCALADCVAL
  D:0005H         SYMBOL        pos
  C:6EF5H         LINE#         130
  C:6EF7H         LINE#         131
  C:6EF7H         LINE#         132
  C:6F00H         LINE#         133
  -------         ENDPROC       _GETMCUTCALADCVAL
  -------         PROC          _SETMCUTCALTEMPVAL
  D:0082H         SYMBOL        val
  D:0007H         SYMBOL        pos
  C:6CBAH         LINE#         141
  C:6CC0H         LINE#         142
  C:6CC0H         LINE#         143
  -------         ENDPROC       _SETMCUTCALTEMPVAL
  -------         PROC          _SETMCUTCALADCVAL
  D:0082H         SYMBOL        val
  D:0007H         SYMBOL        pos
  C:6CCFH         LINE#         152
  C:6CD5H         LINE#         153
  C:6CD5H         LINE#         154
  -------         ENDPROC       _SETMCUTCALADCVAL
  -------         PROC          CALIBMTINIT
  C:6401H         LINE#         159
  C:6401H         LINE#         160
  C:6401H         LINE#         161
  C:640DH         LINE#         162
  C:6419H         LINE#         163
  C:6423H         LINE#         164
BL51 BANKED LINKER/LOCATER V6.22                                                      09/18/2013  13:48:52  PAGE 104


  C:642DH         LINE#         165
  C:6437H         LINE#         166
  -------         ENDPROC       CALIBMTINIT
  -------         PROC          MTCALDATAINIT
  -------         DO            
  D:0022H         SYMBOL        i
  -------         ENDDO         
  C:46BDH         LINE#         178
  C:46BDH         LINE#         179
  C:46BDH         LINE#         181
  C:46C2H         LINE#         182
  C:46C5H         LINE#         183
  C:46C5H         LINE#         184
  C:46EFH         LINE#         185
  C:46F3H         LINE#         186
  C:46F3H         LINE#         187
  C:4706H         LINE#         188
  C:4706H         LINE#         189
  C:472FH         LINE#         190
  C:4736H         LINE#         203
  C:4744H         LINE#         204
  C:4755H         LINE#         205
  C:4760H         LINE#         206
  C:476BH         LINE#         207
  C:4775H         LINE#         209
  C:477FH         LINE#         210
  C:4787H         LINE#         211
  C:478EH         LINE#         212
  C:4795H         LINE#         213
  C:479CH         LINE#         215
  -------         ENDPROC       MTCALDATAINIT
  -------         PROC          _GETMT
  D:0026H         SYMBOL        tadc
  -------         DO            
  D:0028H         SYMBOL        i
  D:0004H         SYMBOL        offset
  -------         ENDDO         
  C:54EBH         LINE#         226
  C:54EFH         LINE#         227
  C:54EFH         LINE#         231
  C:5502H         LINE#         232
  C:5502H         LINE#         233
  C:5527H         LINE#         234
  C:5527H         LINE#         235
  C:552BH         LINE#         236
  C:556FH         LINE#         238
  C:556FH         LINE#         239
  -------         ENDPROC       _GETMT
  -------         PROC          MCUTCALCPRM
  C:6441H         LINE#         250
  C:6441H         LINE#         251
  C:6441H         LINE#         253
  C:6476H         LINE#         255
  -------         ENDPROC       MCUTCALCPRM
  -------         PROC          _MCUT_CALVALWR
  D:0030H         SYMBOL        id
  D:0004H         SYMBOL        temp
BL51 BANKED LINKER/LOCATER V6.22                                                      09/18/2013  13:48:52  PAGE 105


  D:0031H         SYMBOL        tadc
  C:6264H         LINE#         266
  C:626AH         LINE#         267
  C:626AH         LINE#         268
  C:6274H         LINE#         269
  C:628FH         LINE#         270
  C:62AAH         LINE#         272
  C:62ACH         LINE#         273
  -------         ENDPROC       _MCUT_CALVALWR
  -------         PROC          MCUT_CALSTA
  C:70F0H         LINE#         281
  C:70F0H         LINE#         282
  C:70F0H         LINE#         285
  C:70F2H         LINE#         286
  -------         ENDPROC       MCUT_CALSTA
  -------         PROC          MCUT_CALSTOP
  C:70D2H         LINE#         294
  C:70D2H         LINE#         295
  C:70D2H         LINE#         298
  C:70D5H         LINE#         299
  C:70D7H         LINE#         300
  -------         ENDPROC       MCUT_CALSTOP
  -------         PROC          _MCUT_CALSAMP
  D:0007H         SYMBOL        id
  D:002CH         SYMBOL        temp
  D:002EH         SYMBOL        tadc
  C:6AB7H         LINE#         302
  C:6ABFH         LINE#         303
  C:6ABFH         LINE#         306
  C:6AC5H         LINE#         307
  C:6AC7H         LINE#         308
  C:6AD2H         LINE#         309
  C:6AD4H         LINE#         310
  -------         ENDPROC       _MCUT_CALSAMP
  -------         ENDMOD        CALMCUT

  -------         MODULE        ?C?FPADD
  C:0055H         PUBLIC        ?C?FPADD
  C:0051H         PUBLIC        ?C?FPSUB
  -------         ENDMOD        ?C?FPADD

  -------         MODULE        ?C?FPMUL
  C:0146H         PUBLIC        ?C?FPMUL
  -------         ENDMOD        ?C?FPMUL

  -------         MODULE        ?C?FPDIV
  C:024FH         PUBLIC        ?C?FPDIV
  -------         ENDMOD        ?C?FPDIV

  -------         MODULE        ?C?FPCMP
  C:02EEH         PUBLIC        ?C?FPCMP
  C:02ECH         PUBLIC        ?C?FPCMP3
  -------         ENDMOD        ?C?FPCMP

  -------         MODULE        ?C?FCAST
  C:0363H         PUBLIC        ?C?FCASTC
  C:035EH         PUBLIC        ?C?FCASTI
BL51 BANKED LINKER/LOCATER V6.22                                                      09/18/2013  13:48:52  PAGE 106


  C:0359H         PUBLIC        ?C?FCASTL
  -------         ENDMOD        ?C?FCAST

  -------         MODULE        ?C?CASTF
  C:0397H         PUBLIC        ?C?CASTF
  -------         ENDMOD        ?C?CASTF

  -------         MODULE        SQRT
  C:4C3EH         PUBLIC        _SQRT
  -------         ENDMOD        SQRT

  -------         MODULE        SIN
  C:35EFH         PUBLIC        _COS
  C:3605H         PUBLIC        _SIN
  C:3637H         PUBLIC        _TAN
  -------         ENDMOD        SIN

  -------         MODULE        ASIN
  C:6570H         PUBLIC        _ASIN
  -------         ENDMOD        ASIN

  -------         MODULE        ATAN
  C:3DD1H         PUBLIC        _ATAN
  -------         ENDMOD        ATAN

  -------         MODULE        ?C?CLDPTR
  C:0465H         PUBLIC        ?C?CLDPTR
  -------         ENDMOD        ?C?CLDPTR

  -------         MODULE        ?C?CLDOPTR
  C:047EH         PUBLIC        ?C?CLDOPTR
  -------         ENDMOD        ?C?CLDOPTR

  -------         MODULE        ?C?CILDPTR
  C:04ABH         PUBLIC        ?C?CILDPTR
  -------         ENDMOD        ?C?CILDPTR

  -------         MODULE        ?C?CSTPTR
  C:04CDH         PUBLIC        ?C?CSTPTR
  -------         ENDMOD        ?C?CSTPTR

  -------         MODULE        ?C?CSTOPTR
  C:04DFH         PUBLIC        ?C?CSTOPTR
  -------         ENDMOD        ?C?CSTOPTR

  -------         MODULE        ?C?IMUL
  C:0501H         PUBLIC        ?C?IMUL
  -------         ENDMOD        ?C?IMUL

  -------         MODULE        ?C?UIDIV
  C:0513H         PUBLIC        ?C?UIDIV
  -------         ENDMOD        ?C?UIDIV

  -------         MODULE        ?C?SIDIV
  C:0568H         PUBLIC        ?C?SIDIV
  -------         ENDMOD        ?C?SIDIV

BL51 BANKED LINKER/LOCATER V6.22                                                      09/18/2013  13:48:52  PAGE 107


  -------         MODULE        ?C?IILDX
  C:059EH         PUBLIC        ?C?IILDX
  -------         ENDMOD        ?C?IILDX

  -------         MODULE        ?C?ILDPTR
  C:05B4H         PUBLIC        ?C?ILDPTR
  -------         ENDMOD        ?C?ILDPTR

  -------         MODULE        ?C?ILDOPTR
  C:05DFH         PUBLIC        ?C?ILDOPTR
  -------         ENDMOD        ?C?ILDOPTR

  -------         MODULE        ?C?IILDPTR
  C:0617H         PUBLIC        ?C?IILDPTR
  -------         ENDMOD        ?C?IILDPTR

  -------         MODULE        ?C?IILDOPTR
  C:064FH         PUBLIC        ?C?IILDOPTR
  -------         ENDMOD        ?C?IILDOPTR

  -------         MODULE        ?C?ISTPTR
  C:069CH         PUBLIC        ?C?ISTPTR
  -------         ENDMOD        ?C?ISTPTR

  -------         MODULE        ?C?ISTOPTR
  C:06BBH         PUBLIC        ?C?ISTOPTR
  -------         ENDMOD        ?C?ISTOPTR

  -------         MODULE        ?C?LADD
  C:06E8H         PUBLIC        ?C?LADD
  -------         ENDMOD        ?C?LADD

  -------         MODULE        ?C?LSUB
  C:06F5H         PUBLIC        ?C?LSUB
  -------         ENDMOD        ?C?LSUB

  -------         MODULE        ?C?LMUL
  C:0703H         PUBLIC        ?C?LMUL
  -------         ENDMOD        ?C?LMUL

  -------         MODULE        ?C?ULDIV
  C:078EH         PUBLIC        ?C?ULDIV
  -------         ENDMOD        ?C?ULDIV

  -------         MODULE        ?C?SLDIV
  C:6337H         PUBLIC        ?C?SLDIV
  -------         ENDMOD        ?C?SLDIV

  -------         MODULE        ?C?LNEG
  C:0820H         PUBLIC        ?C?LNEG
  -------         ENDMOD        ?C?LNEG

  -------         MODULE        ?C?SLCMP
  C:082EH         PUBLIC        ?C?SLCMP
  -------         ENDMOD        ?C?SLCMP

  -------         MODULE        ?C?ULCMP
BL51 BANKED LINKER/LOCATER V6.22                                                      09/18/2013  13:48:52  PAGE 108


  C:0844H         PUBLIC        ?C?ULCMP
  -------         ENDMOD        ?C?ULCMP

  -------         MODULE        ?C?ULSHR
  C:0855H         PUBLIC        ?C?ULSHR
  -------         ENDMOD        ?C?ULSHR

  -------         MODULE        ?C?LSHL
  C:0868H         PUBLIC        ?C?LSHL
  -------         ENDMOD        ?C?LSHL

  -------         MODULE        ?C?LLDPTR
  C:087BH         PUBLIC        ?C?LLDPTR
  -------         ENDMOD        ?C?LLDPTR

  -------         MODULE        ?C?LLDOPTR
  C:089BH         PUBLIC        ?C?LLDOPTR
  -------         ENDMOD        ?C?LLDOPTR

  -------         MODULE        ?C?LSTPTR
  C:08CBH         PUBLIC        ?C?LSTPTR
  -------         ENDMOD        ?C?LSTPTR

  -------         MODULE        ?C?LSTOPTR
  C:08E5H         PUBLIC        ?C?LSTOPTR
  -------         ENDMOD        ?C?LSTOPTR

  -------         MODULE        ?C?LLDXDATA
  C:0909H         PUBLIC        ?C?LLDXDATA
  -------         ENDMOD        ?C?LLDXDATA

  -------         MODULE        ?C?LLDCODE
  C:0915H         PUBLIC        ?C?LLDCODE
  -------         ENDMOD        ?C?LLDCODE

  -------         MODULE        ?C?LLDXDATA0
  C:0925H         PUBLIC        ?C?LLDXDATA0
  -------         ENDMOD        ?C?LLDXDATA0

  -------         MODULE        ?C?LLDCODE0
  C:0931H         PUBLIC        ?C?LLDCODE0
  -------         ENDMOD        ?C?LLDCODE0

  -------         MODULE        ?C?LLDOPTR0
  C:0941H         PUBLIC        ?C?LLDOPTR0
  -------         ENDMOD        ?C?LLDOPTR0

  -------         MODULE        ?C?LSTXDATA
  C:0971H         PUBLIC        ?C?LSTXDATA
  -------         ENDMOD        ?C?LSTXDATA

  -------         MODULE        ?C?LSTKXDATA
  C:097DH         PUBLIC        ?C?LSTKXDATA
  -------         ENDMOD        ?C?LSTKXDATA

  -------         MODULE        ?C?LSTKOPTR
  C:09AEH         PUBLIC        ?C?LSTKOPTR
BL51 BANKED LINKER/LOCATER V6.22                                                      09/18/2013  13:48:52  PAGE 109


  -------         ENDMOD        ?C?LSTKOPTR

  -------         MODULE        ?C?OFFXADD
  C:09D2H         PUBLIC        ?C?OFFXADD
  -------         ENDMOD        ?C?OFFXADD

  -------         MODULE        ?C?PLDIIDATA
  C:09DEH         PUBLIC        ?C?PLDIIDATA
  -------         ENDMOD        ?C?PLDIIDATA

  -------         MODULE        ?C?PLDXDATA
  C:09EEH         PUBLIC        ?C?PLDXDATA
  -------         ENDMOD        ?C?PLDXDATA

  -------         MODULE        ?C?PSTXDATA
  C:09F7H         PUBLIC        ?C?PSTXDATA
  -------         ENDMOD        ?C?PSTXDATA

  -------         MODULE        ?C?PLDOPTR
  C:0A00H         PUBLIC        ?C?PLDOPTR
  -------         ENDMOD        ?C?PLDOPTR

  -------         MODULE        ?C?PLDIOPTR
  C:0A30H         PUBLIC        ?C?PLDIOPTR
  -------         ENDMOD        ?C?PLDIOPTR

  -------         MODULE        ?C?PSTOPTR
  C:0A62H         PUBLIC        ?C?PSTOPTR
  -------         ENDMOD        ?C?PSTOPTR

  -------         MODULE        ?C?CCASE
  C:0ABBH         PUBLIC        ?C?CCASE
  -------         ENDMOD        ?C?CCASE

  -------         MODULE        ?C?ICASE
  C:0AE1H         PUBLIC        ?C?ICASE
  -------         ENDMOD        ?C?ICASE

  -------         MODULE        ?C?ICALL
  C:0B0EH         PUBLIC        ?C?ICALL
  C:0B12H         PUBLIC        ?C?ICALL2
  -------         ENDMOD        ?C?ICALL

  -------         MODULE        STRNCMP
  D:002CH         PUBLIC        ?_strncmp?BYTE
  C:5927H         PUBLIC        _strncmp
  -------         ENDMOD        STRNCMP

  -------         MODULE        STRNCPY
  D:002BH         PUBLIC        ?_strncpy?BYTE
  C:5FA8H         PUBLIC        _strncpy
  -------         ENDMOD        STRNCPY

  -------         MODULE        ?C?LLDIDATA
  C:0B14H         PUBLIC        ?C?LLDIDATA
  -------         ENDMOD        ?C?LLDIDATA

BL51 BANKED LINKER/LOCATER V6.22                                                      09/18/2013  13:48:52  PAGE 110


  -------         MODULE        ?C?LLDPDATA
  C:0B20H         PUBLIC        ?C?LLDPDATA
  -------         ENDMOD        ?C?LLDPDATA

  -------         MODULE        ?C?LLDIDATA0
  C:0B2CH         PUBLIC        ?C?LLDIDATA0
  -------         ENDMOD        ?C?LLDIDATA0

  -------         MODULE        ?C?LLDPDATA0
  C:0B39H         PUBLIC        ?C?LLDPDATA0
  -------         ENDMOD        ?C?LLDPDATA0

  -------         MODULE        ?C?LSTIDATA
  C:0B46H         PUBLIC        ?C?LSTIDATA
  -------         ENDMOD        ?C?LSTIDATA

  -------         MODULE        ?C?LSTPDATA
  C:0B52H         PUBLIC        ?C?LSTPDATA
  -------         ENDMOD        ?C?LSTPDATA

  -------         MODULE        ?C?LSTKIDATA
  C:0B5EH         PUBLIC        ?C?LSTKIDATA
  -------         ENDMOD        ?C?LSTKIDATA

  -------         MODULE        ?C?LSTKPDATA
  C:0B77H         PUBLIC        ?C?LSTKPDATA
  -------         ENDMOD        ?C?LSTKPDATA

  -------         MODULE        ?C?PLDIDATA
  C:0B90H         PUBLIC        ?C?PLDIDATA
  -------         ENDMOD        ?C?PLDIDATA

  -------         MODULE        ?C?PSTIDATA
  C:0B99H         PUBLIC        ?C?PSTIDATA
  -------         ENDMOD        ?C?PSTIDATA

  -------         MODULE        ?C?PLDIXDATA
  C:0BA2H         PUBLIC        ?C?PLDIXDATA
  -------         ENDMOD        ?C?PLDIXDATA

  -------         MODULE        ?C?PLDPDATA
  C:0BB9H         PUBLIC        ?C?PLDPDATA
  -------         ENDMOD        ?C?PLDPDATA

  -------         MODULE        ?C?PLDIPDATA
  C:0BC2H         PUBLIC        ?C?PLDIPDATA
  -------         ENDMOD        ?C?PLDIPDATA

  -------         MODULE        ?C?PSTPDATA
  C:0BD2H         PUBLIC        ?C?PSTPDATA
  -------         ENDMOD        ?C?PSTPDATA

  -------         MODULE        ?C?PLDCODE
  C:0BDBH         PUBLIC        ?C?PLDCODE
  -------         ENDMOD        ?C?PLDCODE

Program Size: data=114.4 xdata=3162 code=28914
BL51 BANKED LINKER/LOCATER V6.22                                                      09/18/2013  13:48:52  PAGE 111


LINK/LOCATE RUN COMPLETE.  0 WARNING(S),  0 ERROR(S)
