BL51 BANKED LINKER/LOCATER V6.22                                                        07/01/2013  09:38:04  PAGE 1


BL51 BANKED LINKER/LOCATER V6.22, INVOKED BY:
C:\KEIL\C51\BIN\BL51.EXE .\obj\STARTUP.obj, .\obj\AdcDrv.obj, .\obj\AngApp.obj, .\obj\Calibration.obj, .\obj\CmdSub.obj,
>>  .\obj\Comm.obj, .\obj\Delay.obj, .\obj\Filter.obj, .\obj\Flash.obj, .\obj\Init.obj, .\obj\Key.obj, .\obj\Main.obj, .
>> \obj\ModBusCrc.obj, .\obj\ModBusRtu.obj, .\obj\Send.obj, .\obj\Sensor.obj, .\obj\Sub.obj, .\obj\Timer.obj TO .\obj\16
>> 4-0001-20130619 PRINT (.\lst\164-0001-20130619.m51) RAMSIZE (256)


MEMORY MODEL: SMALL WITH FLOATING POINT ARITHMETIC


INPUT MODULES INCLUDED:
  .\obj\STARTUP.obj (?C_STARTUP)
  .\obj\AdcDrv.obj (ADCDRV)
  .\obj\AngApp.obj (ANGAPP)
  .\obj\Calibration.obj (CALIBRATION)
  .\obj\CmdSub.obj (CMDSUB)
  .\obj\Comm.obj (COMM)
  .\obj\Delay.obj (DELAY)
  .\obj\Filter.obj (FILTER)
  .\obj\Flash.obj (FLASH)
  .\obj\Init.obj (INIT)
  .\obj\Key.obj (KEY)
  .\obj\Main.obj (MAIN)
  .\obj\ModBusCrc.obj (MODBUSCRC)
  .\obj\ModBusRtu.obj (MODBUSRTU)
  .\obj\Send.obj (SEND)
  .\obj\Sensor.obj (SENSOR)
  .\obj\Sub.obj (SUB)
  .\obj\Timer.obj (TIMER)
  C:\KEIL\C51\LIB\C51FPS.LIB (?C?FPADD)
  C:\KEIL\C51\LIB\C51FPS.LIB (?C?FPMUL)
  C:\KEIL\C51\LIB\C51FPS.LIB (?C?FPDIV)
  C:\KEIL\C51\LIB\C51FPS.LIB (?C?FPCMP)
  C:\KEIL\C51\LIB\C51FPS.LIB (?C?FCAST)
  C:\KEIL\C51\LIB\C51FPS.LIB (?C?CASTF)
  C:\KEIL\C51\LIB\C51FPS.LIB (SQRT)
  C:\KEIL\C51\LIB\C51FPS.LIB (SIN)
  C:\KEIL\C51\LIB\C51FPS.LIB (ASIN)
  C:\KEIL\C51\LIB\C51FPS.LIB (?C?FPGETOPN)
  C:\KEIL\C51\LIB\C51FPS.LIB (?C?FPSERIES)
  C:\KEIL\C51\LIB\C51FPS.LIB (ATAN)
  C:\KEIL\C51\LIB\C51S.LIB (?C_INIT)
  C:\KEIL\C51\LIB\C51S.LIB (?C?CLDPTR)
  C:\KEIL\C51\LIB\C51S.LIB (?C?CLDOPTR)
  C:\KEIL\C51\LIB\C51S.LIB (?C?CILDPTR)
  C:\KEIL\C51\LIB\C51S.LIB (?C?CSTPTR)
  C:\KEIL\C51\LIB\C51S.LIB (?C?CSTOPTR)
  C:\KEIL\C51\LIB\C51S.LIB (?C?IMUL)
  C:\KEIL\C51\LIB\C51S.LIB (?C?UIDIV)
  C:\KEIL\C51\LIB\C51S.LIB (?C?SIDIV)
  C:\KEIL\C51\LIB\C51S.LIB (?C?IILDX)
  C:\KEIL\C51\LIB\C51S.LIB (?C?ILDPTR)
  C:\KEIL\C51\LIB\C51S.LIB (?C?ILDOPTR)
  C:\KEIL\C51\LIB\C51S.LIB (?C?IILDPTR)
  C:\KEIL\C51\LIB\C51S.LIB (?C?IILDOPTR)
  C:\KEIL\C51\LIB\C51S.LIB (?C?ISTPTR)
  C:\KEIL\C51\LIB\C51S.LIB (?C?ISTOPTR)
  C:\KEIL\C51\LIB\C51S.LIB (?C?LADD)
BL51 BANKED LINKER/LOCATER V6.22                                                      07/01/2013  09:38:04  PAGE 2


  C:\KEIL\C51\LIB\C51S.LIB (?C?LSUB)
  C:\KEIL\C51\LIB\C51S.LIB (?C?LMUL)
  C:\KEIL\C51\LIB\C51S.LIB (?C?ULDIV)
  C:\KEIL\C51\LIB\C51S.LIB (?C?SLDIV)
  C:\KEIL\C51\LIB\C51S.LIB (?C?LNEG)
  C:\KEIL\C51\LIB\C51S.LIB (?C?SLCMP)
  C:\KEIL\C51\LIB\C51S.LIB (?C?ULCMP)
  C:\KEIL\C51\LIB\C51S.LIB (?C?ULSHR)
  C:\KEIL\C51\LIB\C51S.LIB (?C?LSHL)
  C:\KEIL\C51\LIB\C51S.LIB (?C?LLDPTR)
  C:\KEIL\C51\LIB\C51S.LIB (?C?LLDOPTR)
  C:\KEIL\C51\LIB\C51S.LIB (?C?LSTPTR)
  C:\KEIL\C51\LIB\C51S.LIB (?C?LSTOPTR)
  C:\KEIL\C51\LIB\C51S.LIB (?C?LLDXDATA)
  C:\KEIL\C51\LIB\C51S.LIB (?C?LLDCODE)
  C:\KEIL\C51\LIB\C51S.LIB (?C?LLDXDATA0)
  C:\KEIL\C51\LIB\C51S.LIB (?C?LLDCODE0)
  C:\KEIL\C51\LIB\C51S.LIB (?C?LLDOPTR0)
  C:\KEIL\C51\LIB\C51S.LIB (?C?LSTXDATA)
  C:\KEIL\C51\LIB\C51S.LIB (?C?LSTKXDATA)
  C:\KEIL\C51\LIB\C51S.LIB (?C?LSTKOPTR)
  C:\KEIL\C51\LIB\C51S.LIB (?C?OFFXADD)
  C:\KEIL\C51\LIB\C51S.LIB (?C?PLDIIDATA)
  C:\KEIL\C51\LIB\C51S.LIB (?C?PLDXDATA)
  C:\KEIL\C51\LIB\C51S.LIB (?C?PSTXDATA)
  C:\KEIL\C51\LIB\C51S.LIB (?C?PLDOPTR)
  C:\KEIL\C51\LIB\C51S.LIB (?C?PLDIOPTR)
  C:\KEIL\C51\LIB\C51S.LIB (?C?PSTOPTR)
  C:\KEIL\C51\LIB\C51S.LIB (?C?CCASE)
  C:\KEIL\C51\LIB\C51S.LIB (?C?ICASE)
  C:\KEIL\C51\LIB\C51S.LIB (?C?ICALL)
  C:\KEIL\C51\LIB\C51S.LIB (STRNCMP)
  C:\KEIL\C51\LIB\C51S.LIB (STRNCPY)
  C:\KEIL\C51\LIB\C51S.LIB (?C?LLDIDATA)
  C:\KEIL\C51\LIB\C51S.LIB (?C?LLDPDATA)
  C:\KEIL\C51\LIB\C51S.LIB (?C?LLDIDATA0)
  C:\KEIL\C51\LIB\C51S.LIB (?C?LLDPDATA0)
  C:\KEIL\C51\LIB\C51S.LIB (?C?LSTIDATA)
  C:\KEIL\C51\LIB\C51S.LIB (?C?LSTPDATA)
  C:\KEIL\C51\LIB\C51S.LIB (?C?LSTKIDATA)
  C:\KEIL\C51\LIB\C51S.LIB (?C?LSTKPDATA)
  C:\KEIL\C51\LIB\C51S.LIB (?C?PLDIDATA)
  C:\KEIL\C51\LIB\C51S.LIB (?C?PSTIDATA)
  C:\KEIL\C51\LIB\C51S.LIB (?C?PLDIXDATA)
  C:\KEIL\C51\LIB\C51S.LIB (?C?PLDPDATA)
  C:\KEIL\C51\LIB\C51S.LIB (?C?PLDIPDATA)
  C:\KEIL\C51\LIB\C51S.LIB (?C?PSTPDATA)
  C:\KEIL\C51\LIB\C51S.LIB (?C?PLDCODE)


LINK MAP OF MODULE:  .\obj\164-0001-20130619 (?C_STARTUP)


            TYPE    BASE      LENGTH    RELOCATION   SEGMENT NAME
            -----------------------------------------------------

            * * * * * * *   D A T A   M E M O R Y   * * * * * * *
BL51 BANKED LINKER/LOCATER V6.22                                                      07/01/2013  09:38:04  PAGE 3


            REG     0000H     0008H     ABSOLUTE     "REG BANK 0"
            DATA    0008H     000AH     UNIT         ?DT?SEND
            DATA    0012H     0004H     UNIT         ?DT?CMDSUB
            DATA    0016H     0001H     UNIT         ?DT?KEY
            DATA    0017H     0001H     UNIT         ?DT?TIMER
            IDATA   0018H     0003H     UNIT         ?ID?ADCDRV
                    001BH     0005H                  *** GAP ***
            BIT     0020H.0   0000H.2   UNIT         ?BI?COMM
            BIT     0020H.2   0000H.2   UNIT         _BIT_GROUP_
                    0020H.4   0000H.4                *** GAP ***
            DATA    0021H     0055H     UNIT         _DATA_GROUP_
            IDATA   0076H     0001H     UNIT         ?STACK

            * * * * * * *  X D A T A   M E M O R Y  * * * * * * *
            XDATA   0000H     04B0H     UNIT         ?XD?CALIBRATION
            XDATA   04B0H     0200H     UNIT         ?XD?FLASH
            XDATA   06B0H     01A2H     UNIT         ?XD?COMM
            XDATA   0852H     019EH     UNIT         ?XD?ADCDRV
            XDATA   09F0H     00C9H     UNIT         ?XD?SEND
            XDATA   0AB9H     0041H     UNIT         ?XD?SENSOR
            XDATA   0AFAH     0038H     UNIT         ?XD?ANGAPP
            XDATA   0B32H     0018H     UNIT         ?XD?CMDSUB
            XDATA   0B4AH     000DH     UNIT         ?XD?MODBUSRTU
            XDATA   0B57H     0008H     UNIT         _XDATA_GROUP_
            XDATA   0B5FH     0005H     UNIT         ?XD?MAIN
            XDATA   0B64H     0002H     UNIT         ?XD?KEY
            XDATA   0B66H     0002H     UNIT         ?XD?TIMER

            * * * * * * *   C O D E   M E M O R Y   * * * * * * *
            CODE    0000H     0003H     ABSOLUTE     
            CODE    0003H     0020H     UNIT         ?PR?_SEND_TDEAL?SEND
            CODE    0023H     0003H     ABSOLUTE     
            CODE    0026H     0004H     UNIT         ?PR?ADC_ENABLE?ADCDRV
                    002AH     0001H                  *** GAP ***
            CODE    002BH     0003H     ABSOLUTE     
            CODE    002EH     001DH     UNIT         ?PR?COMM_TIMERPROC?COMM
            CODE    004BH     0003H     ABSOLUTE     
            CODE    004EH     0B99H     UNIT         ?C?LIB_CODE
            CODE    0BE7H     0B7AH     UNIT         ?PR?_MODRTU_RDVAL?MODBUSRTU
            CODE    1761H     091EH     UNIT         ?PR?_SEND_SDEAL?SEND
            CODE    207FH     08B1H     UNIT         ?PR?_MODRTU_WRVAL?MODBUSRTU
            CODE    2930H     0285H     UNIT         ?PR?_RAM_CALDATA2BUF?FLASH
            CODE    2BB5H     0258H     UNIT         ?CO?SEND
            CODE    2E0DH     0224H     UNIT         ?PR?_RAM_BUF2CALDATA?FLASH
            CODE    3031H     0219H     UNIT         ?PR?_SEND_RDEAL?SEND
            CODE    324AH     0203H     UNIT         ?PR?_SEND_CDEAL?SEND
            CODE    344DH     0200H     UNIT         ?CO?MODBUSCRC
            CODE    364DH     018EH     UNIT         ?PR?_SUB_STR2INT32S?SUB
            CODE    37DBH     0183H     UNIT         ?PR?ANGPROC?ANGAPP
            CODE    395EH     017CH     UNIT         ?PR?_ANG_CALCPRM?CALIBRATION
            CODE    3ADAH     016EH     UNIT         ?PR?SIN?SIN
            CODE    3C48H     0162H     UNIT         ?PR?_SUB_INT32S2STR?SUB
            CODE    3DAAH     012CH     UNIT         ?PR?_TEMP_CALCPRM?CALIBRATION
            CODE    3ED6H     0128H     UNIT         ?PR?ATAN?ATAN
            CODE    3FFEH     0118H     UNIT         ?PR?SEND_TIMEPROC?SEND
            CODE    4116H     010BH     UNIT         ?PR?ANGCALDATAINIT?CALIBRATION
            CODE    4221H     0103H     UNIT         ?PR?_MODRTU_WRREG?MODBUSRTU
BL51 BANKED LINKER/LOCATER V6.22                                                      07/01/2013  09:38:04  PAGE 4


            CODE    4324H     0102H     UNIT         ?PR?FLASH_CALDATAINIT?FLASH
            CODE    4426H     0100H     UNIT         ?PR?_SEND_WDEAL?SEND
            CODE    4526H     00EDH     UNIT         ?PR?_MODRTU_RDREG?MODBUSRTU
            CODE    4613H     00E8H     UNIT         ?PR?_TEMP_CALTREFSET?CMDSUB
            CODE    46FBH     00E4H     UNIT         ?PR?CALIBINIT?CALIBRATION
            CODE    47DFH     00DFH     UNIT         ?PR?_SUB_SENDTEMPCAL?SUB
            CODE    48BEH     00DBH     UNIT         ?PR?_SLIDEWINFILTER?FILTER
            CODE    4999H     00DAH     UNIT         ?PR?_ADC_XCALPROC?CMDSUB
            CODE    4A73H     00DAH     UNIT         ?PR?_ADC_YCALPROC?CMDSUB
            CODE    4B4DH     00D8H     UNIT         ?PR?_PANGCALC?ANGAPP
            CODE    4C25H     00BFH     UNIT         ?PR?_SUB_STR2INT16U?SUB
            CODE    4CE4H     00B7H     UNIT         ?PR?_GETOFFSET?SENSOR
            CODE    4D9BH     00B0H     UNIT         ?PR?_SUB_INT16U2STR?SUB
            CODE    4E4BH     00AAH     UNIT         ?PR?SQRT?SQRT
            CODE    4EF5H     00A7H     UNIT         ?PR?_ANG_CALC?SENSOR
            CODE    4F9CH     00A5H     UNIT         ?PR?_COMM_GETTXCHAR?COMM
            CODE    5041H     00A4H     UNIT         ?PR?_COMM_GETCHAR?COMM
            CODE    50E5H     00A1H     UNIT         ?PR?_GETANGCALCVAL?SENSOR
            CODE    5186H     0099H     UNIT         ?PR?ANGINIT?ANGAPP
            CODE    521FH     008FH     UNIT         ?PR?COMM_SOFTWAREINIT?COMM
            CODE    52AEH     008DH     UNIT         ?PR?_FLOATTOINT?MODBUSRTU
            CODE    533BH     008CH     UNIT         ?C_C51STARTUP
            CODE    53C7H     008CH     UNIT         ?PR?_COMM_PUTCHAR?COMM
            CODE    5453H     008BH     UNIT         ?PR?ADC_ISR?ADCDRV
            CODE    54DEH     008BH     UNIT         ?PR?SNPROC?SENSOR
            CODE    5569H     0087H     UNIT         ?PR?ADC_XCALSTOP?CMDSUB
            CODE    55F0H     0087H     UNIT         ?PR?ADC_YCALSTOP?CMDSUB
            CODE    5677H     0085H     UNIT         ?PR?_ADCFILTER?ADCDRV
            CODE    56FCH     0084H     UNIT         ?PR?_COMM_PUTRXCHAR?COMM
            CODE    5780H     0080H     UNIT         ?PR?_SNFILTER?SENSOR
            CODE    5800H     0076H     UNIT         ?PR?_TEMP_CALVALWR?CMDSUB
            CODE    5876H     0075H     UNIT         ?PR?_SUB_BUFBUBBLE2?SUB
            CODE    58EBH     0072H     UNIT         ?PR?COMM_ISR?COMM
            CODE    595DH     0070H     UNIT         ?PR?TEMPSORTANDCALCPRM?CMDSUB
            CODE    59CDH     006FH     UNIT         ?PR?_STRNCMP?STRNCMP
            CODE    5A3CH     006EH     UNIT         ?PR?SNINIT?SENSOR
            CODE    5AAAH     0069H     UNIT         ?PR?_SN_DATAINIT?SENSOR
            CODE    5B13H     0069H     UNIT         ?PR?_SUB_BUFBUBBLE?SUB
            CODE    5B7CH     0068H     UNIT         ?PR?_ADC_SAVEANDSWITCH?ADCDRV
            CODE    5BE4H     0068H     UNIT         ?PR?_ANGCHKDIFF?CMDSUB
            CODE    5C4CH     0066H     UNIT         ?PR?_TEMP_CALSAMP?CMDSUB
            CODE    5CB2H     0065H     UNIT         ?PR?_FLASH_BUFWR?FLASH
            CODE    5D17H     0065H     UNIT         ?PR?_SEND_UDEAL?SEND
            CODE    5D7CH     0065H     UNIT         ?PR?SUB_SENDPRMTALL?SUB
            CODE    5DE1H     005DH     UNIT         ?PR?_FILTER_1ST?FILTER
            CODE    5E3EH     005CH     UNIT         ?PR?TEMPCALDATAINIT?CALIBRATION
            CODE    5E9AH     005BH     UNIT         ?PR?SUB_SENDTCALTEST?SUB
            CODE    5EF5H     005AH     UNIT         ?PR?_SUB_STR2INT16S?SUB
            CODE    5F4FH     0057H     UNIT         ?PR?_FLASH_BUFRD?FLASH
            CODE    5FA6H     0056H     UNIT         ?PR?FLASHAREA_USER?FLASH
            CODE    5FFCH     0056H     UNIT         ?PR?_SUB_SBUFSWITCH?SUB
            CODE    6052H     0054H     UNIT         ?PR?_SUB_SENDANGXCAL?SUB
            CODE    60A6H     0052H     UNIT         ?PR?_STRNCPY?STRNCPY
            CODE    60F8H     0050H     UNIT         ?PR?RAM_CALDATAINIT_USER?FLASH
            CODE    6148H     004FH     UNIT         ?PR?_FLASH_CALDATAUPDATE_USER?FLASH
            CODE    6197H     004FH     UNIT         ?PR?INIT_SYSTEMPARA?INIT
            CODE    61E6H     004FH     UNIT         ?CO?SUB
BL51 BANKED LINKER/LOCATER V6.22                                                      07/01/2013  09:38:04  PAGE 5


            CODE    6235H     004CH     UNIT         ?PR?GETXANGALLSETVAL?ANGAPP
            CODE    6281H     004CH     UNIT         ?PR?GETYANGALLSETVAL?ANGAPP
            CODE    62CDH     004CH     UNIT         ?PR?_SUB_16SBUFSWITCH?SUB
            CODE    6319H     004CH     UNIT         ?PR?_SUB_UBUFSWITCH?SUB
            CODE    6365H     004AH     UNIT         ?PR?ADCENTITYINIT?ADCDRV
            CODE    63AFH     0048H     UNIT         ?PR?_SUB_SENDADCTXY?SUB
            CODE    63F7H     0048H     UNIT         ?PR?_SUB_SENDANGYCAL?SUB
            CODE    643FH     0045H     UNIT         ?PR?_MODRTU_RLYERROR?MODBUSRTU
            CODE    6484H     0044H     UNIT         ?C?LDIV
            CODE    64C8H     0043H     UNIT         ?PR?FLASH_CALDATAUPDATE?FLASH
            CODE    650BH     0043H     UNIT         ?PR?KEY_DOWN?KEY
            CODE    654EH     003FH     UNIT         ?PR?SUB_SENDANGXYP?SUB
            CODE    658DH     003DH     UNIT         ?PR?TIMER2_ISR?TIMER
            CODE    65CAH     003CH     UNIT         ?PR?_MODRTU_RXPROC?MODBUSRTU
            CODE    6606H     003CH     UNIT         ?PR?SUB_SENDID?SUB
            CODE    6642H     003CH     UNIT         ?PR?_SUB_STR2INT8U?SUB
            CODE    667EH     003BH     UNIT         ?PR?ASIN?ASIN
            CODE    66B9H     0038H     UNIT         ?PR?TIMER2_INIT?TIMER
            CODE    66F1H     0037H     UNIT         ?PR?_FLASH_CHECKSUM?FLASH
            CODE    6728H     0036H     UNIT         ?PR?TIMER2_TASKINISR?TIMER
            CODE    675EH     0035H     UNIT         ?PR?_MODBUSCRCCNT?MODBUSCRC
            CODE    6793H     0034H     UNIT         ?PR?MAIN?MAIN
            CODE    67C7H     0034H     UNIT         ?PR?_COMM_PUTINT16S?SUB
            CODE    67FBH     0033H     UNIT         ?PR?_MODRTU_SETZERO?MODBUSRTU
            CODE    682EH     0032H     UNIT         ?PR?_FLASHUPDATE?FLASH
            CODE    6860H     002FH     UNIT         ?C_INITSEG
            CODE    688FH     002FH     UNIT         ?PR?_SUB_STRALARMCHECK?SUB
            CODE    68BEH     002EH     UNIT         ?PR?ADC_SETINIT?ADCDRV
            CODE    68ECH     002EH     UNIT         ?PR?GETANGP?ANGAPP
            CODE    691AH     002BH     UNIT         ?PR?SUB_SENDANGXY?SUB
            CODE    6945H     0029H     UNIT         ?PR?_FLASH_PAGEERASE?FLASH
            CODE    696EH     0028H     UNIT         ?PR?KEY_PROC?KEY
            CODE    6996H     0028H     UNIT         ?PR?_MODRTU_WRADDR?MODBUSRTU
            CODE    69BEH     0025H     UNIT         ?PR?_MODRTU_WRBAUD?MODBUSRTU
            CODE    69E3H     0024H     UNIT         ?PR?_SETANGZERO?ANGAPP
            CODE    6A07H     0024H     UNIT         ?PR?_VALINRANGE?FILTER
            CODE    6A2BH     0023H     UNIT         ?PR?SYS_PORTINIT?INIT
            CODE    6A4EH     0022H     UNIT         ?PR?_SUB_INT16S2STR?SUB
            CODE    6A70H     0021H     UNIT         ?PR?_COMM_PUTSTR?COMM
            CODE    6A91H     0021H     UNIT         ?PR?_MODRTU_WR16U?MODBUSRTU
            CODE    6AB2H     0020H     UNIT         ?PR?_SUB_INT8U2STR?SUB
            CODE    6AD2H     001EH     UNIT         ?PR?_SETANGZEROADD?ANGAPP
            CODE    6AF0H     001EH     UNIT         ?PR?_ALARMX?ANGAPP
            CODE    6B0EH     001EH     UNIT         ?PR?_ALARMY?ANGAPP
            CODE    6B2CH     001EH     UNIT         ?PR?_ALARMS?ANGAPP
            CODE    6B4AH     001EH     UNIT         ?PR?COMM_HARDWAREINIT?COMM
            CODE    6B68H     001CH     UNIT         ?PR?_COMM_PUTINT16U?SUB
            CODE    6B84H     001CH     UNIT         ?PR?SUB_SENDSYSNUM?SUB
            CODE    6BA0H     001BH     UNIT         ?PR?INIT_ALL?INIT
            CODE    6BBBH     001BH     UNIT         ?PR?SNXDATAINIT?SENSOR
            CODE    6BD6H     001BH     UNIT         ?PR?SNYDATAINIT?SENSOR
            CODE    6BF1H     001AH     UNIT         ?CO?ADCDRV
            CODE    6C0BH     0019H     UNIT         ?PR?SYS_CLKINIT?INIT
            CODE    6C24H     0018H     UNIT         ?PR?FLASH_USERDATAUPDATE?FLASH
            CODE    6C3CH     0017H     UNIT         ?PR?_TEMP_RDTEMPVAL?CALIBRATION
            CODE    6C53H     0017H     UNIT         ?PR?_TEMP_WRTEMPVAL?CALIBRATION
            CODE    6C6AH     0017H     UNIT         ?PR?ADC_XCALSTA?CMDSUB
BL51 BANKED LINKER/LOCATER V6.22                                                      07/01/2013  09:38:04  PAGE 6


            CODE    6C81H     0017H     UNIT         ?PR?ADC_YCALSTA?CMDSUB
            CODE    6C98H     0017H     UNIT         ?PR?_DELAY_MS?DELAY
            CODE    6CAFH     0016H     UNIT         ?PR?TEMP_CALSTOP?CMDSUB
            CODE    6CC5H     0016H     UNIT         ?PR?_MODRTU_CHKCRC?MODBUSRTU
            CODE    6CDBH     0016H     UNIT         ?PR?_COMM_PUTINT8U?SUB
            CODE    6CF1H     0015H     UNIT         ?PR?_SETTEMPXCALTEMPVAL?CALIBRATION
            CODE    6D06H     0015H     UNIT         ?PR?_SETTEMPYCALTEMPVAL?CALIBRATION
            CODE    6D1BH     0015H     UNIT         ?PR?_SETTEMPXCALADCVAL?CALIBRATION
            CODE    6D30H     0015H     UNIT         ?PR?_SETANGXCALADCVAL?CALIBRATION
            CODE    6D45H     0015H     UNIT         ?PR?_SETTEMPYCALADCVAL?CALIBRATION
            CODE    6D5AH     0015H     UNIT         ?PR?_SETANGYCALADCVAL?CALIBRATION
            CODE    6D6FH     0014H     UNIT         ?PR?_COMM_PUTINT32S?SUB
            CODE    6D83H     0012H     UNIT         ?PR?TEMP_CALSTA?CMDSUB
            CODE    6D95H     0012H     UNIT         ?PR?_SNXFILTER?SENSOR
            CODE    6DA7H     0012H     UNIT         ?PR?_SNYFILTER?SENSOR
            CODE    6DB9H     0012H     UNIT         ?PR?TIMER2_TASKINMAIN?TIMER
            CODE    6DCBH     0011H     UNIT         ?PR?_TEMP_RDADCVAL?CALIBRATION
            CODE    6DDCH     0011H     UNIT         ?PR?_TEMP_WRADCVAL?CALIBRATION
            CODE    6DEDH     0011H     UNIT         ?PR?_ANG_RDADCVAL?CALIBRATION
            CODE    6DFEH     0011H     UNIT         ?PR?_ANG_WRADCVAL?CALIBRATION
            CODE    6E0FH     0011H     UNIT         ?PR?SUB_SENDOK?SUB
            CODE    6E20H     0011H     UNIT         ?PR?SUB_SENDERR?SUB
            CODE    6E31H     0011H     UNIT         ?PR?SUB_SENDSOFTVER?SUB
            CODE    6E42H     000FH     UNIT         ?PR?DELAY_100US?DELAY
            CODE    6E51H     000FH     UNIT         ?PR?GET_MCUTEMP?SENSOR
            CODE    6E60H     000EH     UNIT         ?PR?_ANG_RDANGVAL?CALIBRATION
            CODE    6E6EH     000EH     UNIT         ?PR?_ANG_WRANGVAL?CALIBRATION
            CODE    6E7CH     000EH     UNIT         ?PR?FLASHCHK?FLASH
            CODE    6E8AH     000DH     UNIT         ?PR?_SETANGXSET?ANGAPP
            CODE    6E97H     000DH     UNIT         ?PR?_SETANGYSET?ANGAPP
            CODE    6EA4H     000DH     UNIT         ?PR?_SETANGPSET?ANGAPP
            CODE    6EB1H     000DH     UNIT         ?PR?_MODRTU_RD16U?MODBUSRTU
            CODE    6EBEH     000CH     UNIT         ?PR?ADC_INIT?ADCDRV
            CODE    6ECAH     000CH     UNIT         ?PR?_GETTEMPXCALTEMPVAL?CALIBRATION
            CODE    6ED6H     000CH     UNIT         ?PR?_GETANGXCALANGVAL?CALIBRATION
            CODE    6EE2H     000CH     UNIT         ?PR?_GETTEMPYCALTEMPVAL?CALIBRATION
            CODE    6EEEH     000CH     UNIT         ?PR?_GETANGYCALANGVAL?CALIBRATION
            CODE    6EFAH     000CH     UNIT         ?PR?_GETTEMPXCALADCVAL?CALIBRATION
            CODE    6F06H     000CH     UNIT         ?PR?_GETANGXCALADCVAL?CALIBRATION
            CODE    6F12H     000CH     UNIT         ?PR?_GETTEMPYCALADCVAL?CALIBRATION
            CODE    6F1EH     000CH     UNIT         ?PR?_GETANGYCALADCVAL?CALIBRATION
            CODE    6F2AH     000CH     UNIT         ?PR?_SETANGXCALANGVAL?CALIBRATION
            CODE    6F36H     000CH     UNIT         ?PR?_SETANGYCALANGVAL?CALIBRATION
            CODE    6F42H     000CH     UNIT         ?PR?_MODRTU_8TO16?MODBUSRTU
            CODE    6F4EH     000BH     UNIT         ?PR?_SETTEMPXCALCNT?CALIBRATION
            CODE    6F59H     000BH     UNIT         ?PR?_SETANGXCALCNT?CALIBRATION
            CODE    6F64H     000BH     UNIT         ?PR?_SETTEMPYCALCNT?CALIBRATION
            CODE    6F6FH     000BH     UNIT         ?PR?_SETANGYCALCNT?CALIBRATION
            CODE    6F7AH     000BH     UNIT         ?PR?_DELAY_CYC?DELAY
            CODE    6F85H     000BH     UNIT         ?PR?_MODRTU_WRCRC?MODBUSRTU
            CODE    6F90H     000BH     UNIT         ?PR?SUB_SYSRST?SUB
            CODE    6F9BH     000AH     UNIT         ?PR?COMM_TIMERINIT?COMM
            CODE    6FA5H     000AH     UNIT         ?PR?DELAY_MS_?DELAY
            CODE    6FAFH     000AH     UNIT         ?PR?COMM_PUTNEWLINE?SUB
            CODE    6FB9H     0009H     UNIT         ?PR?ADC_GETXVAL?ADCDRV
            CODE    6FC2H     0009H     UNIT         ?PR?ADC_GETYVAL?ADCDRV
            CODE    6FCBH     0009H     UNIT         ?PR?ADC_GETTEMP?ADCDRV
BL51 BANKED LINKER/LOCATER V6.22                                                      07/01/2013  09:38:04  PAGE 7


            CODE    6FD4H     0009H     UNIT         ?PR?TEMPXCALCPRM?CALIBRATION
            CODE    6FDDH     0009H     UNIT         ?PR?TEMPYCALCPRM?CALIBRATION
            CODE    6FE6H     0009H     UNIT         ?PR?ANGXCALCPRM?CALIBRATION
            CODE    6FEFH     0009H     UNIT         ?PR?ANGYCALCPRM?CALIBRATION
            CODE    6FF8H     0009H     UNIT         ?CO?KEY
            CODE    7001H     0009H     UNIT         ?PR?ANGXCALC?SENSOR
            CODE    700AH     0009H     UNIT         ?PR?ANGYCALC?SENSOR
            CODE    7013H     0009H     UNIT         ?PR?GETXFTVAL?SENSOR
            CODE    701CH     0009H     UNIT         ?PR?GETYFTVAL?SENSOR
            CODE    7025H     0009H     UNIT         ?PR?GETXOFTVAL?SENSOR
            CODE    702EH     0009H     UNIT         ?PR?GETYOFTVAL?SENSOR
            CODE    7037H     0009H     UNIT         ?PR?_SUB_SENDOFFSET?SUB
            CODE    7040H     0008H     UNIT         ?PR?_SETTEMPCALCNT?CALIBRATION
            CODE    7048H     0008H     UNIT         ?PR?_SETANGCALCNT?CALIBRATION
            CODE    7050H     0008H     UNIT         ?PR?_GETXOFFSET?SENSOR
            CODE    7058H     0008H     UNIT         ?PR?_GETYOFFSET?SENSOR
            CODE    7060H     0007H     UNIT         ?PR?GETANGXSYSZERO?ANGAPP
            CODE    7067H     0007H     UNIT         ?PR?GETANGYSYSZERO?ANGAPP
            CODE    706EH     0007H     UNIT         ?PR?GETANGXUSRZERO?ANGAPP
            CODE    7075H     0007H     UNIT         ?PR?GETANGYUSRZERO?ANGAPP
            CODE    707CH     0007H     UNIT         ?PR?GETANGXINST?ANGAPP
            CODE    7083H     0007H     UNIT         ?PR?GETANGYINST?ANGAPP
            CODE    708AH     0007H     UNIT         ?PR?GETANGXSET?ANGAPP
            CODE    7091H     0007H     UNIT         ?PR?GETANGYSET?ANGAPP
            CODE    7098H     0007H     UNIT         ?PR?GETANGPSET?ANGAPP
            CODE    709FH     0007H     UNIT         ?PR?GETANGXZEROUSR?ANGAPP
            CODE    70A6H     0007H     UNIT         ?PR?GETANGYZEROUSR?ANGAPP
            CODE    70ADH     0007H     UNIT         ?PR?GETANGXRELSYS?ANGAPP
            CODE    70B4H     0007H     UNIT         ?PR?GETANGYRELSYS?ANGAPP
            CODE    70BBH     0007H     UNIT         ?PR?MAIN_TEMP?MAIN
            CODE    70C2H     0007H     UNIT         ?PR?GETXANG?SENSOR
            CODE    70C9H     0007H     UNIT         ?PR?GETYANG?SENSOR
            CODE    70D0H     0006H     UNIT         ?PR?_SETANGXSYSZERO?ANGAPP
            CODE    70D6H     0006H     UNIT         ?PR?_SETANGYSYSZERO?ANGAPP
            CODE    70DCH     0006H     UNIT         ?PR?_SETANGXUSRZERO?ANGAPP
            CODE    70E2H     0006H     UNIT         ?PR?_SETANGYUSRZERO?ANGAPP
            CODE    70E8H     0006H     UNIT         ?PR?_SETANGXINST?ANGAPP
            CODE    70EEH     0006H     UNIT         ?PR?_SETANGYINST?ANGAPP
            CODE    70F4H     0006H     UNIT         ?PR?GETTEMPXCALCNT?CALIBRATION
            CODE    70FAH     0006H     UNIT         ?PR?GETANGXCALCNT?CALIBRATION
            CODE    7100H     0006H     UNIT         ?PR?GETANGYCALCNT?CALIBRATION
            CODE    7106H     0006H     UNIT         ?PR?COMM_SENDSTA?COMM
            CODE    710CH     0006H     UNIT         ?PR?RAM_CALDATAINIT?FLASH
            CODE    7112H     0006H     UNIT         ?PR?GETFILTERCNT?SENSOR
            CODE    7118H     0006H     UNIT         ?PR?_SETFILTERCNT?SENSOR
            CODE    711EH     0004H     UNIT         ?PR?ADC_VREFINIT?ADCDRV
            CODE    7122H     0004H     UNIT         ?PR?ADC_ISRINIT?ADCDRV
            CODE    7126H     0004H     UNIT         ?PR?_TEMP_SETCALCNT?CALIBRATION
            CODE    712AH     0004H     UNIT         ?PR?_ANG_SETCALCNT?CALIBRATION
            CODE    712EH     0004H     UNIT         ?PR?COMM_SENDSTOP?COMM



OVERLAY MAP OF MODULE:   .\obj\164-0001-20130619 (?C_STARTUP)


SEGMENT                                        BIT_GROUP          DATA_GROUP          XDATA_GROUP
BL51 BANKED LINKER/LOCATER V6.22                                                      07/01/2013  09:38:04  PAGE 8


  +--> CALLED SEGMENT                       START    LENGTH     START    LENGTH     START    LENGTH
---------------------------------------------------------------------------------------------------
?C_C51STARTUP                               -----    -----      -----    -----      -----    -----
  +--> ?PR?MAIN?MAIN
  +--> ?C_INITSEG

?PR?MAIN?MAIN                               -----    -----      -----    -----      -----    -----
  +--> ?PR?INIT_ALL?INIT
  +--> ?PR?FLASH_CALDATAINIT?FLASH
  +--> ?PR?MAIN_TEMP?MAIN
  +--> ?PR?_DELAY_MS?DELAY
  +--> ?PR?SNPROC?SENSOR
  +--> ?PR?TIMER2_TASKINMAIN?TIMER
  +--> ?PR?SEND_TIMEPROC?SEND
  +--> ?PR?KEY_PROC?KEY
  +--> ?PR?ANGPROC?ANGAPP

?PR?INIT_ALL?INIT                           -----    -----      -----    -----      -----    -----
  +--> ?PR?SYS_PORTINIT?INIT
  +--> ?PR?SYS_CLKINIT?INIT
  +--> ?PR?COMM_HARDWAREINIT?COMM
  +--> ?PR?COMM_SOFTWAREINIT?COMM
  +--> ?PR?TIMER2_INIT?TIMER
  +--> ?PR?INIT_SYSTEMPARA?INIT
  +--> ?PR?ANGINIT?ANGAPP
  +--> ?PR?ADC_INIT?ADCDRV
  +--> ?PR?ADC_ENABLE?ADCDRV

?PR?COMM_SOFTWAREINIT?COMM                  -----    -----      0021H    0003H      -----    -----

?PR?TIMER2_INIT?TIMER                       -----    -----      -----    -----      -----    -----
  +--> ?CO?SEND

?PR?INIT_SYSTEMPARA?INIT                    -----    -----      -----    -----      -----    -----
  +--> ?CO?SEND

?PR?ANGINIT?ANGAPP                          -----    -----      -----    -----      -----    -----
  +--> ?PR?SNINIT?SENSOR
  +--> ?PR?_SETANGXINST?ANGAPP
  +--> ?PR?_SETANGYINST?ANGAPP
  +--> ?PR?_SETANGXSYSZERO?ANGAPP
  +--> ?PR?_SETANGYSYSZERO?ANGAPP
  +--> ?PR?_SETANGXUSRZERO?ANGAPP
  +--> ?PR?_SETANGYUSRZERO?ANGAPP
  +--> ?PR?_SETANGXSET?ANGAPP
  +--> ?PR?_SETANGYSET?ANGAPP
  +--> ?PR?_SETANGPSET?ANGAPP

?PR?SNINIT?SENSOR                           -----    -----      -----    -----      -----    -----
  +--> ?PR?CALIBINIT?CALIBRATION
  +--> ?PR?_SETFILTERCNT?SENSOR
  +--> ?PR?SNXDATAINIT?SENSOR
  +--> ?PR?_SNXFILTER?SENSOR
  +--> ?PR?_GETXOFFSET?SENSOR
  +--> ?PR?ANGXCALC?SENSOR
  +--> ?PR?SNYDATAINIT?SENSOR
  +--> ?PR?_SNYFILTER?SENSOR
BL51 BANKED LINKER/LOCATER V6.22                                                      07/01/2013  09:38:04  PAGE 9


  +--> ?PR?_GETYOFFSET?SENSOR
  +--> ?PR?ANGYCALC?SENSOR

?PR?CALIBINIT?CALIBRATION                   -----    -----      -----    -----      -----    -----
  +--> ?PR?_SETTEMPXCALCNT?CALIBRATION
  +--> ?PR?_GETTEMPXCALTEMPVAL?CALIBRATION
  +--> ?PR?_GETTEMPXCALADCVAL?CALIBRATION
  +--> ?PR?_SETTEMPXCALTEMPVAL?CALIBRATION
  +--> ?PR?_SETTEMPXCALADCVAL?CALIBRATION
  +--> ?PR?_SETTEMPYCALCNT?CALIBRATION
  +--> ?PR?_GETTEMPYCALTEMPVAL?CALIBRATION
  +--> ?PR?_GETTEMPYCALADCVAL?CALIBRATION
  +--> ?PR?_SETTEMPYCALTEMPVAL?CALIBRATION
  +--> ?PR?_SETTEMPYCALADCVAL?CALIBRATION
  +--> ?PR?_SETANGXCALCNT?CALIBRATION
  +--> ?PR?_GETANGXCALANGVAL?CALIBRATION
  +--> ?PR?_GETANGXCALADCVAL?CALIBRATION
  +--> ?PR?_SETANGXCALANGVAL?CALIBRATION
  +--> ?PR?_SETANGXCALADCVAL?CALIBRATION
  +--> ?PR?_SETANGYCALCNT?CALIBRATION
  +--> ?PR?_GETANGYCALANGVAL?CALIBRATION
  +--> ?PR?_GETANGYCALADCVAL?CALIBRATION
  +--> ?PR?_SETANGYCALANGVAL?CALIBRATION
  +--> ?PR?_SETANGYCALADCVAL?CALIBRATION

?PR?_SETTEMPXCALCNT?CALIBRATION             -----    -----      -----    -----      -----    -----
  +--> ?PR?_TEMP_SETCALCNT?CALIBRATION

?PR?_GETTEMPXCALTEMPVAL?CALIBRATION         -----    -----      -----    -----      -----    -----
  +--> ?PR?_TEMP_RDTEMPVAL?CALIBRATION

?PR?_GETTEMPXCALADCVAL?CALIBRATION          -----    -----      -----    -----      -----    -----
  +--> ?PR?_TEMP_RDADCVAL?CALIBRATION

?PR?_SETTEMPXCALTEMPVAL?CALIBRATION         -----    -----      -----    -----      -----    -----
  +--> ?PR?_TEMP_WRTEMPVAL?CALIBRATION

?PR?_TEMP_WRTEMPVAL?CALIBRATION             -----    -----      0026H    0006H      -----    -----

?PR?_SETTEMPXCALADCVAL?CALIBRATION          -----    -----      -----    -----      -----    -----
  +--> ?PR?_TEMP_WRADCVAL?CALIBRATION

?PR?_TEMP_WRADCVAL?CALIBRATION              -----    -----      0026H    0006H      -----    -----

?PR?_SETTEMPYCALCNT?CALIBRATION             -----    -----      -----    -----      -----    -----
  +--> ?PR?_TEMP_SETCALCNT?CALIBRATION

?PR?_GETTEMPYCALTEMPVAL?CALIBRATION         -----    -----      -----    -----      -----    -----
  +--> ?PR?_TEMP_RDTEMPVAL?CALIBRATION

?PR?_GETTEMPYCALADCVAL?CALIBRATION          -----    -----      -----    -----      -----    -----
  +--> ?PR?_TEMP_RDADCVAL?CALIBRATION

?PR?_SETTEMPYCALTEMPVAL?CALIBRATION         -----    -----      -----    -----      -----    -----
  +--> ?PR?_TEMP_WRTEMPVAL?CALIBRATION

?PR?_SETTEMPYCALADCVAL?CALIBRATION          -----    -----      -----    -----      -----    -----
BL51 BANKED LINKER/LOCATER V6.22                                                      07/01/2013  09:38:04  PAGE 10


  +--> ?PR?_TEMP_WRADCVAL?CALIBRATION

?PR?_SETANGXCALCNT?CALIBRATION              -----    -----      -----    -----      -----    -----
  +--> ?PR?_ANG_SETCALCNT?CALIBRATION

?PR?_GETANGXCALANGVAL?CALIBRATION           -----    -----      -----    -----      -----    -----
  +--> ?PR?_ANG_RDANGVAL?CALIBRATION

?PR?_GETANGXCALADCVAL?CALIBRATION           -----    -----      -----    -----      -----    -----
  +--> ?PR?_ANG_RDADCVAL?CALIBRATION

?PR?_SETANGXCALANGVAL?CALIBRATION           -----    -----      0039H    0005H      -----    -----
  +--> ?PR?_ANG_WRANGVAL?CALIBRATION

?PR?_ANG_WRANGVAL?CALIBRATION               -----    -----      003EH    0008H      -----    -----

?PR?_SETANGXCALADCVAL?CALIBRATION           -----    -----      -----    -----      -----    -----
  +--> ?PR?_ANG_WRADCVAL?CALIBRATION

?PR?_ANG_WRADCVAL?CALIBRATION               -----    -----      0039H    0006H      -----    -----

?PR?_SETANGYCALCNT?CALIBRATION              -----    -----      -----    -----      -----    -----
  +--> ?PR?_ANG_SETCALCNT?CALIBRATION

?PR?_GETANGYCALANGVAL?CALIBRATION           -----    -----      -----    -----      -----    -----
  +--> ?PR?_ANG_RDANGVAL?CALIBRATION

?PR?_GETANGYCALADCVAL?CALIBRATION           -----    -----      -----    -----      -----    -----
  +--> ?PR?_ANG_RDADCVAL?CALIBRATION

?PR?_SETANGYCALANGVAL?CALIBRATION           -----    -----      0039H    0005H      -----    -----
  +--> ?PR?_ANG_WRANGVAL?CALIBRATION

?PR?_SETANGYCALADCVAL?CALIBRATION           -----    -----      -----    -----      -----    -----
  +--> ?PR?_ANG_WRADCVAL?CALIBRATION

?PR?SNXDATAINIT?SENSOR                      -----    -----      -----    -----      -----    -----
  +--> ?PR?_SN_DATAINIT?SENSOR

?PR?_SN_DATAINIT?SENSOR                     -----    -----      0021H    0009H      -----    -----

?PR?_SNXFILTER?SENSOR                       -----    -----      -----    -----      -----    -----
  +--> ?PR?_SNFILTER?SENSOR

?PR?_SNFILTER?SENSOR                        -----    -----      0021H    0006H      -----    -----
  +--> ?PR?_VALINRANGE?FILTER
  +--> ?PR?_FILTER_1ST?FILTER

?PR?_FILTER_1ST?FILTER                      -----    -----      0027H    0007H      -----    -----

?PR?_GETXOFFSET?SENSOR                      -----    -----      -----    -----      -----    -----
  +--> ?PR?_GETOFFSET?SENSOR

?PR?_GETOFFSET?SENSOR                       -----    -----      0021H    0006H      -----    -----

?PR?ANGXCALC?SENSOR                         -----    -----      -----    -----      -----    -----
  +--> ?PR?_ANG_CALC?SENSOR
BL51 BANKED LINKER/LOCATER V6.22                                                      07/01/2013  09:38:04  PAGE 11



?PR?_ANG_CALC?SENSOR                        -----    -----      0021H    0007H      -----    -----
  +--> ?PR?_GETANGCALCVAL?SENSOR
  +--> ?PR?ASIN?ASIN

?PR?_GETANGCALCVAL?SENSOR                   -----    -----      0028H    0006H      -----    -----

?PR?ASIN?ASIN                               -----    -----      -----    -----      -----    -----
  +--> ?PR?SQRT?SQRT
  +--> ?PR?ATAN?ATAN

?PR?SQRT?SQRT                               -----    -----      004AH    0004H      -----    -----

?PR?ATAN?ATAN                               0020H.2  0000H.2    004AH    0004H      -----    -----

?PR?SNYDATAINIT?SENSOR                      -----    -----      -----    -----      -----    -----
  +--> ?PR?_SN_DATAINIT?SENSOR

?PR?_SNYFILTER?SENSOR                       -----    -----      -----    -----      -----    -----
  +--> ?PR?_SNFILTER?SENSOR

?PR?_GETYOFFSET?SENSOR                      -----    -----      -----    -----      -----    -----
  +--> ?PR?_GETOFFSET?SENSOR

?PR?ANGYCALC?SENSOR                         -----    -----      -----    -----      -----    -----
  +--> ?PR?_ANG_CALC?SENSOR

?PR?ADC_INIT?ADCDRV                         -----    -----      -----    -----      -----    -----
  +--> ?PR?ADC_SETINIT?ADCDRV
  +--> ?PR?ADC_VREFINIT?ADCDRV
  +--> ?PR?ADC_ISRINIT?ADCDRV
  +--> ?PR?ADCENTITYINIT?ADCDRV

?PR?FLASH_CALDATAINIT?FLASH                 -----    -----      0021H    0001H      -----    -----
  +--> ?PR?_FLASH_BUFRD?FLASH
  +--> ?PR?FLASHCHK?FLASH
  +--> ?PR?RAM_CALDATAINIT?FLASH
  +--> ?PR?FLASH_CALDATAUPDATE?FLASH
  +--> ?PR?_RAM_BUF2CALDATA?FLASH
  +--> ?PR?_FLASH_CHECKSUM?FLASH
  +--> ?PR?FLASHAREA_USER?FLASH
  +--> ?PR?_FLASH_CALDATAUPDATE_USER?FLASH
  +--> ?PR?GETANGXCALCNT?CALIBRATION
  +--> ?PR?GETANGYCALCNT?CALIBRATION
  +--> ?PR?ADC_XCALSTOP?CMDSUB
  +--> ?PR?ADC_YCALSTOP?CMDSUB
  +--> ?PR?TEMP_CALSTOP?CMDSUB
  +--> ?CO?SEND

?PR?_FLASH_BUFRD?FLASH                      0020H.2  0000H.1    0022H    0009H      -----    -----

?PR?RAM_CALDATAINIT?FLASH                   -----    -----      -----    -----      -----    -----
  +--> ?PR?ANGCALDATAINIT?CALIBRATION
  +--> ?PR?TEMPCALDATAINIT?CALIBRATION

?PR?ANGCALDATAINIT?CALIBRATION              -----    -----      -----    -----      -----    -----
  +--> ?PR?_SETANGCALCNT?CALIBRATION
BL51 BANKED LINKER/LOCATER V6.22                                                      07/01/2013  09:38:04  PAGE 12



?PR?_SETANGCALCNT?CALIBRATION               -----    -----      -----    -----      -----    -----
  +--> ?PR?_SETANGXCALCNT?CALIBRATION
  +--> ?PR?_SETANGYCALCNT?CALIBRATION

?PR?TEMPCALDATAINIT?CALIBRATION             -----    -----      0022H    0001H      -----    -----
  +--> ?PR?_SETTEMPCALCNT?CALIBRATION

?PR?_SETTEMPCALCNT?CALIBRATION              -----    -----      -----    -----      -----    -----
  +--> ?PR?_SETTEMPXCALCNT?CALIBRATION
  +--> ?PR?_SETTEMPYCALCNT?CALIBRATION

?PR?FLASH_CALDATAUPDATE?FLASH               -----    -----      -----    -----      -----    -----
  +--> ?PR?_RAM_CALDATA2BUF?FLASH
  +--> ?PR?_FLASHUPDATE?FLASH

?PR?_RAM_CALDATA2BUF?FLASH                  -----    -----      0042H    0006H      -----    -----
  +--> ?PR?_GETANGXCALANGVAL?CALIBRATION
  +--> ?PR?_GETANGYCALANGVAL?CALIBRATION
  +--> ?PR?_GETANGXCALADCVAL?CALIBRATION
  +--> ?PR?_GETANGYCALADCVAL?CALIBRATION
  +--> ?PR?_GETTEMPXCALTEMPVAL?CALIBRATION
  +--> ?PR?_GETTEMPXCALADCVAL?CALIBRATION
  +--> ?PR?_GETTEMPYCALADCVAL?CALIBRATION
  +--> ?PR?GETANGXCALCNT?CALIBRATION
  +--> ?PR?GETTEMPXCALCNT?CALIBRATION
  +--> ?PR?GETANGXSYSZERO?ANGAPP
  +--> ?PR?GETANGYSYSZERO?ANGAPP
  +--> ?PR?GETFILTERCNT?SENSOR
  +--> ?PR?GETANGXUSRZERO?ANGAPP
  +--> ?PR?GETANGYUSRZERO?ANGAPP
  +--> ?PR?GETANGXINST?ANGAPP
  +--> ?PR?GETANGYINST?ANGAPP
  +--> ?PR?GETANGXSET?ANGAPP
  +--> ?PR?GETANGYSET?ANGAPP
  +--> ?PR?GETANGPSET?ANGAPP
  +--> ?PR?_FLASH_CHECKSUM?FLASH

?PR?_FLASH_CHECKSUM?FLASH                   -----    -----      0048H    0005H      -----    -----

?PR?_FLASHUPDATE?FLASH                      0020H.2  0000H.1    0042H    0007H      -----    -----
  +--> ?PR?_FLASH_PAGEERASE?FLASH
  +--> ?PR?_DELAY_MS?DELAY
  +--> ?PR?_FLASH_BUFWR?FLASH

?PR?_FLASH_PAGEERASE?FLASH                  0020H.3  0000H.1    -----    -----      -----    -----

?PR?_DELAY_MS?DELAY                         -----    -----      -----    -----      -----    -----
  +--> ?PR?DELAY_MS_?DELAY

?PR?DELAY_MS_?DELAY                         -----    -----      -----    -----      -----    -----
  +--> ?PR?DELAY_100US?DELAY

?PR?_FLASH_BUFWR?FLASH                      0020H.3  0000H.1    0049H    000BH      -----    -----

?PR?_RAM_BUF2CALDATA?FLASH                  -----    -----      0022H    0004H      -----    -----
  +--> ?PR?_SETANGXCALANGVAL?CALIBRATION
BL51 BANKED LINKER/LOCATER V6.22                                                      07/01/2013  09:38:04  PAGE 13


  +--> ?PR?_SETANGYCALANGVAL?CALIBRATION
  +--> ?PR?_SETANGXCALADCVAL?CALIBRATION
  +--> ?PR?_SETANGYCALADCVAL?CALIBRATION
  +--> ?PR?_SETTEMPXCALTEMPVAL?CALIBRATION
  +--> ?PR?_SETTEMPXCALADCVAL?CALIBRATION
  +--> ?PR?_SETTEMPYCALADCVAL?CALIBRATION
  +--> ?PR?_SETANGCALCNT?CALIBRATION
  +--> ?PR?_SETTEMPCALCNT?CALIBRATION
  +--> ?PR?_SETANGXSYSZERO?ANGAPP
  +--> ?PR?_SETANGYSYSZERO?ANGAPP
  +--> ?PR?_SETFILTERCNT?SENSOR
  +--> ?PR?_SETANGXUSRZERO?ANGAPP
  +--> ?PR?_SETANGYUSRZERO?ANGAPP
  +--> ?PR?_SETANGXINST?ANGAPP
  +--> ?PR?_SETANGYINST?ANGAPP
  +--> ?PR?_SETANGXSET?ANGAPP
  +--> ?PR?_SETANGYSET?ANGAPP
  +--> ?PR?_SETANGPSET?ANGAPP

?PR?FLASHAREA_USER?FLASH                    -----    -----      -----    -----      -----    -----
  +--> ?PR?_FLASH_BUFRD?FLASH
  +--> ?PR?FLASHCHK?FLASH
  +--> ?PR?_FLASH_CHECKSUM?FLASH
  +--> ?PR?RAM_CALDATAINIT_USER?FLASH
  +--> ?PR?_FLASH_CALDATAUPDATE_USER?FLASH
  +--> ?PR?_RAM_BUF2CALDATA?FLASH

?PR?RAM_CALDATAINIT_USER?FLASH              -----    -----      -----    -----      -----    -----
  +--> ?PR?_SETANGXUSRZERO?ANGAPP
  +--> ?PR?_SETANGYUSRZERO?ANGAPP
  +--> ?PR?_SETANGXSET?ANGAPP
  +--> ?PR?_SETANGYSET?ANGAPP
  +--> ?PR?_SETANGPSET?ANGAPP
  +--> ?PR?_SETANGXINST?ANGAPP
  +--> ?PR?_SETANGYINST?ANGAPP
  +--> ?PR?INIT_SYSTEMPARA?INIT

?PR?_FLASH_CALDATAUPDATE_USER?FLASH         -----    -----      0039H    0009H      -----    -----
  +--> ?PR?_RAM_CALDATA2BUF?FLASH
  +--> ?PR?_FLASHUPDATE?FLASH

?PR?ADC_XCALSTOP?CMDSUB                     -----    -----      002CH    0001H      -----    -----
  +--> ?PR?_SUB_BUFBUBBLE?SUB
  +--> ?PR?ANGXCALCPRM?CALIBRATION

?PR?_SUB_BUFBUBBLE?SUB                      -----    -----      002DH    0009H      -----    -----
  +--> ?PR?_SUB_SBUFSWITCH?SUB
  +--> ?PR?_SUB_UBUFSWITCH?SUB

?PR?_SUB_SBUFSWITCH?SUB                     -----    -----      0036H    0009H      -----    -----

?PR?_SUB_UBUFSWITCH?SUB                     -----    -----      003DH    0007H      -----    -----

?PR?ANGXCALCPRM?CALIBRATION                 -----    -----      -----    -----      -----    -----
  +--> ?PR?_ANG_CALCPRM?CALIBRATION

?PR?_ANG_CALCPRM?CALIBRATION                -----    -----      002DH    000CH      -----    -----
BL51 BANKED LINKER/LOCATER V6.22                                                      07/01/2013  09:38:04  PAGE 14


  +--> ?PR?SIN?SIN

?PR?SIN?SIN                                 0020H.2  0000H.1    004AH    0004H      -----    -----

?PR?ADC_YCALSTOP?CMDSUB                     -----    -----      002CH    0001H      -----    -----
  +--> ?PR?_SUB_BUFBUBBLE?SUB
  +--> ?PR?ANGYCALCPRM?CALIBRATION

?PR?ANGYCALCPRM?CALIBRATION                 -----    -----      -----    -----      -----    -----
  +--> ?PR?_ANG_CALCPRM?CALIBRATION

?PR?TEMP_CALSTOP?CMDSUB                     -----    -----      -----    -----      -----    -----
  +--> ?PR?TEMPSORTANDCALCPRM?CMDSUB

?PR?TEMPSORTANDCALCPRM?CMDSUB               -----    -----      -----    -----      -----    -----
  +--> ?PR?_SUB_BUFBUBBLE2?SUB
  +--> ?PR?TEMPXCALCPRM?CALIBRATION
  +--> ?PR?TEMPYCALCPRM?CALIBRATION

?PR?_SUB_BUFBUBBLE2?SUB                     -----    -----      0031H    000CH      -----    -----
  +--> ?PR?_SUB_UBUFSWITCH?SUB
  +--> ?PR?_SUB_16SBUFSWITCH?SUB

?PR?_SUB_16SBUFSWITCH?SUB                   -----    -----      003DH    0007H      -----    -----

?PR?TEMPXCALCPRM?CALIBRATION                -----    -----      -----    -----      -----    -----
  +--> ?PR?_TEMP_CALCPRM?CALIBRATION

?PR?_TEMP_CALCPRM?CALIBRATION               -----    -----      0031H    0004H      -----    -----

?PR?TEMPYCALCPRM?CALIBRATION                -----    -----      -----    -----      -----    -----
  +--> ?PR?_TEMP_CALCPRM?CALIBRATION

?PR?SNPROC?SENSOR                           -----    -----      -----    -----      -----    -----
  +--> ?PR?ADC_GETXVAL?ADCDRV
  +--> ?PR?GET_MCUTEMP?SENSOR
  +--> ?PR?ADC_GETYVAL?ADCDRV

?PR?GET_MCUTEMP?SENSOR                      -----    -----      -----    -----      -----    -----
  +--> ?PR?ADC_GETTEMP?ADCDRV

?PR?TIMER2_TASKINMAIN?TIMER                 -----    -----      -----    -----      -----    -----
  +--> ?PR?SUB_SENDANGXY?SUB

?PR?SUB_SENDANGXY?SUB                       -----    -----      -----    -----      -----    -----
  +--> ?CO?SUB
  +--> ?PR?_COMM_PUTSTR?COMM
  +--> ?PR?GETXANGALLSETVAL?ANGAPP
  +--> ?PR?_COMM_PUTINT32S?SUB
  +--> ?PR?COMM_PUTNEWLINE?SUB
  +--> ?PR?GETYANGALLSETVAL?ANGAPP
  +--> ?PR?COMM_SENDSTA?COMM

?PR?_COMM_PUTSTR?COMM                       -----    -----      0039H    0003H      -----    -----
  +--> ?PR?_COMM_PUTCHAR?COMM

?PR?_COMM_PUTCHAR?COMM                      -----    -----      003CH    0003H      -----    -----
BL51 BANKED LINKER/LOCATER V6.22                                                      07/01/2013  09:38:04  PAGE 15



?PR?GETXANGALLSETVAL?ANGAPP                 -----    -----      003AH    0004H      -----    -----
  +--> ?PR?GETXANG?SENSOR
  +--> ?PR?_SETANGZERO?ANGAPP
  +--> ?PR?_SETANGZEROADD?ANGAPP

?PR?_SETANGZERO?ANGAPP                      -----    -----      003EH    0004H      -----    -----

?PR?_SETANGZEROADD?ANGAPP                   -----    -----      003EH    0004H      -----    -----

?PR?_COMM_PUTINT32S?SUB                     -----    -----      -----    -----      -----    -----
  +--> ?PR?_SUB_INT32S2STR?SUB
  +--> ?PR?_COMM_PUTSTR?COMM

?PR?_SUB_INT32S2STR?SUB                     -----    -----      002CH    0007H      -----    -----

?PR?COMM_PUTNEWLINE?SUB                     -----    -----      -----    -----      -----    -----
  +--> ?PR?_COMM_PUTCHAR?COMM

?PR?GETYANGALLSETVAL?ANGAPP                 -----    -----      003AH    0004H      -----    -----
  +--> ?PR?GETYANG?SENSOR
  +--> ?PR?_SETANGZERO?ANGAPP
  +--> ?PR?_SETANGZEROADD?ANGAPP

?PR?SEND_TIMEPROC?SEND                      -----    -----      -----    -----      -----    -----
  +--> ?PR?_COMM_GETCHAR?COMM
  +--> ?PR?_MODRTU_RXPROC?MODBUSRTU
  +--> ?PR?_SEND_RDEAL?SEND
  +--> ?PR?_SEND_CDEAL?SEND
  +--> ?PR?_SEND_SDEAL?SEND
  +--> ?PR?_SEND_UDEAL?SEND
  +--> ?PR?_SEND_WDEAL?SEND
  +--> ?PR?_SEND_TDEAL?SEND

?PR?_COMM_GETCHAR?COMM                      -----    -----      0021H    0006H      -----    -----

?PR?_MODRTU_RXPROC?MODBUSRTU                -----    -----      0021H    0004H      -----    -----
  +--> ?PR?_MODRTU_CHKCRC?MODBUSRTU
  +--> ?PR?_MODRTU_RDREG?MODBUSRTU
  +--> ?PR?_MODRTU_WRREG?MODBUSRTU
  +--> ?PR?_MODRTU_RLYERROR?MODBUSRTU

?PR?_MODRTU_CHKCRC?MODBUSRTU                -----    -----      -----    -----      -----    -----
  +--> ?PR?_MODBUSCRCCNT?MODBUSCRC

?PR?_MODBUSCRCCNT?MODBUSCRC                 -----    -----      0035H    0003H      -----    -----
  +--> ?CO?MODBUSCRC

?PR?_MODRTU_RDREG?MODBUSRTU                 -----    -----      0025H    000DH      -----    -----
  +--> ?PR?_MODRTU_8TO16?MODBUSRTU
  +--> ?PR?_MODRTU_RDVAL?MODBUSRTU
  +--> ?PR?_MODRTU_RLYERROR?MODBUSRTU
  +--> ?PR?_MODBUSCRCCNT?MODBUSCRC
  +--> ?PR?_MODRTU_WRCRC?MODBUSRTU
  +--> ?PR?_COMM_PUTSTR?COMM
  +--> ?PR?COMM_SENDSTA?COMM

BL51 BANKED LINKER/LOCATER V6.22                                                      07/01/2013  09:38:04  PAGE 16


?PR?_MODRTU_RDVAL?MODBUSRTU                 -----    -----      0032H    0008H      0B57H    0004H
  +--> ?PR?GETXANGALLSETVAL?ANGAPP
  +--> ?PR?GETYANGALLSETVAL?ANGAPP
  +--> ?PR?GETANGP?ANGAPP
  +--> ?PR?GETANGXINST?ANGAPP
  +--> ?PR?GETANGYINST?ANGAPP
  +--> ?PR?GETANGXSET?ANGAPP
  +--> ?PR?GETANGYSET?ANGAPP
  +--> ?PR?GETANGPSET?ANGAPP
  +--> ?PR?GET_MCUTEMP?SENSOR
  +--> ?PR?_GETTEMPXCALTEMPVAL?CALIBRATION
  +--> ?PR?_GETTEMPXCALADCVAL?CALIBRATION
  +--> ?PR?_GETTEMPYCALADCVAL?CALIBRATION
  +--> ?PR?GETXOFTVAL?SENSOR
  +--> ?PR?_FLOATTOINT?MODBUSRTU
  +--> ?PR?_GETANGXCALADCVAL?CALIBRATION
  +--> ?PR?_GETANGXCALANGVAL?CALIBRATION
  +--> ?PR?GETYOFTVAL?SENSOR
  +--> ?PR?_GETANGYCALADCVAL?CALIBRATION
  +--> ?PR?_GETANGYCALANGVAL?CALIBRATION
  +--> ?PR?GETXFTVAL?SENSOR
  +--> ?PR?GETYFTVAL?SENSOR
  +--> ?PR?GETXANG?SENSOR
  +--> ?PR?GETYANG?SENSOR
  +--> ?PR?GETANGXRELSYS?ANGAPP
  +--> ?PR?GETANGYRELSYS?ANGAPP
  +--> ?PR?GETANGXZEROUSR?ANGAPP
  +--> ?PR?GETANGYZEROUSR?ANGAPP
  +--> ?PR?GETANGXSYSZERO?ANGAPP
  +--> ?PR?GETANGYSYSZERO?ANGAPP
  +--> ?PR?GETANGXUSRZERO?ANGAPP
  +--> ?PR?GETANGYUSRZERO?ANGAPP
  +--> ?PR?GETANGXCALCNT?CALIBRATION
  +--> ?PR?GETTEMPXCALCNT?CALIBRATION
  +--> ?PR?GETFILTERCNT?SENSOR
  +--> ?PR?_MODRTU_RD16U?MODBUSRTU

?PR?GETANGP?ANGAPP                          -----    -----      -----    -----      -----    -----
  +--> ?PR?GETXANGALLSETVAL?ANGAPP
  +--> ?PR?GETYANGALLSETVAL?ANGAPP
  +--> ?PR?_PANGCALC?ANGAPP

?PR?_PANGCALC?ANGAPP                        -----    -----      003AH    0010H      -----    -----
  +--> ?PR?SIN?SIN
  +--> ?PR?SQRT?SQRT
  +--> ?PR?ASIN?ASIN

?PR?_FLOATTOINT?MODBUSRTU                   -----    -----      003AH    000CH      -----    -----

?PR?_MODRTU_RLYERROR?MODBUSRTU              -----    -----      0032H    0003H      -----    -----
  +--> ?PR?_MODBUSCRCCNT?MODBUSCRC
  +--> ?PR?_COMM_PUTSTR?COMM
  +--> ?PR?COMM_SENDSTA?COMM

?PR?_MODRTU_WRREG?MODBUSRTU                 -----    -----      0025H    000CH      -----    -----
  +--> ?PR?_MODRTU_8TO16?MODBUSRTU
  +--> ?PR?_MODRTU_WRVAL?MODBUSRTU
BL51 BANKED LINKER/LOCATER V6.22                                                      07/01/2013  09:38:04  PAGE 17


  +--> ?PR?_MODRTU_RLYERROR?MODBUSRTU
  +--> ?PR?_MODBUSCRCCNT?MODBUSCRC
  +--> ?PR?_MODRTU_WRCRC?MODBUSRTU
  +--> ?PR?_COMM_PUTSTR?COMM
  +--> ?PR?COMM_SENDSTA?COMM
  +--> ?PR?FLASH_USERDATAUPDATE?FLASH

?PR?_MODRTU_WRVAL?MODBUSRTU                 -----    -----      0031H    0008H      0B57H    0008H
  +--> ?PR?_MODRTU_WR16U?MODBUSRTU
  +--> ?PR?_SETANGXINST?ANGAPP
  +--> ?PR?_SETANGYINST?ANGAPP
  +--> ?PR?_SETANGXSET?ANGAPP
  +--> ?PR?_SETANGYSET?ANGAPP
  +--> ?PR?_SETANGPSET?ANGAPP
  +--> ?PR?_MODRTU_SETZERO?MODBUSRTU
  +--> ?PR?_MODRTU_WRADDR?MODBUSRTU
  +--> ?PR?_MODRTU_WRBAUD?MODBUSRTU
  +--> ?PR?GETANGXRELSYS?ANGAPP
  +--> ?PR?_SETANGXUSRZERO?ANGAPP
  +--> ?PR?FLASH_USERDATAUPDATE?FLASH
  +--> ?PR?_SETANGCALCNT?CALIBRATION
  +--> ?PR?GETANGXCALCNT?CALIBRATION
  +--> ?PR?_SETANGXCALANGVAL?CALIBRATION
  +--> ?PR?GETXOFTVAL?SENSOR
  +--> ?PR?_SETANGXCALADCVAL?CALIBRATION
  +--> ?PR?_SETANGYCALANGVAL?CALIBRATION
  +--> ?PR?GETYOFTVAL?SENSOR
  +--> ?PR?_SETANGYCALADCVAL?CALIBRATION
  +--> ?PR?FLASH_CALDATAUPDATE?FLASH
  +--> ?PR?GETXANG?SENSOR
  +--> ?PR?_SETANGXSYSZERO?ANGAPP
  +--> ?PR?GETYANG?SENSOR
  +--> ?PR?_SETANGYSYSZERO?ANGAPP
  +--> ?PR?GETANGYRELSYS?ANGAPP
  +--> ?PR?_SETANGYUSRZERO?ANGAPP
  +--> ?PR?_SETFILTERCNT?SENSOR

?PR?_MODRTU_SETZERO?MODBUSRTU               -----    -----      0039H    0002H      -----    -----
  +--> ?PR?_MODRTU_8TO16?MODBUSRTU
  +--> ?PR?GETANGXRELSYS?ANGAPP
  +--> ?PR?_SETANGXUSRZERO?ANGAPP
  +--> ?PR?GETANGYRELSYS?ANGAPP
  +--> ?PR?_SETANGYUSRZERO?ANGAPP

?PR?FLASH_USERDATAUPDATE?FLASH              -----    -----      -----    -----      -----    -----
  +--> ?PR?_FLASH_CALDATAUPDATE_USER?FLASH

?PR?_SEND_RDEAL?SEND                        -----    -----      0021H    0005H      -----    -----
  +--> ?CO?SEND
  +--> ?PR?_STRNCMP?STRNCMP
  +--> ?PR?SUB_SENDPRMTALL?SUB
  +--> ?PR?SUB_SENDANGXYP?SUB
  +--> ?PR?SUB_SENDANGXY?SUB
  +--> ?PR?SUB_SENDSOFTVER?SUB
  +--> ?PR?SUB_SENDSYSNUM?SUB
  +--> ?PR?SUB_SENDID?SUB
  +--> ?PR?_SUB_STR2INT8U?SUB
BL51 BANKED LINKER/LOCATER V6.22                                                      07/01/2013  09:38:04  PAGE 18


  +--> ?PR?_SUB_SENDTEMPCAL?SUB
  +--> ?PR?_COMM_PUTSTR?COMM
  +--> ?PR?GETANGXINST?ANGAPP
  +--> ?PR?GETANGYINST?ANGAPP
  +--> ?PR?_SUB_SENDOFFSET?SUB
  +--> ?PR?_SUB_SENDANGXCAL?SUB
  +--> ?PR?_SUB_SENDANGYCAL?SUB
  +--> ?PR?SUB_SENDERR?SUB

?PR?_STRNCMP?STRNCMP                        -----    -----      002CH    0008H      -----    -----

?PR?SUB_SENDPRMTALL?SUB                     -----    -----      -----    -----      -----    -----
  +--> ?CO?SUB
  +--> ?PR?_COMM_PUTSTR?COMM
  +--> ?PR?GET_MCUTEMP?SENSOR
  +--> ?PR?_COMM_PUTINT16U?SUB
  +--> ?PR?GETXFTVAL?SENSOR
  +--> ?PR?_COMM_PUTCHAR?COMM
  +--> ?PR?GETXOFTVAL?SENSOR
  +--> ?PR?GETXANG?SENSOR
  +--> ?PR?_COMM_PUTINT32S?SUB
  +--> ?PR?GETYFTVAL?SENSOR
  +--> ?PR?GETYOFTVAL?SENSOR
  +--> ?PR?GETYANG?SENSOR
  +--> ?PR?COMM_PUTNEWLINE?SUB
  +--> ?PR?COMM_SENDSTA?COMM

?PR?_COMM_PUTINT16U?SUB                     -----    -----      -----    -----      -----    -----
  +--> ?PR?_SUB_INT16U2STR?SUB
  +--> ?PR?_COMM_PUTSTR?COMM

?PR?_SUB_INT16U2STR?SUB                     -----    -----      0039H    0005H      -----    -----

?PR?SUB_SENDANGXYP?SUB                      -----    -----      -----    -----      -----    -----
  +--> ?CO?SUB
  +--> ?PR?_COMM_PUTSTR?COMM
  +--> ?PR?GETXANGALLSETVAL?ANGAPP
  +--> ?PR?_COMM_PUTINT32S?SUB
  +--> ?PR?COMM_PUTNEWLINE?SUB
  +--> ?PR?GETYANGALLSETVAL?ANGAPP
  +--> ?PR?GETANGP?ANGAPP
  +--> ?PR?COMM_SENDSTA?COMM

?PR?SUB_SENDSOFTVER?SUB                     -----    -----      -----    -----      -----    -----
  +--> ?CO?SUB
  +--> ?PR?_COMM_PUTSTR?COMM
  +--> ?PR?COMM_PUTNEWLINE?SUB
  +--> ?PR?COMM_SENDSTA?COMM

?PR?SUB_SENDSYSNUM?SUB                      -----    -----      -----    -----      -----    -----
  +--> ?CO?SUB
  +--> ?PR?_COMM_PUTSTR?COMM
  +--> ?PR?COMM_PUTNEWLINE?SUB
  +--> ?PR?COMM_SENDSTA?COMM

?PR?SUB_SENDID?SUB                          -----    -----      -----    -----      -----    -----
  +--> ?PR?_COMM_PUTINT16U?SUB
BL51 BANKED LINKER/LOCATER V6.22                                                      07/01/2013  09:38:04  PAGE 19


  +--> ?PR?_COMM_PUTCHAR?COMM
  +--> ?PR?GETANGXCALCNT?CALIBRATION
  +--> ?PR?GETTEMPXCALCNT?CALIBRATION
  +--> ?PR?COMM_PUTNEWLINE?SUB
  +--> ?PR?COMM_SENDSTA?COMM

?PR?_SUB_SENDTEMPCAL?SUB                    -----    -----      0026H    0001H      -----    -----
  +--> ?CO?SUB
  +--> ?PR?_COMM_PUTSTR?COMM
  +--> ?PR?_COMM_PUTINT8U?SUB
  +--> ?PR?_COMM_PUTCHAR?COMM
  +--> ?PR?_GETTEMPXCALTEMPVAL?CALIBRATION
  +--> ?PR?_COMM_PUTINT16U?SUB
  +--> ?PR?_GETTEMPXCALADCVAL?CALIBRATION
  +--> ?PR?_COMM_PUTINT16S?SUB
  +--> ?PR?_GETTEMPYCALADCVAL?CALIBRATION
  +--> ?PR?COMM_PUTNEWLINE?SUB
  +--> ?PR?COMM_SENDSTA?COMM

?PR?_COMM_PUTINT8U?SUB                      -----    -----      -----    -----      -----    -----
  +--> ?PR?_SUB_INT8U2STR?SUB
  +--> ?PR?_COMM_PUTSTR?COMM

?PR?_COMM_PUTINT16S?SUB                     -----    -----      -----    -----      -----    -----
  +--> ?PR?_SUB_INT16S2STR?SUB
  +--> ?PR?_COMM_PUTSTR?COMM

?PR?_SUB_INT16S2STR?SUB                     -----    -----      -----    -----      -----    -----
  +--> ?PR?_SUB_INT16U2STR?SUB

?PR?_SUB_SENDOFFSET?SUB                     -----    -----      -----    -----      -----    -----
  +--> ?PR?_COMM_PUTINT32S?SUB
  +--> ?PR?COMM_PUTNEWLINE?SUB
  +--> ?PR?COMM_SENDSTA?COMM

?PR?_SUB_SENDANGXCAL?SUB                    -----    -----      0026H    0001H      -----    -----
  +--> ?CO?SUB
  +--> ?PR?_COMM_PUTSTR?COMM
  +--> ?PR?_COMM_PUTINT8U?SUB
  +--> ?PR?_GETANGXCALADCVAL?CALIBRATION
  +--> ?PR?_COMM_PUTINT16U?SUB
  +--> ?PR?_COMM_PUTINT16S?SUB
  +--> ?PR?COMM_PUTNEWLINE?SUB
  +--> ?PR?COMM_SENDSTA?COMM

?PR?_SUB_SENDANGYCAL?SUB                    -----    -----      0026H    0001H      -----    -----
  +--> ?CO?SUB
  +--> ?PR?_COMM_PUTSTR?COMM
  +--> ?PR?_COMM_PUTINT8U?SUB
  +--> ?PR?_COMM_PUTCHAR?COMM
  +--> ?PR?_GETANGYCALADCVAL?CALIBRATION
  +--> ?PR?_COMM_PUTINT16U?SUB
  +--> ?PR?_COMM_PUTINT16S?SUB
  +--> ?PR?COMM_SENDSTA?COMM

?PR?SUB_SENDERR?SUB                         -----    -----      -----    -----      -----    -----
  +--> ?CO?SUB
BL51 BANKED LINKER/LOCATER V6.22                                                      07/01/2013  09:38:04  PAGE 20


  +--> ?PR?_COMM_PUTSTR?COMM
  +--> ?PR?COMM_PUTNEWLINE?SUB
  +--> ?PR?COMM_SENDSTA?COMM

?PR?_SEND_CDEAL?SEND                        -----    -----      0021H    0004H      -----    -----
  +--> ?CO?SEND
  +--> ?PR?_STRNCMP?STRNCMP
  +--> ?PR?SUB_SENDERR?SUB
  +--> ?PR?_SETANGXSYSZERO?ANGAPP
  +--> ?PR?_SETANGYSYSZERO?ANGAPP
  +--> ?PR?_COMM_PUTSTR?COMM
  +--> ?PR?SUB_SENDOK?SUB
  +--> ?PR?_SETANGXUSRZERO?ANGAPP
  +--> ?PR?ADC_XCALSTA?CMDSUB
  +--> ?PR?ADC_XCALSTOP?CMDSUB
  +--> ?PR?ADC_YCALSTA?CMDSUB
  +--> ?PR?ADC_YCALSTOP?CMDSUB
  +--> ?PR?_SETANGYUSRZERO?ANGAPP
  +--> ?PR?TEMP_CALSTA?CMDSUB
  +--> ?PR?TEMP_CALSTOP?CMDSUB

?PR?SUB_SENDOK?SUB                          -----    -----      -----    -----      -----    -----
  +--> ?CO?SUB
  +--> ?PR?_COMM_PUTSTR?COMM
  +--> ?PR?COMM_PUTNEWLINE?SUB
  +--> ?PR?COMM_SENDSTA?COMM

?PR?_SEND_SDEAL?SEND                        -----    -----      0021H    000BH      -----    -----
  +--> ?CO?SEND
  +--> ?PR?_STRNCMP?STRNCMP
  +--> ?PR?_COMM_PUTSTR?COMM
  +--> ?PR?SUB_SENDOK?SUB
  +--> ?PR?SUB_SENDERR?SUB
  +--> ?PR?SUB_SENDANGXY?SUB
  +--> ?PR?_SUB_STR2INT8U?SUB
  +--> ?PR?_SETFILTERCNT?SENSOR
  +--> ?PR?GETXANG?SENSOR
  +--> ?PR?_SETANGXSYSZERO?ANGAPP
  +--> ?PR?GETYANG?SENSOR
  +--> ?PR?_SETANGYSYSZERO?ANGAPP
  +--> ?PR?GETANGXRELSYS?ANGAPP
  +--> ?PR?_SETANGXUSRZERO?ANGAPP
  +--> ?PR?GETANGYRELSYS?ANGAPP
  +--> ?PR?_SETANGYUSRZERO?ANGAPP
  +--> ?PR?_SUB_STR2INT32S?SUB
  +--> ?PR?_SETANGXINST?ANGAPP
  +--> ?PR?_SETANGYINST?ANGAPP
  +--> ?PR?_SETANGCALCNT?CALIBRATION
  +--> ?PR?_SETTEMPCALCNT?CALIBRATION
  +--> ?PR?GETXOFTVAL?SENSOR
  +--> ?PR?_ADC_XCALPROC?CMDSUB
  +--> ?PR?_COMM_PUTCHAR?COMM
  +--> ?PR?GETANGXCALCNT?CALIBRATION
  +--> ?PR?_ANGCHKDIFF?CMDSUB
  +--> ?PR?_COMM_PUTINT16U?SUB
  +--> ?PR?ADC_XCALSTOP?CMDSUB
  +--> ?PR?GETYOFTVAL?SENSOR
BL51 BANKED LINKER/LOCATER V6.22                                                      07/01/2013  09:38:04  PAGE 21


  +--> ?PR?_ADC_YCALPROC?CMDSUB
  +--> ?PR?ADC_YCALSTOP?CMDSUB
  +--> ?PR?GET_MCUTEMP?SENSOR
  +--> ?PR?GETXFTVAL?SENSOR
  +--> ?PR?GETYFTVAL?SENSOR
  +--> ?PR?_TEMP_CALSAMP?CMDSUB
  +--> ?PR?_TEMP_CALTREFSET?CMDSUB
  +--> ?PR?_SETANGXSET?ANGAPP
  +--> ?PR?_SETANGYSET?ANGAPP
  +--> ?PR?_SETANGPSET?ANGAPP
  +--> ?PR?_SUB_STRALARMCHECK?SUB
  +--> ?PR?_DELAY_MS?DELAY
  +--> ?PR?SUB_SYSRST?SUB

?PR?_SUB_STR2INT32S?SUB                     -----    -----      002CH    000AH      -----    -----

?PR?_ADC_XCALPROC?CMDSUB                    -----    -----      002CH    0006H      -----    -----
  +--> ?PR?_ANGCHKDIFF?CMDSUB

?PR?_ANGCHKDIFF?CMDSUB                      -----    -----      0032H    000EH      -----    -----

?PR?_ADC_YCALPROC?CMDSUB                    -----    -----      002CH    0006H      -----    -----
  +--> ?PR?_ANGCHKDIFF?CMDSUB

?PR?_TEMP_CALSAMP?CMDSUB                    -----    -----      002CH    0007H      -----    -----
  +--> ?PR?_TEMP_CALVALWR?CMDSUB
  +--> ?PR?_SUB_SENDADCTXY?SUB

?PR?_TEMP_CALVALWR?CMDSUB                   -----    -----      0033H    0007H      -----    -----

?PR?_SUB_SENDADCTXY?SUB                     -----    -----      0033H    0006H      -----    -----
  +--> ?CO?SUB
  +--> ?PR?_COMM_PUTSTR?COMM
  +--> ?PR?_COMM_PUTINT16U?SUB
  +--> ?PR?COMM_PUTNEWLINE?SUB
  +--> ?PR?COMM_SENDSTA?COMM

?PR?_TEMP_CALTREFSET?CMDSUB                 -----    -----      002CH    0005H      -----    -----
  +--> ?PR?TEMP_CALSTOP?CMDSUB

?PR?_SUB_STRALARMCHECK?SUB                  -----    -----      002CH    0006H      -----    -----

?PR?_SEND_UDEAL?SEND                        -----    -----      0021H    0004H      -----    -----
  +--> ?CO?SEND
  +--> ?PR?_STRNCMP?STRNCMP
  +--> ?PR?FLASH_CALDATAUPDATE?FLASH
  +--> ?PR?FLASH_USERDATAUPDATE?FLASH
  +--> ?PR?_COMM_PUTSTR?COMM
  +--> ?PR?SUB_SENDOK?SUB
  +--> ?PR?SUB_SENDERR?SUB

?PR?_SEND_WDEAL?SEND                        -----    -----      0021H    000AH      -----    -----
  +--> ?CO?SEND
  +--> ?PR?_STRNCMP?STRNCMP
  +--> ?PR?_SUB_STR2INT16S?SUB
  +--> ?PR?_SUB_STR2INT16U?SUB
  +--> ?PR?_SUB_STR2INT8U?SUB
BL51 BANKED LINKER/LOCATER V6.22                                                      07/01/2013  09:38:04  PAGE 22


  +--> ?PR?_TEMP_CALVALWR?CMDSUB
  +--> ?PR?SUB_SENDERR?SUB
  +--> ?PR?_STRNCPY?STRNCPY
  +--> ?PR?_COMM_PUTSTR?COMM
  +--> ?PR?SUB_SENDOK?SUB

?PR?_SUB_STR2INT16S?SUB                     -----    -----      002BH    0008H      -----    -----
  +--> ?PR?_SUB_STR2INT16U?SUB

?PR?_SUB_STR2INT16U?SUB                     -----    -----      0033H    0006H      -----    -----

?PR?_STRNCPY?STRNCPY                        -----    -----      002BH    000AH      -----    -----

?PR?_SEND_TDEAL?SEND                        -----    -----      0021H    0001H      -----    -----
  +--> ?CO?SEND
  +--> ?PR?_STRNCMP?STRNCMP
  +--> ?PR?SUB_SENDTCALTEST?SUB

?PR?SUB_SENDTCALTEST?SUB                    -----    -----      0022H    0004H      -----    -----
  +--> ?PR?GET_MCUTEMP?SENSOR
  +--> ?PR?_COMM_PUTINT16U?SUB
  +--> ?PR?_COMM_PUTCHAR?COMM
  +--> ?PR?_COMM_PUTINT16S?SUB
  +--> ?PR?COMM_PUTNEWLINE?SUB
  +--> ?PR?COMM_SENDSTA?COMM

?PR?KEY_PROC?KEY                            -----    -----      -----    -----      -----    -----
  +--> ?PR?KEY_DOWN?KEY
  +--> ?PR?GETANGXRELSYS?ANGAPP
  +--> ?PR?_SETANGXUSRZERO?ANGAPP
  +--> ?PR?GETANGYRELSYS?ANGAPP
  +--> ?PR?_SETANGYUSRZERO?ANGAPP
  +--> ?CO?KEY
  +--> ?PR?_COMM_PUTSTR?COMM
  +--> ?PR?SUB_SENDOK?SUB
  +--> ?PR?FLASH_USERDATAUPDATE?FLASH

?PR?KEY_DOWN?KEY                            -----    -----      -----    -----      -----    -----
  +--> ?PR?_DELAY_CYC?DELAY

?PR?ANGPROC?ANGAPP                          -----    -----      0021H    0008H      -----    -----
  +--> ?PR?GETXANGALLSETVAL?ANGAPP
  +--> ?PR?_ALARMX?ANGAPP
  +--> ?PR?GETYANGALLSETVAL?ANGAPP
  +--> ?PR?_ALARMY?ANGAPP
  +--> ?PR?_PANGCALC?ANGAPP
  +--> ?PR?_ALARMS?ANGAPP

*** NEW ROOT ***************************************************

?PR?ADC_ISR?ADCDRV                          -----    -----      -----    -----      -----    -----
  +--> ?PR?_ADC_SAVEANDSWITCH?ADCDRV

?PR?_ADC_SAVEANDSWITCH?ADCDRV               -----    -----      0054H    0003H      -----    -----
  +--> ?CO?ADCDRV
  +--> ?PR?_ADCFILTER?ADCDRV

BL51 BANKED LINKER/LOCATER V6.22                                                      07/01/2013  09:38:04  PAGE 23


?PR?_ADCFILTER?ADCDRV                       -----    -----      0057H    0005H      -----    -----
  +--> ?PR?_VALINRANGE?FILTER
  +--> ?PR?_SLIDEWINFILTER?FILTER

?PR?_SLIDEWINFILTER?FILTER                  -----    -----      005CH    0012H      -----    -----

*** NEW ROOT ***************************************************

?PR?COMM_ISR?COMM                           -----    -----      006EH    0002H      -----    -----
  +--> ?PR?_COMM_GETTXCHAR?COMM
  +--> ?PR?COMM_SENDSTOP?COMM
  +--> ?PR?_COMM_PUTRXCHAR?COMM
  +--> ?PR?COMM_TIMERINIT?COMM

?PR?_COMM_GETTXCHAR?COMM                    -----    -----      0070H    0006H      -----    -----

?PR?_COMM_PUTRXCHAR?COMM                    -----    -----      0070H    0003H      -----    -----

*** NEW ROOT ***************************************************

?PR?TIMER2_ISR?TIMER                        -----    -----      -----    -----      -----    -----
  +--> ?PR?TIMER2_TASKINISR?TIMER

?PR?TIMER2_TASKINISR?TIMER                  -----    -----      -----    -----      -----    -----
  +--> ?PR?COMM_TIMERPROC?COMM
  +--> ?CO?SEND



SYMBOL TABLE OF MODULE:  .\obj\164-0001-20130619 (?C_STARTUP)

  VALUE           TYPE          NAME
  ----------------------------------

  -------         MODULE        ?C_STARTUP
  C:533BH         SEGMENT       ?C_C51STARTUP
  I:0076H         SEGMENT       ?STACK
  C:0000H         PUBLIC        ?C_STARTUP
  D:00E0H         SYMBOL        ACC
  D:00F0H         SYMBOL        B
  D:0083H         SYMBOL        DPH
  D:0082H         SYMBOL        DPL
  N:0000H         SYMBOL        IBPSTACK
  N:0100H         SYMBOL        IBPSTACKTOP
  N:0080H         SYMBOL        IDATALEN
  C:533EH         SYMBOL        IDATALOOP
  N:0000H         SYMBOL        PBPSTACK
  N:0100H         SYMBOL        PBPSTACKTOP
  N:0000H         SYMBOL        PDATALEN
  N:0000H         SYMBOL        PDATASTART
  N:0000H         SYMBOL        PPAGE
  N:0000H         SYMBOL        PPAGEENABLE
  D:00A0H         SYMBOL        PPAGE_SFR
  D:0081H         SYMBOL        SP
  C:533BH         SYMBOL        STARTUP1
  N:0000H         SYMBOL        XBPSTACK
  N:0000H         SYMBOL        XBPSTACKTOP
BL51 BANKED LINKER/LOCATER V6.22                                                      07/01/2013  09:38:04  PAGE 24


  N:0000H         SYMBOL        XDATALEN
  N:0000H         SYMBOL        XDATASTART
  C:0000H         LINE#         126
  C:533BH         LINE#         133
  C:533DH         LINE#         134
  C:533EH         LINE#         135
  C:533FH         LINE#         136
  C:5341H         LINE#         185
  C:5344H         LINE#         196
  -------         ENDMOD        ?C_STARTUP

  -------         MODULE        ADCDRV
  C:0000H         SYMBOL        _ICE_DUMMY_
  C:6EBEH         PUBLIC        Adc_Init
  D:00A0H         PUBLIC        P2
  D:00BCH         PUBLIC        ADC0CF
  D:00E6H         PUBLIC        EIE1
  C:5B7CH         SYMBOL        _Adc_SaveAndSwitch
  C:6FB9H         PUBLIC        Adc_GetXVal
  C:6FC2H         PUBLIC        Adc_GetYVal
  D:00E8H         PUBLIC        ADC0CN
  D:00A7H         PUBLIC        SFRPAGE
  C:711EH         SYMBOL        Adc_VrefInit
  C:5453H         PUBLIC        Adc_Isr
  X:0858H         PUBLIC        x_axis_adc
  X:08E0H         PUBLIC        y_axis_adc
  D:00BBH         PUBLIC        ADC0MX
  D:00D1H         PUBLIC        REF0CN
  C:6365H         SYMBOL        AdcEntityInit
  B:00E8H.5       PUBLIC        AD0INT
  C:6FCBH         PUBLIC        Adc_GetTemp
  C:68BEH         SYMBOL        Adc_SetInit
  I:0018H         PUBLIC        AdcSwitchId
  C:7122H         SYMBOL        Adc_IsrInit
  C:0026H         PUBLIC        Adc_Enable
  I:0019H         PUBLIC        AdcEndTag
  D:00BEH         PUBLIC        ADC0H
  X:0968H         PUBLIC        temp_adc
  D:00BDH         PUBLIC        ADC0L
  I:001AH         PUBLIC        AdcEndId
  C:6BF1H         SYMBOL        PinIdTab
  C:5677H         SYMBOL        _AdcFilter
  D:00BDH         PUBLIC        ADC0
  C:6BFEH         SYMBOL        PinMuxTab
  -------         PROC          ADC_INIT
  C:6EBEH         LINE#         45
  C:6EBEH         LINE#         46
  C:6EBEH         LINE#         47
  C:6EC1H         LINE#         48
  C:6EC4H         LINE#         49
  C:6EC7H         LINE#         50
  -------         ENDPROC       ADC_INIT
  -------         PROC          ADC_ENABLE
  C:0026H         LINE#         53
  C:0026H         LINE#         54
  C:0026H         LINE#         55
  C:0029H         LINE#         56
BL51 BANKED LINKER/LOCATER V6.22                                                      07/01/2013  09:38:04  PAGE 25


  -------         ENDPROC       ADC_ENABLE
  -------         PROC          ADC_GETXVAL
  C:6FB9H         LINE#         64
  C:6FB9H         LINE#         65
  C:6FB9H         LINE#         66
  C:6FC1H         LINE#         67
  -------         ENDPROC       ADC_GETXVAL
  -------         PROC          ADC_GETYVAL
  C:6FC2H         LINE#         75
  C:6FC2H         LINE#         76
  C:6FC2H         LINE#         77
  C:6FCAH         LINE#         78
  -------         ENDPROC       ADC_GETYVAL
  -------         PROC          ADC_GETTEMP
  C:6FCBH         LINE#         86
  C:6FCBH         LINE#         87
  C:6FCBH         LINE#         88
  C:6FD3H         LINE#         89
  -------         ENDPROC       ADC_GETTEMP
  -------         PROC          ADC_SETINIT
  -------         DO            
  D:0007H         SYMBOL        SfrPage_
  -------         ENDDO         
  C:68BEH         LINE#         110
  C:68BEH         LINE#         111
  C:68C0H         LINE#         114
  C:68C3H         LINE#         115
  C:68C6H         LINE#         116
  C:68C9H         LINE#         117
  C:68CCH         LINE#         118
  C:68CFH         LINE#         119
  C:68D2H         LINE#         120
  C:68D5H         LINE#         121
  C:68D8H         LINE#         122
  C:68DBH         LINE#         123
  C:68DEH         LINE#         124
  C:68E1H         LINE#         125
  C:68E3H         LINE#         126
  C:68E6H         LINE#         127
  C:68E9H         LINE#         128
  C:68EBH         LINE#         129
  -------         ENDPROC       ADC_SETINIT
  -------         PROC          ADC_VREFINIT
  C:711EH         LINE#         131
  C:711EH         LINE#         132
  C:711EH         LINE#         133
  C:7121H         LINE#         134
  -------         ENDPROC       ADC_VREFINIT
  -------         PROC          ADC_ISRINIT
  C:7122H         LINE#         136
  C:7122H         LINE#         137
  C:7122H         LINE#         138
  C:7125H         LINE#         139
  -------         ENDPROC       ADC_ISRINIT
  -------         PROC          _ADCFILTER
  D:0057H         SYMBOL        p_adc
  D:005AH         SYMBOL        val
BL51 BANKED LINKER/LOCATER V6.22                                                      07/01/2013  09:38:04  PAGE 26


  C:5677H         LINE#         148
  C:5681H         LINE#         149
  C:5681H         LINE#         150
  C:5696H         LINE#         151
  C:5696H         LINE#         153
  C:56E5H         LINE#         154
  C:56E5H         LINE#         156
  C:56E5H         LINE#         157
  C:56F4H         LINE#         158
  C:56FBH         LINE#         159
  C:56FBH         LINE#         160
  -------         ENDPROC       _ADCFILTER
  -------         PROC          ADCENTITYINIT
  C:6365H         LINE#         218
  C:6365H         LINE#         219
  C:6365H         LINE#         221
  C:636AH         LINE#         222
  C:636CH         LINE#         223
  C:636EH         LINE#         224
  C:6374H         LINE#         226
  C:637EH         LINE#         228
  C:6384H         LINE#         229
  C:6387H         LINE#         230
  C:6389H         LINE#         231
  C:638FH         LINE#         233
  C:6397H         LINE#         235
  C:639DH         LINE#         236
  C:63A0H         LINE#         237
  C:63A2H         LINE#         238
  C:63A8H         LINE#         240
  -------         ENDPROC       ADCENTITYINIT
  -------         PROC          _ADC_SAVEANDSWITCH
  D:0004H         SYMBOL        val
  -------         DO            
  D:0054H         SYMBOL        adc_ent
  -------         ENDDO         
  C:5B7CH         LINE#         264
  C:5B80H         LINE#         265
  C:5B80H         LINE#         267
  C:5B89H         LINE#         271
  C:5B91H         LINE#         272
  C:5B91H         LINE#         273
  C:5BA5H         LINE#         274
  C:5BA5H         LINE#         275
  C:5BB1H         LINE#         276
  C:5BB3H         LINE#         277
  C:5BBBH         LINE#         279
  C:5BC4H         LINE#         281
  C:5BCEH         LINE#         282
  C:5BD1H         LINE#         284
  C:5BD7H         LINE#         285
  C:5BE0H         LINE#         286
  C:5BE3H         LINE#         287
  -------         ENDPROC       _ADC_SAVEANDSWITCH
  -------         PROC          ADC_ISR
  -------         DO            
  X:0852H         SYMBOL        sum
BL51 BANKED LINKER/LOCATER V6.22                                                      07/01/2013  09:38:04  PAGE 27


  X:0856H         SYMBOL        cnt
  -------         ENDDO         
  C:5453H         LINE#         295
  C:5470H         LINE#         300
  C:5472H         LINE#         301
  C:5488H         LINE#         302
  C:549BH         LINE#         303
  C:549BH         LINE#         304
  C:54ADH         LINE#         305
  C:54B7H         LINE#         306
  C:54BEH         LINE#         307
  C:54C0H         LINE#         309
  C:54C3H         LINE#         310
  -------         ENDPROC       ADC_ISR
  -------         ENDMOD        ADCDRV

  -------         MODULE        ANGAPP
  C:0000H         SYMBOL        _ICE_DUMMY_
  C:70E2H         PUBLIC        _SetAngYUsrZero
  C:6235H         PUBLIC        GetXAngAllSetVal
  C:6281H         PUBLIC        GetYAngAllSetVal
  D:00A0H         PUBLIC        P2
  C:70D0H         PUBLIC        _SetAngXSysZero
  C:70D6H         PUBLIC        _SetAngYSysZero
  B:00A0H.5       PUBLIC        LED_S
  C:68ECH         PUBLIC        GetAngP
  B:00A0H.7       PUBLIC        LED_X
  B:00A0H.6       PUBLIC        LED_Y
  X:0AFAH         SYMBOL        angp
  C:37DBH         PUBLIC        AngProc
  C:5186H         PUBLIC        AngInit
  X:0AFEH         SYMBOL        angx_usrzero
  X:0B02H         SYMBOL        angy_usrzero
  C:707CH         PUBLIC        GetAngXInst
  C:7083H         PUBLIC        GetAngYInst
  X:0B06H         SYMBOL        angx_syszero
  X:0B0AH         SYMBOL        angy_syszero
  C:7098H         PUBLIC        GetAngPSet
  C:70E8H         PUBLIC        _SetAngXInst
  C:70EEH         PUBLIC        _SetAngYInst
  C:708AH         PUBLIC        GetAngXSet
  C:7091H         PUBLIC        GetAngYSet
  C:6B2CH         PUBLIC        _AlarmS
  C:6EA4H         PUBLIC        _SetAngPSet
  C:6AF0H         PUBLIC        _AlarmX
  C:6B0EH         PUBLIC        _AlarmY
  C:6E8AH         PUBLIC        _SetAngXSet
  C:6E97H         PUBLIC        _SetAngYSet
  X:0B0EH         SYMBOL        angx_inst
  X:0B12H         SYMBOL        angy_inst
  X:0B16H         SYMBOL        angp_set
  C:4B4DH         SYMBOL        _PAngCalc
  X:0B1AH         SYMBOL        angx_set
  X:0B1EH         SYMBOL        angy_set
  C:69E8H         PUBLIC        _SetAngZero
  C:709FH         PUBLIC        GetAngXZeroUsr
  C:706EH         PUBLIC        GetAngXUsrZero
BL51 BANKED LINKER/LOCATER V6.22                                                      07/01/2013  09:38:04  PAGE 28


  C:70A6H         PUBLIC        GetAngYZeroUsr
  C:7075H         PUBLIC        GetAngYUsrZero
  C:6AD2H         PUBLIC        _SetAngZeroAdd
  X:0B22H         SYMBOL        BufZerox_usr
  C:7060H         PUBLIC        GetAngXSysZero
  X:0B26H         SYMBOL        BufZeroy_usr
  C:7067H         PUBLIC        GetAngYSysZero
  C:70ADH         PUBLIC        GetAngXRelSys
  C:70B4H         PUBLIC        GetAngYRelSys
  X:0B2AH         SYMBOL        BufZerox_sys
  X:0B2EH         SYMBOL        BufZeroy_sys
  C:70DCH         PUBLIC        _SetAngXUsrZero
  -------         PROC          ANGINIT
  C:5186H         LINE#         41
  C:5186H         LINE#         42
  C:5186H         LINE#         43
  C:5189H         LINE#         45
  C:5193H         LINE#         47
  C:519EH         LINE#         48
  C:51A9H         LINE#         49
  C:51B4H         LINE#         50
  C:51BFH         LINE#         51
  C:51CAH         LINE#         52
  C:51D5H         LINE#         53
  C:51E0H         LINE#         54
  C:51EBH         LINE#         55
  C:51F6H         LINE#         57
  C:5200H         LINE#         58
  C:520AH         LINE#         59
  C:5214H         LINE#         60
  C:521EH         LINE#         62
  -------         ENDPROC       ANGINIT
  -------         PROC          _PANGCALC
  D:0004H         SYMBOL        angx
  D:003EH         SYMBOL        angy
  -------         DO            
  D:0042H         SYMBOL        x
  D:0004H         SYMBOL        y
  D:0046H         SYMBOL        s
  -------         ENDDO         
  C:4B4DH         LINE#         70
  C:4B4DH         LINE#         71
  C:4B4DH         LINE#         74
  C:4B59H         LINE#         75
  C:4B77H         LINE#         76
  C:4B82H         LINE#         77
  C:4B95H         LINE#         79
  C:4BA1H         LINE#         80
  C:4BB7H         LINE#         81
  C:4BBAH         LINE#         82
  C:4BC5H         LINE#         84
  C:4BDBH         LINE#         85
  C:4BEFH         LINE#         86
  C:4BEFH         LINE#         87
  C:4BF8H         LINE#         88
  C:4BF8H         LINE#         89
  C:4C21H         LINE#         90
BL51 BANKED LINKER/LOCATER V6.22                                                      07/01/2013  09:38:04  PAGE 29


  C:4C24H         LINE#         91
  -------         ENDPROC       _PANGCALC
  -------         PROC          GETANGP
  C:68ECH         LINE#         99
  C:68ECH         LINE#         100
  C:68ECH         LINE#         102
  C:6913H         LINE#         103
  C:6919H         LINE#         104
  -------         ENDPROC       GETANGP
  -------         PROC          GETANGXSYSZERO
  C:7060H         LINE#         106
  C:7060H         LINE#         107
  C:7060H         LINE#         108
  C:7066H         LINE#         109
  -------         ENDPROC       GETANGXSYSZERO
  -------         PROC          GETANGYSYSZERO
  C:7067H         LINE#         110
  C:7067H         LINE#         111
  C:7067H         LINE#         112
  C:706DH         LINE#         113
  -------         ENDPROC       GETANGYSYSZERO
  -------         PROC          GETANGXUSRZERO
  C:706EH         LINE#         114
  C:706EH         LINE#         115
  C:706EH         LINE#         116
  C:7074H         LINE#         117
  -------         ENDPROC       GETANGXUSRZERO
  -------         PROC          GETANGYUSRZERO
  C:7075H         LINE#         118
  C:7075H         LINE#         119
  C:7075H         LINE#         120
  C:707BH         LINE#         121
  -------         ENDPROC       GETANGYUSRZERO
  -------         PROC          GETANGXINST
  C:707CH         LINE#         123
  C:707CH         LINE#         124
  C:707CH         LINE#         125
  C:7082H         LINE#         126
  -------         ENDPROC       GETANGXINST
  -------         PROC          GETANGYINST
  C:7083H         LINE#         127
  C:7083H         LINE#         128
  C:7083H         LINE#         129
  C:7089H         LINE#         130
  -------         ENDPROC       GETANGYINST
  -------         PROC          GETANGXSET
  C:708AH         LINE#         132
  C:708AH         LINE#         133
  C:708AH         LINE#         134
  C:7090H         LINE#         135
  -------         ENDPROC       GETANGXSET
  -------         PROC          GETANGYSET
  C:7091H         LINE#         136
  C:7091H         LINE#         137
  C:7091H         LINE#         138
  C:7097H         LINE#         139
  -------         ENDPROC       GETANGYSET
BL51 BANKED LINKER/LOCATER V6.22                                                      07/01/2013  09:38:04  PAGE 30


  -------         PROC          GETANGPSET
  C:7098H         LINE#         140
  C:7098H         LINE#         141
  C:7098H         LINE#         142
  C:709EH         LINE#         143
  -------         ENDPROC       GETANGPSET
  -------         PROC          GETANGXZEROUSR
  C:709FH         LINE#         145
  C:709FH         LINE#         146
  C:709FH         LINE#         147
  C:70A5H         LINE#         148
  -------         ENDPROC       GETANGXZEROUSR
  -------         PROC          GETANGYZEROUSR
  C:70A6H         LINE#         149
  C:70A6H         LINE#         150
  C:70A6H         LINE#         151
  C:70ACH         LINE#         152
  -------         ENDPROC       GETANGYZEROUSR
  -------         PROC          GETANGXRELSYS
  C:70ADH         LINE#         154
  C:70ADH         LINE#         155
  C:70ADH         LINE#         156
  C:70B3H         LINE#         157
  -------         ENDPROC       GETANGXRELSYS
  -------         PROC          GETANGYRELSYS
  C:70B4H         LINE#         158
  C:70B4H         LINE#         159
  C:70B4H         LINE#         160
  C:70BAH         LINE#         161
  -------         ENDPROC       GETANGYRELSYS
  -------         PROC          _SETANGXSYSZERO
  D:0004H         SYMBOL        zore
  C:70D0H         LINE#         170
  C:70D0H         LINE#         171
  C:70D0H         LINE#         172
  -------         ENDPROC       _SETANGXSYSZERO
  -------         PROC          _SETANGYSYSZERO
  D:0004H         SYMBOL        zore
  C:70D6H         LINE#         174
  C:70D6H         LINE#         175
  C:70D6H         LINE#         176
  -------         ENDPROC       _SETANGYSYSZERO
  -------         PROC          _SETANGXUSRZERO
  D:0004H         SYMBOL        zore
  C:70DCH         LINE#         179
  C:70DCH         LINE#         180
  C:70DCH         LINE#         181
  -------         ENDPROC       _SETANGXUSRZERO
  -------         PROC          _SETANGYUSRZERO
  D:0004H         SYMBOL        zore
  C:70E2H         LINE#         183
  C:70E2H         LINE#         184
  C:70E2H         LINE#         185
  -------         ENDPROC       _SETANGYUSRZERO
  -------         PROC          _SETANGXINST
  D:0004H         SYMBOL        ang_inst
  C:70E8H         LINE#         188
BL51 BANKED LINKER/LOCATER V6.22                                                      07/01/2013  09:38:04  PAGE 31


  C:70E8H         LINE#         189
  C:70E8H         LINE#         190
  -------         ENDPROC       _SETANGXINST
  -------         PROC          _SETANGYINST
  D:0004H         SYMBOL        ang_inst
  C:70EEH         LINE#         192
  C:70EEH         LINE#         193
  C:70EEH         LINE#         194
  -------         ENDPROC       _SETANGYINST
  -------         PROC          _SETANGXSET
  D:0004H         SYMBOL        ang_set
  C:6E8AH         LINE#         197
  C:6E8AH         LINE#         198
  C:6E8AH         LINE#         199
  C:6E8EH         LINE#         200
  C:6E8EH         LINE#         201
  C:6E91H         LINE#         202
  C:6E91H         LINE#         203
  -------         ENDPROC       _SETANGXSET
  -------         PROC          _SETANGYSET
  D:0004H         SYMBOL        ang_set
  C:6E97H         LINE#         205
  C:6E97H         LINE#         206
  C:6E97H         LINE#         207
  C:6E9BH         LINE#         208
  C:6E9BH         LINE#         209
  C:6E9EH         LINE#         210
  C:6E9EH         LINE#         211
  -------         ENDPROC       _SETANGYSET
  -------         PROC          _SETANGPSET
  D:0004H         SYMBOL        ang_set
  C:6EA4H         LINE#         213
  C:6EA4H         LINE#         214
  C:6EA4H         LINE#         215
  C:6EA8H         LINE#         216
  C:6EA8H         LINE#         217
  C:6EABH         LINE#         218
  C:6EABH         LINE#         219
  -------         ENDPROC       _SETANGPSET
  -------         PROC          L?0073
  -------         ENDPROC       L?0073
  -------         PROC          _SETANGZERO
  D:0001H         SYMBOL        angval
  D:003EH         SYMBOL        setval
  C:69E8H         LINE#         230
  C:69F0H         LINE#         231
  C:69F0H         LINE#         232
  -------         ENDPROC       _SETANGZERO
  -------         PROC          _SETANGZEROADD
  D:0001H         SYMBOL        angval
  D:003EH         SYMBOL        setval
  C:6AD2H         LINE#         235
  C:6ADAH         LINE#         236
  C:6ADAH         LINE#         237
  -------         ENDPROC       _SETANGZEROADD
  -------         PROC          GETXANGALLSETVAL
  -------         DO            
BL51 BANKED LINKER/LOCATER V6.22                                                      07/01/2013  09:38:04  PAGE 32


  D:003AH         SYMBOL        tmp
  -------         ENDDO         
  C:6235H         LINE#         246
  C:6235H         LINE#         247
  C:6235H         LINE#         249
  C:6240H         LINE#         250
  C:624AH         LINE#         251
  C:6258H         LINE#         252
  C:6261H         LINE#         253
  C:626FH         LINE#         254
  C:6278H         LINE#         255
  C:6280H         LINE#         257
  -------         ENDPROC       GETXANGALLSETVAL
  -------         PROC          GETYANGALLSETVAL
  -------         DO            
  D:003AH         SYMBOL        tmp
  -------         ENDDO         
  C:6281H         LINE#         265
  C:6281H         LINE#         266
  C:6281H         LINE#         268
  C:628CH         LINE#         269
  C:6296H         LINE#         270
  C:62A4H         LINE#         271
  C:62ADH         LINE#         272
  C:62BBH         LINE#         273
  C:62C4H         LINE#         274
  C:62CCH         LINE#         275
  -------         ENDPROC       GETYANGALLSETVAL
  -------         PROC          _ALARMX
  D:0007H         SYMBOL        vol
  C:6AF0H         LINE#         284
  C:6AF0H         LINE#         285
  C:6AF0H         LINE#         286
  C:6AFCH         LINE#         287
  C:6AFCH         LINE#         288
  C:6AFFH         LINE#         289
  C:6AFFH         LINE#         290
  C:6B01H         LINE#         291
  C:6B02H         LINE#         293
  C:6B02H         LINE#         294
  C:6B04H         LINE#         295
  C:6B04H         LINE#         296
  C:6B05H         LINE#         298
  C:6B05H         LINE#         299
  C:6B08H         LINE#         300
  C:6B08H         LINE#         301
  C:6B0AH         LINE#         302
  C:6B0BH         LINE#         304
  C:6B0BH         LINE#         305
  C:6B0DH         LINE#         306
  C:6B0DH         LINE#         307
  C:6B0DH         LINE#         308
  -------         ENDPROC       _ALARMX
  -------         PROC          _ALARMY
  D:0007H         SYMBOL        vol
  C:6B0EH         LINE#         312
  C:6B0EH         LINE#         313
BL51 BANKED LINKER/LOCATER V6.22                                                      07/01/2013  09:38:04  PAGE 33


  C:6B0EH         LINE#         314
  C:6B1AH         LINE#         315
  C:6B1AH         LINE#         316
  C:6B1DH         LINE#         317
  C:6B1DH         LINE#         318
  C:6B1FH         LINE#         319
  C:6B20H         LINE#         321
  C:6B20H         LINE#         322
  C:6B22H         LINE#         323
  C:6B22H         LINE#         324
  C:6B23H         LINE#         326
  C:6B23H         LINE#         327
  C:6B26H         LINE#         328
  C:6B26H         LINE#         329
  C:6B28H         LINE#         330
  C:6B29H         LINE#         332
  C:6B29H         LINE#         333
  C:6B2BH         LINE#         334
  C:6B2BH         LINE#         335
  C:6B2BH         LINE#         336
  -------         ENDPROC       _ALARMY
  -------         PROC          _ALARMS
  D:0007H         SYMBOL        vol
  C:6B2CH         LINE#         340
  C:6B2CH         LINE#         341
  C:6B2CH         LINE#         342
  C:6B38H         LINE#         343
  C:6B38H         LINE#         344
  C:6B3BH         LINE#         345
  C:6B3BH         LINE#         346
  C:6B3DH         LINE#         347
  C:6B3EH         LINE#         349
  C:6B3EH         LINE#         350
  C:6B40H         LINE#         351
  C:6B40H         LINE#         352
  C:6B41H         LINE#         354
  C:6B41H         LINE#         355
  C:6B44H         LINE#         356
  C:6B44H         LINE#         357
  C:6B46H         LINE#         358
  C:6B47H         LINE#         360
  C:6B47H         LINE#         361
  C:6B49H         LINE#         362
  C:6B49H         LINE#         363
  C:6B49H         LINE#         364
  -------         ENDPROC       _ALARMS
  -------         PROC          ANGPROC
  -------         DO            
  D:0021H         SYMBOL        data_x
  D:0025H         SYMBOL        data_y
  -------         ENDDO         
  C:37DBH         LINE#         367
  C:37DBH         LINE#         368
  C:37DBH         LINE#         376
  C:37E6H         LINE#         377
  C:3823H         LINE#         378
  C:3823H         LINE#         379
BL51 BANKED LINKER/LOCATER V6.22                                                      07/01/2013  09:38:04  PAGE 34


  C:3825H         LINE#         380
  C:3827H         LINE#         381
  C:3864H         LINE#         382
  C:3864H         LINE#         383
  C:3869H         LINE#         384
  C:3869H         LINE#         387
  C:3874H         LINE#         388
  C:38B1H         LINE#         389
  C:38B1H         LINE#         390
  C:38B3H         LINE#         391
  C:38B5H         LINE#         392
  C:38F2H         LINE#         393
  C:38F2H         LINE#         394
  C:38F7H         LINE#         395
  C:38F7H         LINE#         398
  C:391EH         LINE#         399
  C:3939H         LINE#         400
  C:3939H         LINE#         401
  C:393BH         LINE#         402
  C:393DH         LINE#         403
  C:3958H         LINE#         404
  C:3958H         LINE#         405
  C:395DH         LINE#         406
  C:395DH         LINE#         408
  -------         ENDPROC       ANGPROC
  -------         ENDMOD        ANGAPP

  -------         MODULE        CALIBRATION
  C:0000H         SYMBOL        _ICE_DUMMY_
  C:6E6EH         SYMBOL        _Ang_WrAngVal
  C:7048H         PUBLIC        _SetAngCalCnt
  C:7040H         PUBLIC        _SetTempCalCnt
  C:6C53H         SYMBOL        _Temp_WrTempVal
  X:0000H         PUBLIC        Ang_Xcal
  D:00A0H         PUBLIC        P2
  X:0166H         PUBLIC        Ang_Ycal
  X:02CCH         PUBLIC        Temp_Xcal
  X:03A9H         PUBLIC        Temp_Ycal
  C:6FE6H         PUBLIC        AngXCalcPrm
  C:6FEFH         PUBLIC        AngYCalcPrm
  C:6FD4H         PUBLIC        TempXCalcPrm
  C:6FDDH         PUBLIC        TempYCalcPrm
  C:395EH         SYMBOL        _Ang_CalcPrm
  C:3DAAH         SYMBOL        _Temp_CalcPrm
  C:4116H         PUBLIC        AngCalDataInit
  C:5E3EH         PUBLIC        TempCalDataInit
  C:70FAH         PUBLIC        GetAngXCalCnt
  C:7100H         PUBLIC        GetAngYCalCnt
  C:70F4H         PUBLIC        GetTempXCalCnt
  C:6F06H         PUBLIC        _GetAngXCalAdcVal
  C:6F1EH         PUBLIC        _GetAngYCalAdcVal
  C:6EFAH         PUBLIC        _GetTempXCalAdcVal
  C:6F12H         PUBLIC        _GetTempYCalAdcVal
  X:0486H         SYMBOL        temp_buf
  C:6F59H         PUBLIC        _SetAngXCalCnt
  C:6F6FH         PUBLIC        _SetAngYCalCnt
  C:6F4EH         PUBLIC        _SetTempXCalCnt
BL51 BANKED LINKER/LOCATER V6.22                                                      07/01/2013  09:38:04  PAGE 35


  C:6F64H         PUBLIC        _SetTempYCalCnt
  C:6DEDH         SYMBOL        _Ang_RdAdcVal
  C:712AH         SYMBOL        _Ang_SetCalCnt
  C:6DCBH         SYMBOL        _Temp_RdAdcVal
  C:7126H         SYMBOL        _Temp_SetCalCnt
  C:6D30H         PUBLIC        _SetAngXCalAdcVal
  C:6D5AH         PUBLIC        _SetAngYCalAdcVal
  C:6D1BH         PUBLIC        _SetTempXCalAdcVal
  C:6D45H         PUBLIC        _SetTempYCalAdcVal
  C:6ED6H         PUBLIC        _GetAngXCalAngVal
  C:6EEEH         PUBLIC        _GetAngYCalAngVal
  C:6ECAH         PUBLIC        _GetTempXCalTempVal
  C:6EE2H         PUBLIC        _GetTempYCalTempVal
  C:6E60H         SYMBOL        _Ang_RdAngVal
  C:6C3CH         SYMBOL        _Temp_RdTempVal
  C:6F2AH         PUBLIC        _SetAngXCalAngVal
  C:6F36H         PUBLIC        _SetAngYCalAngVal
  C:6CF1H         PUBLIC        _SetTempXCalTempVal
  C:6DFEH         SYMBOL        _Ang_WrAdcVal
  C:6D06H         PUBLIC        _SetTempYCalTempVal
  C:6DDCH         SYMBOL        _Temp_WrAdcVal
  C:46FBH         PUBLIC        CalibInit
  -------         PROC          _TEMP_SETCALCNT
  D:0001H         SYMBOL        p_cal
  D:0005H         SYMBOL        num
  C:7126H         LINE#         36
  C:7126H         LINE#         37
  C:7126H         LINE#         38
  -------         ENDPROC       _TEMP_SETCALCNT
  -------         PROC          _TEMP_RDTEMPVAL
  D:0001H         SYMBOL        p_cal
  D:0005H         SYMBOL        posid
  C:6C3CH         LINE#         48
  C:6C3CH         LINE#         49
  C:6C3CH         LINE#         50
  C:6C52H         LINE#         51
  -------         ENDPROC       _TEMP_RDTEMPVAL
  -------         PROC          _TEMP_RDADCVAL
  D:0001H         SYMBOL        p_cal
  D:0005H         SYMBOL        posid
  C:6DCBH         LINE#         60
  C:6DCBH         LINE#         61
  C:6DCBH         LINE#         62
  C:6DDBH         LINE#         63
  -------         ENDPROC       _TEMP_RDADCVAL
  -------         PROC          _TEMP_WRTEMPVAL
  D:0001H         SYMBOL        p_cal
  D:0004H         SYMBOL        val
  D:002BH         SYMBOL        posid
  C:6C53H         LINE#         72
  C:6C53H         LINE#         73
  C:6C53H         LINE#         74
  -------         ENDPROC       _TEMP_WRTEMPVAL
  -------         PROC          _TEMP_WRADCVAL
  D:0001H         SYMBOL        p_cal
  D:0004H         SYMBOL        val
  D:002BH         SYMBOL        posid
BL51 BANKED LINKER/LOCATER V6.22                                                      07/01/2013  09:38:04  PAGE 36


  C:6DDCH         LINE#         84
  C:6DDCH         LINE#         85
  C:6DDCH         LINE#         86
  -------         ENDPROC       _TEMP_WRADCVAL
  -------         PROC          _TEMP_CALCPRM
  D:0031H         SYMBOL        p_cal
  -------         DO            
  D:0034H         SYMBOL        i
  -------         ENDDO         
  C:3DAAH         LINE#         96
  C:3DB0H         LINE#         97
  C:3DB0H         LINE#         99
  C:3DC7H         LINE#         100
  C:3DC7H         LINE#         101
  C:3E56H         LINE#         102
  C:3ED0H         LINE#         103
  C:3ED5H         LINE#         104
  -------         ENDPROC       _TEMP_CALCPRM
  -------         PROC          _ANG_SETCALCNT
  D:0001H         SYMBOL        p_cal
  D:0005H         SYMBOL        num
  C:712AH         LINE#         113
  C:712AH         LINE#         114
  C:712AH         LINE#         115
  -------         ENDPROC       _ANG_SETCALCNT
  -------         PROC          _ANG_RDANGVAL
  D:0001H         SYMBOL        p_cal
  D:0005H         SYMBOL        posid
  C:6E60H         LINE#         124
  C:6E60H         LINE#         125
  C:6E60H         LINE#         126
  C:6E6DH         LINE#         127
  -------         ENDPROC       _ANG_RDANGVAL
  -------         PROC          _ANG_RDADCVAL
  D:0001H         SYMBOL        p_cal
  D:0005H         SYMBOL        posid
  C:6DEDH         LINE#         136
  C:6DEDH         LINE#         137
  C:6DEDH         LINE#         138
  C:6DFDH         LINE#         139
  -------         ENDPROC       _ANG_RDADCVAL
  -------         PROC          _ANG_WRANGVAL
  D:0001H         SYMBOL        p_cal
  D:0004H         SYMBOL        val
  D:0045H         SYMBOL        posid
  C:6E6EH         LINE#         147
  C:6E6EH         LINE#         148
  C:6E6EH         LINE#         149
  -------         ENDPROC       _ANG_WRANGVAL
  -------         PROC          _ANG_WRADCVAL
  D:0001H         SYMBOL        p_cal
  D:0004H         SYMBOL        val
  D:003EH         SYMBOL        posid
  C:6DFEH         LINE#         159
  C:6DFEH         LINE#         160
  C:6DFEH         LINE#         161
  -------         ENDPROC       _ANG_WRADCVAL
BL51 BANKED LINKER/LOCATER V6.22                                                      07/01/2013  09:38:04  PAGE 37


  -------         PROC          _ANG_CALCPRM
  D:002DH         SYMBOL        p_cal
  -------         DO            
  D:0030H         SYMBOL        ang0
  D:0034H         SYMBOL        ang1
  D:0038H         SYMBOL        i
  -------         ENDDO         
  C:395EH         LINE#         171
  C:3964H         LINE#         172
  C:3964H         LINE#         177
  C:397BH         LINE#         178
  C:397BH         LINE#         179
  C:39ABH         LINE#         180
  C:39E1H         LINE#         181
  C:3A68H         LINE#         182
  C:3AD4H         LINE#         183
  C:3AD9H         LINE#         184
  -------         ENDPROC       _ANG_CALCPRM
  -------         PROC          GETTEMPXCALCNT
  C:70F4H         LINE#         194
  C:70F4H         LINE#         195
  C:70F4H         LINE#         196
  C:70F9H         LINE#         197
  -------         ENDPROC       GETTEMPXCALCNT
  -------         PROC          GETANGXCALCNT
  C:70FAH         LINE#         199
  C:70FAH         LINE#         200
  C:70FAH         LINE#         201
  C:70FFH         LINE#         202
  -------         ENDPROC       GETANGXCALCNT
  -------         PROC          GETANGYCALCNT
  C:7100H         LINE#         209
  C:7100H         LINE#         210
  C:7100H         LINE#         211
  C:7105H         LINE#         212
  -------         ENDPROC       GETANGYCALCNT
  -------         PROC          _SETTEMPXCALCNT
  D:0005H         SYMBOL        cnt
  C:6F4EH         LINE#         222
  C:6F50H         LINE#         223
  C:6F50H         LINE#         224
  -------         ENDPROC       _SETTEMPXCALCNT
  -------         PROC          _SETANGXCALCNT
  D:0005H         SYMBOL        cnt
  C:6F59H         LINE#         227
  C:6F5BH         LINE#         228
  C:6F5BH         LINE#         229
  -------         ENDPROC       _SETANGXCALCNT
  -------         PROC          _SETTEMPYCALCNT
  D:0005H         SYMBOL        cnt
  C:6F64H         LINE#         232
  C:6F66H         LINE#         233
  C:6F66H         LINE#         234
  -------         ENDPROC       _SETTEMPYCALCNT
  -------         PROC          _SETANGYCALCNT
  D:0005H         SYMBOL        cnt
  C:6F6FH         LINE#         237
BL51 BANKED LINKER/LOCATER V6.22                                                      07/01/2013  09:38:04  PAGE 38


  C:6F71H         LINE#         238
  C:6F71H         LINE#         239
  -------         ENDPROC       _SETANGYCALCNT
  -------         PROC          _SETTEMPCALCNT
  D:0006H         SYMBOL        cnt
  C:7040H         LINE#         242
  C:7042H         LINE#         243
  C:7042H         LINE#         244
  C:7045H         LINE#         245
  -------         ENDPROC       _SETTEMPCALCNT
  -------         PROC          _SETANGCALCNT
  D:0006H         SYMBOL        cnt
  C:7048H         LINE#         248
  C:704AH         LINE#         249
  C:704AH         LINE#         250
  C:704DH         LINE#         251
  -------         ENDPROC       _SETANGCALCNT
  -------         PROC          _GETTEMPXCALTEMPVAL
  D:0005H         SYMBOL        pos
  C:6ECAH         LINE#         263
  C:6ECCH         LINE#         264
  C:6ECCH         LINE#         265
  C:6ED5H         LINE#         266
  -------         ENDPROC       _GETTEMPXCALTEMPVAL
  -------         PROC          _GETANGXCALANGVAL
  D:0005H         SYMBOL        pos
  C:6ED6H         LINE#         273
  C:6ED8H         LINE#         274
  C:6ED8H         LINE#         275
  C:6EE1H         LINE#         276
  -------         ENDPROC       _GETANGXCALANGVAL
  -------         PROC          _GETTEMPYCALTEMPVAL
  D:0005H         SYMBOL        pos
  C:6EE2H         LINE#         284
  C:6EE4H         LINE#         285
  C:6EE4H         LINE#         286
  C:6EEDH         LINE#         287
  -------         ENDPROC       _GETTEMPYCALTEMPVAL
  -------         PROC          _GETANGYCALANGVAL
  D:0005H         SYMBOL        pos
  C:6EEEH         LINE#         294
  C:6EF0H         LINE#         295
  C:6EF0H         LINE#         296
  C:6EF9H         LINE#         297
  -------         ENDPROC       _GETANGYCALANGVAL
  -------         PROC          _GETTEMPXCALADCVAL
  D:0005H         SYMBOL        pos
  C:6EFAH         LINE#         305
  C:6EFCH         LINE#         306
  C:6EFCH         LINE#         307
  C:6F05H         LINE#         308
  -------         ENDPROC       _GETTEMPXCALADCVAL
  -------         PROC          _GETANGXCALADCVAL
  D:0005H         SYMBOL        pos
  C:6F06H         LINE#         315
  C:6F08H         LINE#         316
  C:6F08H         LINE#         317
BL51 BANKED LINKER/LOCATER V6.22                                                      07/01/2013  09:38:04  PAGE 39


  C:6F11H         LINE#         318
  -------         ENDPROC       _GETANGXCALADCVAL
  -------         PROC          _GETTEMPYCALADCVAL
  D:0005H         SYMBOL        pos
  C:6F12H         LINE#         325
  C:6F14H         LINE#         326
  C:6F14H         LINE#         327
  C:6F1DH         LINE#         328
  -------         ENDPROC       _GETTEMPYCALADCVAL
  -------         PROC          _GETANGYCALADCVAL
  D:0005H         SYMBOL        pos
  C:6F1EH         LINE#         335
  C:6F20H         LINE#         336
  C:6F20H         LINE#         337
  C:6F29H         LINE#         338
  -------         ENDPROC       _GETANGYCALADCVAL
  -------         PROC          _SETTEMPXCALTEMPVAL
  D:0082H         SYMBOL        val
  D:0007H         SYMBOL        pos
  C:6CF1H         LINE#         350
  C:6CF7H         LINE#         351
  C:6CF7H         LINE#         352
  -------         ENDPROC       _SETTEMPXCALTEMPVAL
  -------         PROC          _SETANGXCALANGVAL
  D:0004H         SYMBOL        val
  D:003DH         SYMBOL        pos
  C:6F2AH         LINE#         360
  C:6F2AH         LINE#         361
  C:6F2AH         LINE#         362
  -------         ENDPROC       _SETANGXCALANGVAL
  -------         PROC          _SETTEMPYCALTEMPVAL
  D:0082H         SYMBOL        val
  D:0007H         SYMBOL        pos
  C:6D06H         LINE#         370
  C:6D0CH         LINE#         371
  C:6D0CH         LINE#         372
  -------         ENDPROC       _SETTEMPYCALTEMPVAL
  -------         PROC          _SETANGYCALANGVAL
  D:0004H         SYMBOL        val
  D:003DH         SYMBOL        pos
  C:6F36H         LINE#         380
  C:6F36H         LINE#         381
  C:6F36H         LINE#         382
  -------         ENDPROC       _SETANGYCALANGVAL
  -------         PROC          _SETTEMPXCALADCVAL
  D:0082H         SYMBOL        val
  D:0007H         SYMBOL        pos
  C:6D1BH         LINE#         391
  C:6D21H         LINE#         392
  C:6D21H         LINE#         393
  -------         ENDPROC       _SETTEMPXCALADCVAL
  -------         PROC          _SETANGXCALADCVAL
  D:0082H         SYMBOL        val
  D:0007H         SYMBOL        pos
  C:6D30H         LINE#         402
  C:6D36H         LINE#         403
  C:6D36H         LINE#         404
BL51 BANKED LINKER/LOCATER V6.22                                                      07/01/2013  09:38:04  PAGE 40


  -------         ENDPROC       _SETANGXCALADCVAL
  -------         PROC          _SETTEMPYCALADCVAL
  D:0082H         SYMBOL        val
  D:0007H         SYMBOL        pos
  C:6D45H         LINE#         412
  C:6D4BH         LINE#         413
  C:6D4BH         LINE#         414
  -------         ENDPROC       _SETTEMPYCALADCVAL
  -------         PROC          _SETANGYCALADCVAL
  D:0082H         SYMBOL        val
  D:0007H         SYMBOL        pos
  C:6D5AH         LINE#         422
  C:6D60H         LINE#         423
  C:6D60H         LINE#         424
  -------         ENDPROC       _SETANGYCALADCVAL
  -------         PROC          TEMPXCALCPRM
  C:6FD4H         LINE#         431
  C:6FD4H         LINE#         432
  C:6FD4H         LINE#         433
  -------         ENDPROC       TEMPXCALCPRM
  -------         PROC          TEMPYCALCPRM
  C:6FDDH         LINE#         438
  C:6FDDH         LINE#         439
  C:6FDDH         LINE#         440
  -------         ENDPROC       TEMPYCALCPRM
  -------         PROC          ANGXCALCPRM
  C:6FE6H         LINE#         447
  C:6FE6H         LINE#         448
  C:6FE6H         LINE#         449
  -------         ENDPROC       ANGXCALCPRM
  -------         PROC          ANGYCALCPRM
  C:6FEFH         LINE#         455
  C:6FEFH         LINE#         456
  C:6FEFH         LINE#         457
  -------         ENDPROC       ANGYCALCPRM
  -------         PROC          TEMPCALDATAINIT
  -------         DO            
  D:0022H         SYMBOL        i
  -------         ENDDO         
  C:5E3EH         LINE#         467
  C:5E3EH         LINE#         468
  C:5E3EH         LINE#         470
  C:5E43H         LINE#         471
  C:5E46H         LINE#         472
  C:5E46H         LINE#         473
  C:5E70H         LINE#         474
  C:5E81H         LINE#         475
  C:5E92H         LINE#         476
  C:5E99H         LINE#         477
  -------         ENDPROC       TEMPCALDATAINIT
  -------         PROC          ANGCALDATAINIT
  -------         DO            
  D:0003H         SYMBOL        i
  -------         ENDDO         
  C:4116H         LINE#         486
  C:4116H         LINE#         487
  C:4116H         LINE#         489
BL51 BANKED LINKER/LOCATER V6.22                                                      07/01/2013  09:38:04  PAGE 41


  C:411BH         LINE#         490
  C:411DH         LINE#         491
  C:411DH         LINE#         492
  C:413CH         LINE#         493
  C:415EH         LINE#         495
  C:417DH         LINE#         496
  C:419FH         LINE#         497
  C:41A8H         LINE#         499
  C:41B2H         LINE#         500
  C:41BCH         LINE#         501
  C:41C6H         LINE#         502
  C:41D0H         LINE#         503
  C:41DAH         LINE#         504
  C:41E4H         LINE#         506
  C:41EEH         LINE#         507
  C:41F8H         LINE#         508
  C:4202H         LINE#         509
  C:420CH         LINE#         510
  C:4216H         LINE#         511
  C:4220H         LINE#         513
  -------         ENDPROC       ANGCALDATAINIT
  -------         PROC          CALIBINIT
  C:46FBH         LINE#         521
  C:46FBH         LINE#         522
  C:46FBH         LINE#         523
  C:4707H         LINE#         524
  C:4713H         LINE#         525
  C:471DH         LINE#         526
  C:4727H         LINE#         527
  C:4731H         LINE#         528
  C:473BH         LINE#         531
  C:4747H         LINE#         532
  C:4753H         LINE#         533
  C:475DH         LINE#         534
  C:4767H         LINE#         535
  C:4771H         LINE#         536
  C:477BH         LINE#         539
  C:4785H         LINE#         540
  C:478FH         LINE#         541
  C:4799H         LINE#         542
  C:47A3H         LINE#         543
  C:47ADH         LINE#         546
  C:47B7H         LINE#         547
  C:47C1H         LINE#         548
  C:47CBH         LINE#         549
  C:47D5H         LINE#         550
  -------         ENDPROC       CALIBINIT
  -------         ENDMOD        CALIBRATION

  -------         MODULE        CMDSUB
  C:0000H         SYMBOL        _ICE_DUMMY_
  C:6C81H         PUBLIC        Adc_YCalSta
  C:595DH         SYMBOL        TempSortAndCalcPrm
  D:0012H         SYMBOL        px_axis
  D:0014H         SYMBOL        py_axis
  D:00A0H         PUBLIC        P2
  X:0B32H         SYMBOL        temp_xcalref
BL51 BANKED LINKER/LOCATER V6.22                                                      07/01/2013  09:38:04  PAGE 42


  X:0B34H         SYMBOL        temp_ycalref
  C:5C4CH         PUBLIC        _Temp_CalSamp
  C:5BF5H         PUBLIC        _AngChkDiff
  C:4613H         PUBLIC        _Temp_CalTRefSet
  X:0B36H         PUBLIC        SendSpeedNum
  C:6CAFH         PUBLIC        Temp_CalStop
  C:6D83H         PUBLIC        Temp_CalSta
  X:0B37H         PUBLIC        SystemVer
  X:0B47H         PUBLIC        SendActPosi
  X:0B48H         PUBLIC        ACalXId
  X:0B49H         PUBLIC        ACalYId
  C:4999H         PUBLIC        _Adc_XCalProc
  C:4A73H         PUBLIC        _Adc_YCalProc
  C:5800H         PUBLIC        _Temp_CalValWr
  C:5569H         PUBLIC        Adc_XCalStop
  C:55F0H         PUBLIC        Adc_YCalStop
  C:6C6AH         PUBLIC        Adc_XCalSta
  -------         PROC          L?0040
  -------         ENDPROC       L?0040
  -------         PROC          _ANGCHKDIFF
  D:0032H         SYMBOL        ang
  D:0036H         SYMBOL        adc
  D:0038H         SYMBOL        num
  D:0039H         SYMBOL        angarr
  D:003CH         SYMBOL        adcarr
  -------         DO            
  D:003FH         SYMBOL        i
  -------         ENDDO         
  C:5BF5H         LINE#         38
  C:5BFDH         LINE#         39
  C:5BFDH         LINE#         41
  C:5C07H         LINE#         42
  C:5C29H         LINE#         43
  C:5C29H         LINE#         44
  C:5C42H         LINE#         45
  C:5C45H         LINE#         46
  C:5C45H         LINE#         47
  C:5C49H         LINE#         48
  C:5C4BH         LINE#         49
  -------         ENDPROC       _ANGCHKDIFF
  -------         PROC          TEMPSORTANDCALCPRM
  C:595DH         LINE#         81
  C:595DH         LINE#         82
  C:595DH         LINE#         84
  C:59C7H         LINE#         86
  C:59CAH         LINE#         87
  -------         ENDPROC       TEMPSORTANDCALCPRM
  -------         PROC          _TEMP_CALVALWR
  D:0033H         SYMBOL        id
  D:0004H         SYMBOL        temp
  D:0036H         SYMBOL        x
  D:0038H         SYMBOL        y
  C:5800H         LINE#         97
  C:5806H         LINE#         98
  C:5806H         LINE#         99
  C:5810H         LINE#         100
  C:5831H         LINE#         102
BL51 BANKED LINKER/LOCATER V6.22                                                      07/01/2013  09:38:04  PAGE 43


  C:5852H         LINE#         103
  C:5873H         LINE#         104
  C:5875H         LINE#         105
  -------         ENDPROC       _TEMP_CALVALWR
  -------         PROC          TEMP_CALSTA
  C:6D83H         LINE#         113
  C:6D83H         LINE#         114
  C:6D83H         LINE#         115
  C:6D8CH         LINE#         116
  C:6D92H         LINE#         117
  C:6D94H         LINE#         118
  -------         ENDPROC       TEMP_CALSTA
  -------         PROC          TEMP_CALSTOP
  C:6CAFH         LINE#         126
  C:6CAFH         LINE#         127
  C:6CAFH         LINE#         128
  C:6CBAH         LINE#         129
  C:6CBFH         LINE#         130
  C:6CC2H         LINE#         131
  C:6CC4H         LINE#         132
  -------         ENDPROC       TEMP_CALSTOP
  -------         PROC          _TEMP_CALSAMP
  D:0007H         SYMBOL        id
  D:002DH         SYMBOL        temp
  D:002FH         SYMBOL        x
  D:0031H         SYMBOL        y
  C:5C4CH         LINE#         134
  C:5C54H         LINE#         135
  C:5C54H         LINE#         136
  C:5C5CH         LINE#         137
  C:5C5FH         LINE#         139
  C:5C62H         LINE#         140
  C:5C62H         LINE#         141
  C:5C6CH         LINE#         142
  C:5C74H         LINE#         143
  C:5C74H         LINE#         144
  C:5C9EH         LINE#         145
  C:5CA0H         LINE#         147
  C:5CAFH         LINE#         148
  C:5CB1H         LINE#         149
  -------         ENDPROC       _TEMP_CALSAMP
  -------         PROC          _TEMP_CALTREFSET
  D:002CH         SYMBOL        id
  -------         DO            
  D:0007H         SYMBOL        i
  D:002DH         SYMBOL        x
  D:002FH         SYMBOL        y
  -------         ENDDO         
  C:4613H         LINE#         157
  C:4615H         LINE#         158
  C:4615H         LINE#         162
  C:4631H         LINE#         163
  C:4652H         LINE#         164
  C:4673H         LINE#         166
  C:468CH         LINE#         167
  C:468CH         LINE#         168
  C:46BCH         LINE#         169
BL51 BANKED LINKER/LOCATER V6.22                                                      07/01/2013  09:38:04  PAGE 44


  C:46ECH         LINE#         170
  C:46EFH         LINE#         171
  C:46F5H         LINE#         172
  C:46F8H         LINE#         173
  C:46FAH         LINE#         174
  -------         ENDPROC       _TEMP_CALTREFSET
  -------         PROC          ADC_XCALSTA
  C:6C6AH         LINE#         185
  C:6C6AH         LINE#         186
  C:6C6AH         LINE#         187
  C:6C73H         LINE#         188
  C:6C79H         LINE#         189
  C:6C7EH         LINE#         190
  C:6C80H         LINE#         191
  -------         ENDPROC       ADC_XCALSTA
  -------         PROC          _ADC_XCALPROC
  D:002CH         SYMBOL        ang
  D:0030H         SYMBOL        adc
  C:4999H         LINE#         199
  C:49A1H         LINE#         200
  C:49A1H         LINE#         201
  C:49ACH         LINE#         202
  C:49EFH         LINE#         203
  C:49F2H         LINE#         204
  C:4A0FH         LINE#         205
  C:4A40H         LINE#         206
  C:4A6AH         LINE#         207
  C:4A70H         LINE#         208
  C:4A72H         LINE#         209
  -------         ENDPROC       _ADC_XCALPROC
  -------         PROC          ADC_XCALSTOP
  -------         DO            
  D:002CH         SYMBOL        n
  -------         ENDDO         
  C:5569H         LINE#         218
  C:5569H         LINE#         219
  C:5569H         LINE#         220
  C:557EH         LINE#         222
  C:5589H         LINE#         223
  C:5594H         LINE#         224
  C:5599H         LINE#         225
  C:55EAH         LINE#         227
  C:55EDH         LINE#         228
  C:55EFH         LINE#         229
  -------         ENDPROC       ADC_XCALSTOP
  -------         PROC          ADC_YCALSTA
  C:6C81H         LINE#         239
  C:6C81H         LINE#         240
  C:6C81H         LINE#         241
  C:6C8AH         LINE#         242
  C:6C90H         LINE#         243
  C:6C95H         LINE#         244
  C:6C97H         LINE#         245
  -------         ENDPROC       ADC_YCALSTA
  -------         PROC          _ADC_YCALPROC
  D:002CH         SYMBOL        ang
  D:0030H         SYMBOL        adc
BL51 BANKED LINKER/LOCATER V6.22                                                      07/01/2013  09:38:04  PAGE 45


  C:4A73H         LINE#         252
  C:4A7BH         LINE#         253
  C:4A7BH         LINE#         254
  C:4A86H         LINE#         255
  C:4AC9H         LINE#         256
  C:4ACCH         LINE#         257
  C:4AE9H         LINE#         258
  C:4B1AH         LINE#         259
  C:4B44H         LINE#         260
  C:4B4AH         LINE#         261
  C:4B4CH         LINE#         262
  -------         ENDPROC       _ADC_YCALPROC
  -------         PROC          ADC_YCALSTOP
  -------         DO            
  D:002CH         SYMBOL        n
  -------         ENDDO         
  C:55F0H         LINE#         264
  C:55F0H         LINE#         265
  C:55F0H         LINE#         266
  C:5605H         LINE#         268
  C:5610H         LINE#         269
  C:561BH         LINE#         270
  C:5620H         LINE#         271
  C:5671H         LINE#         273
  C:5674H         LINE#         274
  C:5676H         LINE#         275
  -------         ENDPROC       ADC_YCALSTOP
  -------         ENDMOD        CMDSUB

  -------         MODULE        COMM
  C:0000H         SYMBOL        _ICE_DUMMY_
  D:0090H         PUBLIC        P1
  D:00A0H         PUBLIC        P2
  B:00A8H.7       PUBLIC        EA
  C:002EH         PUBLIC        Comm_TimerProc
  C:6F9BH         PUBLIC        Comm_TimerInit
  D:00A7H         PUBLIC        SFRPAGE
  C:5041H         PUBLIC        _Comm_GetChar
  X:06B0H         SYMBOL        CommTimer
  D:00B8H         PUBLIC        IP
  C:58EBH         PUBLIC        Comm_Isr
  C:712EH         PUBLIC        Comm_SendStop
  C:7106H         PUBLIC        Comm_SendSta
  D:00ABH         PUBLIC        SBCON0
  B:0098H.7       PUBLIC        OVR0
  C:53C7H         PUBLIC        _Comm_PutChar
  X:06B2H         PUBLIC        CommBuf
  C:6B4AH         PUBLIC        Comm_HardwareInit
  B:00A8H.4       PUBLIC        ES0
  B:0098H.0       PUBLIC        RI0
  B:0098H.1       PUBLIC        TI0
  B:0020H.0       PUBLIC        CommRxFlag
  C:521FH         PUBLIC        Comm_SoftwareInit
  B:0020H.1       PUBLIC        CommTxFlag
  C:4F9CH         PUBLIC        _Comm_GetTxChar
  D:0099H         PUBLIC        SBUF0
  C:6A70H         PUBLIC        _Comm_PutStr
BL51 BANKED LINKER/LOCATER V6.22                                                      07/01/2013  09:38:04  PAGE 46


  D:00ACH         PUBLIC        SBRL0
  D:0098H         PUBLIC        SCON0
  C:56FCH         PUBLIC        _Comm_PutRxChar
  -------         PROC          COMM_ISR
  -------         DO            
  D:006EH         SYMBOL        temp
  D:006FH         SYMBOL        err
  -------         ENDDO         
  C:58EBH         LINE#         29
  C:5908H         LINE#         34
  C:590BH         LINE#         35
  C:590DH         LINE#         36
  C:5918H         LINE#         37
  C:591EH         LINE#         38
  C:5921H         LINE#         40
  C:5923H         LINE#         41
  C:5925H         LINE#         43
  C:5928H         LINE#         44
  C:592AH         LINE#         45
  C:592AH         LINE#         46
  C:592AH         LINE#         48
  C:592DH         LINE#         49
  C:592FH         LINE#         50
  C:5932H         LINE#         52
  C:5935H         LINE#         54
  C:5935H         LINE#         55
  C:593AH         LINE#         56
  C:593DH         LINE#         58
  C:593DH         LINE#         59
  C:593DH         LINE#         61
  C:5940H         LINE#         62
  C:5942H         LINE#         63
  C:5942H         LINE#         64
  -------         ENDPROC       COMM_ISR
  -------         PROC          COMM_HARDWAREINIT
  -------         DO            
  D:0007H         SYMBOL        SfrPage_
  -------         ENDDO         
  C:6B4AH         LINE#         66
  C:6B4AH         LINE#         67
  C:6B4CH         LINE#         70
  C:6B4FH         LINE#         71
  C:6B52H         LINE#         75
  C:6B58H         LINE#         76
  C:6B5BH         LINE#         90
  C:6B5EH         LINE#         91
  C:6B60H         LINE#         93
  C:6B63H         LINE#         94
  C:6B65H         LINE#         95
  C:6B67H         LINE#         96
  -------         ENDPROC       COMM_HARDWAREINIT
  -------         PROC          COMM_SOFTWAREINIT
  -------         DO            
  D:0021H         SYMBOL        p_buf
  -------         ENDDO         
  C:521FH         LINE#         98
  C:521FH         LINE#         99
BL51 BANKED LINKER/LOCATER V6.22                                                      07/01/2013  09:38:04  PAGE 47


  C:521FH         LINE#         100
  C:5228H         LINE#         102
  C:5234H         LINE#         103
  C:524FH         LINE#         104
  C:526AH         LINE#         105
  C:5279H         LINE#         106
  C:5292H         LINE#         107
  C:52ADH         LINE#         108
  -------         ENDPROC       COMM_SOFTWAREINIT
  -------         PROC          COMM_SENDSTA
  C:7106H         LINE#         129
  C:7106H         LINE#         130
  C:7106H         LINE#         131
  C:7109H         LINE#         132
  C:710BH         LINE#         133
  -------         ENDPROC       COMM_SENDSTA
  -------         PROC          COMM_SENDSTOP
  C:712EH         LINE#         135
  C:712EH         LINE#         136
  C:712EH         LINE#         137
  C:7131H         LINE#         138
  -------         ENDPROC       COMM_SENDSTOP
  -------         PROC          _COMM_GETTXCHAR
  D:0070H         SYMBOL        err
  -------         DO            
  D:0073H         SYMBOL        p_buf
  D:0007H         SYMBOL        c
  -------         ENDDO         
  C:4F9CH         LINE#         147
  C:4FA2H         LINE#         148
  C:4FAEH         LINE#         151
  C:4FB0H         LINE#         152
  C:4FBFH         LINE#         153
  C:4FCFH         LINE#         154
  C:4FDDH         LINE#         155
  C:5009H         LINE#         156
  C:5024H         LINE#         157
  C:5024H         LINE#         158
  C:502EH         LINE#         159
  C:5030H         LINE#         160
  C:5031H         LINE#         161
  C:5031H         LINE#         163
  C:503CH         LINE#         164
  C:503EH         LINE#         165
  C:5040H         LINE#         166
  C:5040H         LINE#         167
  -------         ENDPROC       _COMM_GETTXCHAR
  -------         PROC          _COMM_PUTCHAR
  D:0007H         SYMBOL        c
  -------         DO            
  D:003CH         SYMBOL        p_buf
  -------         ENDDO         
  C:53C7H         LINE#         176
  C:53C7H         LINE#         177
  C:53D3H         LINE#         179
  C:53D5H         LINE#         180
  C:53E4H         LINE#         181
BL51 BANKED LINKER/LOCATER V6.22                                                      07/01/2013  09:38:04  PAGE 48


  C:53F4H         LINE#         182
  C:5402H         LINE#         183
  C:542EH         LINE#         184
  C:5449H         LINE#         185
  C:5449H         LINE#         186
  C:544BH         LINE#         187
  C:544EH         LINE#         188
  C:544EH         LINE#         190
  C:5450H         LINE#         191
  C:5452H         LINE#         192
  C:5452H         LINE#         193
  -------         ENDPROC       _COMM_PUTCHAR
  -------         PROC          _COMM_PUTRXCHAR
  D:0007H         SYMBOL        c
  -------         DO            
  D:0070H         SYMBOL        p_buf
  -------         ENDDO         
  C:56FCH         LINE#         206
  C:56FCH         LINE#         207
  C:5708H         LINE#         209
  C:570AH         LINE#         210
  C:5716H         LINE#         211
  C:5723H         LINE#         212
  C:5737H         LINE#         213
  C:5762H         LINE#         214
  C:577DH         LINE#         215
  C:577DH         LINE#         216
  C:577DH         LINE#         217
  C:577FH         LINE#         218
  -------         ENDPROC       _COMM_PUTRXCHAR
  -------         PROC          _COMM_GETCHAR
  D:0021H         SYMBOL        err
  -------         DO            
  D:0024H         SYMBOL        p_buf
  D:0007H         SYMBOL        c
  -------         ENDDO         
  C:5041H         LINE#         226
  C:5047H         LINE#         227
  C:5053H         LINE#         230
  C:5055H         LINE#         231
  C:5061H         LINE#         232
  C:506EH         LINE#         233
  C:5082H         LINE#         234
  C:50ADH         LINE#         235
  C:50C8H         LINE#         236
  C:50C8H         LINE#         237
  C:50D2H         LINE#         238
  C:50D4H         LINE#         239
  C:50D5H         LINE#         240
  C:50D5H         LINE#         242
  C:50E0H         LINE#         243
  C:50E2H         LINE#         244
  C:50E4H         LINE#         245
  C:50E4H         LINE#         246
  -------         ENDPROC       _COMM_GETCHAR
  -------         PROC          _COMM_PUTSTR
  D:0039H         SYMBOL        ptr
BL51 BANKED LINKER/LOCATER V6.22                                                      07/01/2013  09:38:04  PAGE 49


  D:0005H         SYMBOL        n
  -------         DO            
  D:0006H         SYMBOL        i
  -------         ENDDO         
  C:6A70H         LINE#         249
  C:6A76H         LINE#         250
  C:6A76H         LINE#         252
  C:6A7DH         LINE#         253
  C:6A8DH         LINE#         254
  C:6A90H         LINE#         255
  -------         ENDPROC       _COMM_PUTSTR
  -------         PROC          COMM_TIMERINIT
  C:6F9BH         LINE#         263
  C:6F9BH         LINE#         264
  C:6F9BH         LINE#         265
  C:6FA4H         LINE#         266
  -------         ENDPROC       COMM_TIMERINIT
  -------         PROC          COMM_TIMERPROC
  C:002EH         LINE#         268
  C:002EH         LINE#         269
  C:002EH         LINE#         270
  C:003DH         LINE#         271
  C:003DH         LINE#         272
  C:0048H         LINE#         273
  C:004AH         LINE#         274
  C:004AH         LINE#         275
  -------         ENDPROC       COMM_TIMERPROC
  -------         ENDMOD        COMM

  -------         MODULE        DELAY
  C:0000H         SYMBOL        _ICE_DUMMY_
  D:00A0H         PUBLIC        P2
  C:6FA5H         PUBLIC        delay_ms_
  C:6F7AH         PUBLIC        _delay_cyc
  C:6C98H         PUBLIC        _delay_ms
  C:6E42H         PUBLIC        delay_100us
  -------         PROC          DELAY_100US
  -------         DO            
  D:0006H         SYMBOL        i
  -------         ENDDO         
  C:6E42H         LINE#         25
  C:6E42H         LINE#         26
  C:6E42H         LINE#         29
  C:6E50H         LINE#         30
  -------         ENDPROC       DELAY_100US
  -------         PROC          DELAY_MS_
  -------         DO            
  D:0005H         SYMBOL        i
  -------         ENDDO         
  C:6FA5H         LINE#         32
  C:6FA5H         LINE#         33
  C:6FA5H         LINE#         36
  C:6FA7H         LINE#         37
  C:6FAAH         LINE#         38
  C:6FAEH         LINE#         39
  -------         ENDPROC       DELAY_MS_
  -------         PROC          _DELAY_MS
BL51 BANKED LINKER/LOCATER V6.22                                                      07/01/2013  09:38:04  PAGE 50


  D:0002H         SYMBOL        n
  -------         DO            
  D:0082H         SYMBOL        i
  -------         ENDDO         
  C:6C98H         LINE#         41
  C:6C9CH         LINE#         42
  C:6C9CH         LINE#         45
  C:6CA8H         LINE#         46
  C:6CABH         LINE#         47
  C:6CAEH         LINE#         48
  -------         ENDPROC       _DELAY_MS
  -------         PROC          _DELAY_CYC
  D:0006H         SYMBOL        n
  C:6F7AH         LINE#         50
  C:6F7AH         LINE#         51
  C:6F7AH         LINE#         52
  C:6F84H         LINE#         53
  -------         ENDPROC       _DELAY_CYC
  -------         ENDMOD        DELAY

  -------         MODULE        FILTER
  C:0000H         SYMBOL        _ICE_DUMMY_
  C:48BEH         PUBLIC        _SlideWinFilter
  C:6A07H         PUBLIC        _ValInRange
  C:5DE1H         PUBLIC        _Filter_1st
  -------         PROC          _VALINRANGE
  D:0006H         SYMBOL        old_val
  D:0004H         SYMBOL        new_val
  D:0002H         SYMBOL        range
  C:6A07H         LINE#         26
  C:6A07H         LINE#         27
  C:6A07H         LINE#         28
  C:6A25H         LINE#         29
  C:6A28H         LINE#         31
  C:6A2AH         LINE#         32
  -------         ENDPROC       _VALINRANGE
  -------         PROC          _SLIDEWINFILTER
  D:005CH         SYMBOL        pbufpos
  D:005FH         SYMBOL        pbufcnt
  D:0062H         SYMBOL        pbuf
  D:0065H         SYMBOL        val
  D:0067H         SYMBOL        ftcnt
  -------         DO            
  D:0069H         SYMBOL        data_ram
  D:006DH         SYMBOL        i
  -------         ENDDO         
  C:48BEH         LINE#         41
  C:48C4H         LINE#         42
  C:48C4H         LINE#         43
  C:48CDH         LINE#         45
  C:48DBH         LINE#         46
  C:48DBH         LINE#         47
  C:48DFH         LINE#         48
  C:48DFH         LINE#         50
  C:490BH         LINE#         51
  C:4916H         LINE#         54
  C:4927H         LINE#         55
BL51 BANKED LINKER/LOCATER V6.22                                                      07/01/2013  09:38:04  PAGE 51


  C:4927H         LINE#         56
  C:492CH         LINE#         57
  C:4931H         LINE#         58
  C:4931H         LINE#         60
  C:4931H         LINE#         61
  C:493EH         LINE#         62
  C:493EH         LINE#         63
  C:496EH         LINE#         64
  C:4972H         LINE#         65
  C:4998H         LINE#         66
  C:4998H         LINE#         67
  C:4998H         LINE#         68
  -------         ENDPROC       _SLIDEWINFILTER
  -------         PROC          _FILTER_1ST
  D:0027H         SYMBOL        old_val
  D:002BH         SYMBOL        new_val
  D:002DH         SYMBOL        filtercnt
  C:5DE1H         LINE#         77
  C:5DE9H         LINE#         78
  C:5DE9H         LINE#         79
  C:5E3DH         LINE#         80
  -------         ENDPROC       _FILTER_1ST
  -------         ENDMOD        FILTER

  -------         MODULE        FLASH
  C:0000H         SYMBOL        _ICE_DUMMY_
  D:00A0H         PUBLIC        P2
  B:00A8H.7       PUBLIC        EA
  D:008FH         PUBLIC        PSCTL
  C:6E7CH         SYMBOL        FlashChk
  D:00A7H         PUBLIC        SFRPAGE
  C:5F5FH         SYMBOL        _Flash_BufRd
  C:710CH         SYMBOL        Ram_CalDataInit
  C:60F8H         SYMBOL        Ram_CalDataInit_User
  D:00FFH         PUBLIC        VDM0CN
  X:04B0H         PUBLIC        DispBuf
  C:5CB2H         SYMBOL        _Flash_BufWr
  C:6945H         SYMBOL        _Flash_PageErase
  C:64C8H         PUBLIC        Flash_CalDataUpdate
  C:615AH         SYMBOL        _Flash_CalDataUpdate_User
  C:6C24H         PUBLIC        Flash_UserDataUpdate
  C:682EH         SYMBOL        _FlashUpdate
  C:2E0DH         SYMBOL        _Ram_Buf2CalData
  C:2930H         SYMBOL        _Ram_CalData2Buf
  D:00EFH         PUBLIC        RSTSRC
  D:00ACH         PUBLIC        SBRL0
  C:66FBH         SYMBOL        _Flash_CheckSum
  C:5FA6H         SYMBOL        FlashArea_User
  C:4324H         PUBLIC        Flash_CalDataInit
  D:00B7H         PUBLIC        FLKEY
  -------         PROC          FLASH_CALDATAINIT
  -------         DO            
  D:0021H         SYMBOL        SfrPage_
  -------         ENDDO         
  C:4324H         LINE#         40
  C:4324H         LINE#         41
  C:4324H         LINE#         42
BL51 BANKED LINKER/LOCATER V6.22                                                      07/01/2013  09:38:04  PAGE 52


  C:4327H         LINE#         43
  C:433AH         LINE#         44
  C:4342H         LINE#         45
  C:4342H         LINE#         46
  C:4345H         LINE#         47
  C:4348H         LINE#         48
  C:434BH         LINE#         50
  C:434BH         LINE#         51
  C:4350H         LINE#         52
  C:4353H         LINE#         53
  C:4363H         LINE#         54
  C:4363H         LINE#         55
  C:4366H         LINE#         56
  C:4368H         LINE#         58
  C:4368H         LINE#         59
  C:437BH         LINE#         60
  C:438BH         LINE#         61
  C:438BH         LINE#         62
  C:438EH         LINE#         63
  C:4393H         LINE#         64
  C:43A4H         LINE#         65
  C:43A6H         LINE#         67
  C:43A6H         LINE#         68
  C:43A9H         LINE#         69
  C:43AEH         LINE#         70
  C:43AEH         LINE#         71
  C:43AEH         LINE#         73
  C:43AEH         LINE#         75
  C:43B6H         LINE#         76
  C:43BEH         LINE#         78
  C:43C4H         LINE#         79
  C:43C7H         LINE#         81
  C:43CDH         LINE#         82
  C:43D0H         LINE#         84
  C:43D6H         LINE#         85
  C:43D9H         LINE#         87
  C:43F4H         LINE#         89
  C:43F7H         LINE#         90
  C:4422H         LINE#         91
  C:4425H         LINE#         92
  -------         ENDPROC       FLASH_CALDATAINIT
  -------         PROC          FLASH_CALDATAUPDATE
  C:64C8H         LINE#         100
  C:64C8H         LINE#         101
  C:64C8H         LINE#         102
  C:64CDH         LINE#         103
  C:64E0H         LINE#         104
  C:64E5H         LINE#         105
  C:64F8H         LINE#         106
  -------         ENDPROC       FLASH_CALDATAUPDATE
  -------         PROC          FLASH_USERDATAUPDATE
  C:6C24H         LINE#         108
  C:6C24H         LINE#         109
  C:6C24H         LINE#         111
  C:6C27H         LINE#         112
  -------         ENDPROC       FLASH_USERDATAUPDATE
  -------         PROC          _FLASHUPDATE
BL51 BANKED LINKER/LOCATER V6.22                                                      07/01/2013  09:38:04  PAGE 53


  D:0042H         SYMBOL        addr
  D:0044H         SYMBOL        buf
  D:0047H         SYMBOL        n
  -------         DO            
  B:0020H.2       SYMBOL        ea_temp
  -------         ENDDO         
  C:682EH         LINE#         116
  C:6838H         LINE#         117
  C:6838H         LINE#         118
  C:683CH         LINE#         119
  C:683EH         LINE#         121
  C:6841H         LINE#         122
  C:6848H         LINE#         123
  C:685BH         LINE#         125
  C:685FH         LINE#         126
  -------         ENDPROC       _FLASHUPDATE
  C:6156H         SYMBOL        L?0083
  -------         PROC          L?0082
  -------         ENDPROC       L?0082
  C:6156H         SYMBOL        L?0083
  -------         PROC          _FLASH_CALDATAUPDATE_USER
  D:0039H         SYMBOL        page
  D:003AH         SYMBOL        addr
  D:003CH         SYMBOL        buf
  D:003FH         SYMBOL        n
  -------         DO            
  D:0041H         SYMBOL        sum
  D:0082H         SYMBOL        pread
  -------         ENDDO         
  C:615AH         LINE#         135
  C:6166H         LINE#         136
  C:6166H         LINE#         140
  C:6172H         LINE#         142
  C:6176H         LINE#         143
  C:617BH         LINE#         145
  C:6183H         LINE#         146
  C:6196H         LINE#         147
  -------         ENDPROC       _FLASH_CALDATAUPDATE_USER
  -------         PROC          RAM_CALDATAINIT
  C:710CH         LINE#         155
  C:710CH         LINE#         156
  C:710CH         LINE#         157
  C:710FH         LINE#         158
  -------         ENDPROC       RAM_CALDATAINIT
  -------         PROC          _RAM_CALDATA2BUF
  D:0042H         SYMBOL        page
  -------         DO            
  D:0043H         SYMBOL        i
  D:0044H         SYMBOL        j
  D:0046H         SYMBOL        k
  -------         ENDDO         
  C:2930H         LINE#         161
  C:2932H         LINE#         162
  C:2932H         LINE#         165
  C:293BH         LINE#         166
  C:293BH         LINE#         167
  C:293DH         LINE#         168
BL51 BANKED LINKER/LOCATER V6.22                                                      07/01/2013  09:38:04  PAGE 54


  C:293DH         LINE#         170
  C:2950H         LINE#         171
  C:2963H         LINE#         172
  C:2978H         LINE#         173
  C:298DH         LINE#         175
  C:2996H         LINE#         177
  C:2999H         LINE#         178
  C:2999H         LINE#         179
  C:29B3H         LINE#         180
  C:29BAH         LINE#         182
  C:29C0H         LINE#         183
  C:29C3H         LINE#         184
  C:29C3H         LINE#         186
  C:29E9H         LINE#         187
  C:2A0FH         LINE#         188
  C:2A35H         LINE#         189
  C:2A3EH         LINE#         191
  C:2A46H         LINE#         192
  C:2A4EH         LINE#         193
  C:2A5DH         LINE#         196
  C:2A66H         LINE#         197
  C:2A6FH         LINE#         198
  C:2A75H         LINE#         200
  C:2A7BH         LINE#         201
  C:2A7BH         LINE#         202
  C:2A7BH         LINE#         203
  C:2A89H         LINE#         204
  C:2A99H         LINE#         206
  C:2A99H         LINE#         207
  C:2A99H         LINE#         208
  C:2A9CH         LINE#         209
  C:2AA5H         LINE#         210
  C:2AA5H         LINE#         211
  C:2AADH         LINE#         212
  C:2AB5H         LINE#         213
  C:2ABDH         LINE#         214
  C:2AC5H         LINE#         215
  C:2AD4H         LINE#         216
  C:2AE0H         LINE#         218
  C:2AE6H         LINE#         220
  C:2AF8H         LINE#         221
  C:2B0AH         LINE#         223
  C:2B1CH         LINE#         224
  C:2B2EH         LINE#         226
  C:2B40H         LINE#         227
  C:2B52H         LINE#         228
  C:2B64H         LINE#         229
  C:2B7CH         LINE#         231
  C:2B87H         LINE#         232
  C:2B8EH         LINE#         233
  C:2B8EH         LINE#         234
  C:2B9CH         LINE#         235
  C:2BA6H         LINE#         238
  C:2BACH         LINE#         239
  C:2BB4H         LINE#         240
  C:2BB4H         LINE#         241
  -------         ENDPROC       _RAM_CALDATA2BUF
BL51 BANKED LINKER/LOCATER V6.22                                                      07/01/2013  09:38:04  PAGE 55


  -------         PROC          _RAM_BUF2CALDATA
  D:0022H         SYMBOL        page
  -------         DO            
  D:0023H         SYMBOL        i
  D:0024H         SYMBOL        j
  -------         ENDDO         
  C:2E0DH         LINE#         247
  C:2E0FH         LINE#         248
  C:2E0FH         LINE#         250
  C:2E18H         LINE#         251
  C:2E18H         LINE#         252
  C:2E1AH         LINE#         253
  C:2E1AH         LINE#         260
  C:2E2EH         LINE#         261
  C:2E42H         LINE#         262
  C:2E57H         LINE#         263
  C:2E6CH         LINE#         265
  C:2E75H         LINE#         267
  C:2E78H         LINE#         268
  C:2E78H         LINE#         269
  C:2E92H         LINE#         270
  C:2E99H         LINE#         273
  C:2E9FH         LINE#         274
  C:2EA2H         LINE#         275
  C:2EA2H         LINE#         276
  C:2EC8H         LINE#         277
  C:2EEEH         LINE#         278
  C:2F14H         LINE#         280
  C:2F1DH         LINE#         282
  C:2F25H         LINE#         283
  C:2F2DH         LINE#         284
  C:2F3CH         LINE#         286
  C:2F45H         LINE#         287
  C:2F4EH         LINE#         288
  C:2F54H         LINE#         289
  C:2F54H         LINE#         290
  C:2F5DH         LINE#         291
  C:2F5DH         LINE#         292
  C:2F65H         LINE#         293
  C:2F6DH         LINE#         294
  C:2F75H         LINE#         295
  C:2F7DH         LINE#         296
  C:2F8CH         LINE#         297
  C:2F98H         LINE#         299
  C:2F9EH         LINE#         301
  C:2FB0H         LINE#         302
  C:2FC2H         LINE#         304
  C:2FD4H         LINE#         305
  C:2FE6H         LINE#         307
  C:2FF8H         LINE#         308
  C:300AH         LINE#         309
  C:301CH         LINE#         310
  C:3030H         LINE#         312
  C:3030H         LINE#         313
  -------         ENDPROC       _RAM_BUF2CALDATA
  C:66F1H         SYMBOL        L?0081
  -------         PROC          L?0080
BL51 BANKED LINKER/LOCATER V6.22                                                      07/01/2013  09:38:04  PAGE 56


  -------         ENDPROC       L?0080
  C:66F1H         SYMBOL        L?0081
  -------         PROC          _FLASH_CHECKSUM
  D:0001H         SYMBOL        addr
  D:0048H         SYMBOL        n
  -------         DO            
  D:004AH         SYMBOL        pread
  D:0004H         SYMBOL        i
  D:0007H         SYMBOL        sum
  -------         ENDDO         
  C:66FBH         LINE#         317
  C:66FFH         LINE#         318
  C:66FFH         LINE#         320
  C:6701H         LINE#         321
  C:6707H         LINE#         322
  C:6712H         LINE#         323
  C:6712H         LINE#         324
  C:6720H         LINE#         325
  C:6727H         LINE#         326
  C:6727H         LINE#         327
  -------         ENDPROC       _FLASH_CHECKSUM
  -------         PROC          _FLASH_PAGEERASE
  D:0006H         SYMBOL        addr
  -------         DO            
  D:0082H         SYMBOL        pwrite
  B:0020H.3       SYMBOL        ea_temp
  -------         ENDDO         
  C:6945H         LINE#         336
  C:6945H         LINE#         337
  C:6945H         LINE#         338
  C:6949H         LINE#         341
  C:694DH         LINE#         342
  C:694FH         LINE#         343
  C:6952H         LINE#         344
  C:6955H         LINE#         345
  C:6958H         LINE#         346
  C:695BH         LINE#         347
  C:695EH         LINE#         348
  C:6961H         LINE#         349
  C:6964H         LINE#         350
  C:6966H         LINE#         351
  C:6969H         LINE#         352
  C:696DH         LINE#         353
  -------         ENDPROC       _FLASH_PAGEERASE
  -------         PROC          _FLASH_BUFWR
  D:0006H         SYMBOL        addr
  D:004BH         SYMBOL        buf
  D:004EH         SYMBOL        n
  -------         DO            
  D:0050H         SYMBOL        pwrite
  B:0020H.3       SYMBOL        ea_temp
  D:0052H         SYMBOL        i
  -------         ENDDO         
  C:5CB2H         LINE#         362
  C:5CB8H         LINE#         363
  C:5CB8H         LINE#         364
  C:5CBCH         LINE#         368
BL51 BANKED LINKER/LOCATER V6.22                                                      07/01/2013  09:38:04  PAGE 57


  C:5CC0H         LINE#         369
  C:5CC2H         LINE#         370
  C:5CD2H         LINE#         371
  C:5CD5H         LINE#         372
  C:5CD8H         LINE#         373
  C:5CDBH         LINE#         374
  C:5CDEH         LINE#         375
  C:5CE1H         LINE#         376
  C:5CE4H         LINE#         377
  C:5CE7H         LINE#         378
  C:5D05H         LINE#         379
  C:5D08H         LINE#         380
  C:5D12H         LINE#         381
  C:5D16H         LINE#         382
  -------         ENDPROC       _FLASH_BUFWR
  C:5F4FH         SYMBOL        L?0079
  -------         PROC          L?0078
  -------         ENDPROC       L?0078
  C:5F4FH         SYMBOL        L?0079
  -------         PROC          _FLASH_BUFRD
  D:0006H         SYMBOL        addr
  D:0024H         SYMBOL        buf
  D:0027H         SYMBOL        n
  -------         DO            
  D:0029H         SYMBOL        pread
  B:0020H.2       SYMBOL        ea_temp
  D:0006H         SYMBOL        i
  -------         ENDDO         
  C:5F5FH         LINE#         391
  C:5F65H         LINE#         392
  C:5F65H         LINE#         393
  C:5F69H         LINE#         396
  C:5F6DH         LINE#         397
  C:5F6FH         LINE#         398
  C:5F7BH         LINE#         399
  C:5F7BH         LINE#         400
  C:5F9AH         LINE#         401
  C:5FA1H         LINE#         402
  C:5FA5H         LINE#         403
  -------         ENDPROC       _FLASH_BUFRD
  -------         PROC          FLASHCHK
  -------         DO            
  D:0007H         SYMBOL        temp
  -------         ENDDO         
  C:6E7CH         LINE#         412
  C:6E7CH         LINE#         413
  C:6E7CH         LINE#         414
  C:6E81H         LINE#         415
  C:6E87H         LINE#         417
  C:6E89H         LINE#         418
  -------         ENDPROC       FLASHCHK
  -------         PROC          FLASHAREA_USER
  C:5FA6H         LINE#         427
  C:5FA6H         LINE#         428
  C:5FA6H         LINE#         429
  C:5FB9H         LINE#         430
  C:5FC9H         LINE#         431
BL51 BANKED LINKER/LOCATER V6.22                                                      07/01/2013  09:38:04  PAGE 58


  C:5FC9H         LINE#         432
  C:5FCCH         LINE#         433
  C:5FCFH         LINE#         434
  C:5FDFH         LINE#         435
  C:5FE1H         LINE#         437
  C:5FE1H         LINE#         438
  C:5FE6H         LINE#         439
  C:5FFBH         LINE#         441
  C:5FFBH         LINE#         443
  -------         ENDPROC       FLASHAREA_USER
  -------         PROC          RAM_CALDATAINIT_USER
  C:60F8H         LINE#         454
  C:60F8H         LINE#         455
  C:60F8H         LINE#         457
  C:6103H         LINE#         458
  C:610EH         LINE#         459
  C:6119H         LINE#         460
  C:6124H         LINE#         461
  C:612FH         LINE#         462
  C:613AH         LINE#         463
  C:6145H         LINE#         464
  -------         ENDPROC       RAM_CALDATAINIT_USER
  -------         ENDMOD        FLASH

  -------         MODULE        INIT
  C:0000H         SYMBOL        _ICE_DUMMY_
  D:00A0H         PUBLIC        P2
  C:6197H         PUBLIC        Init_SystemPara
  D:00A7H         PUBLIC        SFRPAGE
  D:00A4H         PUBLIC        P0MDOUT
  D:00A6H         PUBLIC        P2MDOUT
  C:6BA0H         PUBLIC        Init_All
  D:00E1H         PUBLIC        XBR0
  D:00C7H         PUBLIC        XBR2
  D:00FFH         PUBLIC        VDM0CN
  D:00F1H         PUBLIC        P0MDIN
  D:00F2H         PUBLIC        P1MDIN
  D:00D4H         PUBLIC        P0SKIP
  D:00D5H         PUBLIC        P1SKIP
  D:008FH         PUBLIC        CLKSEL
  D:00A1H         PUBLIC        OSCICN
  C:6C0BH         SYMBOL        Sys_ClkInit
  C:6A2BH         PUBLIC        Sys_PortInit
  D:00EFH         PUBLIC        RSTSRC
  -------         PROC          INIT_SYSTEMPARA
  C:6197H         LINE#         26
  C:6197H         LINE#         27
  C:6197H         LINE#         28
  C:619DH         LINE#         29
  C:61A1H         LINE#         30
  C:61B9H         LINE#         32
  C:61C3H         LINE#         33
  C:61C9H         LINE#         34
  C:61CFH         LINE#         35
  C:61D9H         LINE#         36
  C:61E2H         LINE#         37
  C:61E5H         LINE#         40
BL51 BANKED LINKER/LOCATER V6.22                                                      07/01/2013  09:38:04  PAGE 59


  -------         ENDPROC       INIT_SYSTEMPARA
  -------         PROC          SYS_CLKINIT
  -------         DO            
  D:0007H         SYMBOL        SfrPage_
  -------         ENDDO         
  C:6C0BH         LINE#         42
  C:6C0BH         LINE#         43
  C:6C0DH         LINE#         45
  C:6C10H         LINE#         47
  C:6C13H         LINE#         51
  C:6C16H         LINE#         52
  C:6C1BH         LINE#         53
  C:6C1EH         LINE#         54
  C:6C21H         LINE#         56
  C:6C23H         LINE#         57
  -------         ENDPROC       SYS_CLKINIT
  -------         PROC          SYS_PORTINIT
  -------         DO            
  D:0007H         SYMBOL        SfrPage_
  -------         ENDDO         
  C:6A2BH         LINE#         59
  C:6A2BH         LINE#         60
  C:6A2BH         LINE#         61
  C:6A2DH         LINE#         62
  C:6A30H         LINE#         63
  C:6A33H         LINE#         64
  C:6A36H         LINE#         65
  C:6A39H         LINE#         66
  C:6A3CH         LINE#         67
  C:6A3FH         LINE#         69
  C:6A42H         LINE#         70
  C:6A45H         LINE#         71
  C:6A48H         LINE#         72
  C:6A4BH         LINE#         73
  C:6A4DH         LINE#         74
  -------         ENDPROC       SYS_PORTINIT
  -------         PROC          INIT_ALL
  C:6BA0H         LINE#         76
  C:6BA0H         LINE#         77
  C:6BA0H         LINE#         78
  C:6BA3H         LINE#         79
  C:6BA6H         LINE#         81
  C:6BA9H         LINE#         82
  C:6BACH         LINE#         84
  C:6BAFH         LINE#         85
  C:6BB2H         LINE#         86
  C:6BB5H         LINE#         87
  C:6BB8H         LINE#         88
  -------         ENDPROC       INIT_ALL
  -------         ENDMOD        INIT

  -------         MODULE        KEY
  C:0000H         SYMBOL        _ICE_DUMMY_
  D:00A0H         PUBLIC        P2
  C:696EH         PUBLIC        Key_Proc
  C:650BH         SYMBOL        Key_Down
  D:0016H         PUBLIC        KeyEnb
BL51 BANKED LINKER/LOCATER V6.22                                                      07/01/2013  09:38:04  PAGE 60


  B:00A0H.4       PUBLIC        KEY_IO
  -------         PROC          KEY_DOWN
  -------         DO            
  X:0B64H         SYMBOL        KeyTime
  -------         ENDDO         
  C:650BH         LINE#         26
  C:650BH         LINE#         27
  C:650BH         LINE#         30
  C:650DH         LINE#         31
  C:6514H         LINE#         32
  C:6517H         LINE#         33
  C:6529H         LINE#         34
  C:6533H         LINE#         35
  C:653FH         LINE#         36
  C:6542H         LINE#         38
  C:6545H         LINE#         39
  C:6545H         LINE#         41
  C:654CH         LINE#         42
  C:654DH         LINE#         43
  C:654DH         LINE#         44
  -------         ENDPROC       KEY_DOWN
  -------         PROC          KEY_PROC
  C:696EH         LINE#         46
  C:696EH         LINE#         47
  C:696EH         LINE#         48
  C:6972H         LINE#         49
  C:6978H         LINE#         50
  C:6978H         LINE#         51
  C:697EH         LINE#         52
  C:6984H         LINE#         53
  C:698FH         LINE#         54
  C:6992H         LINE#         55
  C:6995H         LINE#         56
  C:6995H         LINE#         57
  -------         ENDPROC       KEY_PROC
  -------         ENDMOD        KEY

  -------         MODULE        MAIN
  C:0000H         SYMBOL        _ICE_DUMMY_
  C:70BBH         PUBLIC        Main_Temp
  D:00A0H         PUBLIC        P2
  B:00A8H.7       PUBLIC        EA
  B:00A0H.5       PUBLIC        LED_S
  D:00A7H         PUBLIC        SFRPAGE
  B:00A0H.7       PUBLIC        LED_X
  B:00A0H.6       PUBLIC        LED_Y
  D:00D9H         PUBLIC        PCA0MD
  C:6793H         PUBLIC        main
  X:0B5FH         PUBLIC        AlarmHighLow
  X:0B61H         PUBLIC        MenuId
  X:0B62H         PUBLIC        TempA
  -------         PROC          MAIN_TEMP
  C:70BBH         LINE#         27
  C:70BBH         LINE#         28
  C:70BBH         LINE#         29
  C:70BDH         LINE#         30
  C:70BFH         LINE#         31
BL51 BANKED LINKER/LOCATER V6.22                                                      07/01/2013  09:38:04  PAGE 61


  C:70C1H         LINE#         32
  -------         ENDPROC       MAIN_TEMP
  -------         PROC          MAIN
  C:6793H         LINE#         34
  C:6793H         LINE#         35
  C:6793H         LINE#         36
  C:6796H         LINE#         37
  C:6799H         LINE#         38
  C:679CH         LINE#         39
  C:679EH         LINE#         40
  C:67A1H         LINE#         41
  C:67A6H         LINE#         42
  C:67A9H         LINE#         43
  C:67AFH         LINE#         44
  C:67AFH         LINE#         45
  C:67AFH         LINE#         46
  C:67B2H         LINE#         47
  C:67B5H         LINE#         48
  C:67B8H         LINE#         49
  C:67BBH         LINE#         50
  C:67BEH         LINE#         51
  C:67C5H         LINE#         52
  -------         ENDPROC       MAIN
  -------         ENDMOD        MAIN

  -------         MODULE        MODBUSCRC
  C:0000H         SYMBOL        _ICE_DUMMY_
  D:00A0H         PUBLIC        P2
  C:675EH         PUBLIC        _ModbusCrcCnt
  C:344DH         SYMBOL        CrcTabHi
  C:354DH         SYMBOL        CrcTabLi
  -------         PROC          _MODBUSCRCCNT
  D:0035H         SYMBOL        ptr
  D:0005H         SYMBOL        len
  -------         DO            
  D:0002H         SYMBOL        index
  D:0007H         SYMBOL        crchi
  D:0004H         SYMBOL        crcli
  -------         ENDDO         
  C:675EH         LINE#         114
  C:6764H         LINE#         115
  C:6764H         LINE#         119
  C:6766H         LINE#         120
  C:6768H         LINE#         122
  C:676EH         LINE#         123
  C:676EH         LINE#         124
  C:677EH         LINE#         125
  C:6784H         LINE#         126
  C:678AH         LINE#         127
  C:678CH         LINE#         128
  C:6792H         LINE#         129
  -------         ENDPROC       _MODBUSCRCCNT
  -------         ENDMOD        MODBUSCRC

  -------         MODULE        MODBUSRTU
  C:0000H         SYMBOL        _ICE_DUMMY_
  D:00A0H         PUBLIC        P2
BL51 BANKED LINKER/LOCATER V6.22                                                      07/01/2013  09:38:04  PAGE 62


  C:643FH         SYMBOL        _ModRtu_RlyError
  C:6996H         PUBLIC        _ModRtu_WrAddr
  C:69BEH         PUBLIC        _ModRtu_WrBaud
  X:0B4FH         PUBLIC        AngRange
  C:67FBH         PUBLIC        _ModRtu_SetZero
  C:4526H         SYMBOL        _ModRtu_RdReg
  C:0BE7H         PUBLIC        _ModRtu_RdVal
  C:65CAH         PUBLIC        _ModRtu_RxProc
  C:6F85H         PUBLIC        _ModRtu_WrCrc
  C:4221H         SYMBOL        _ModRtu_WrReg
  X:0B51H         SYMBOL        udflashtag
  C:207FH         PUBLIC        _ModRtu_WrVal
  C:6F42H         PUBLIC        _ModRtu_8to16
  C:6EB1H         PUBLIC        _ModRtu_Rd16u
  C:6A97H         PUBLIC        _ModRtu_Wr16u
  C:52B8H         SYMBOL        _FloatToInt
  C:6CC5H         PUBLIC        _ModRtu_ChkCrc
  X:0B52H         PUBLIC        AngAlarmOffset
  X:0B56H         PUBLIC        Addr
  C:52AEH         SYMBOL        L?0728
  -------         PROC          L?0727
  -------         ENDPROC       L?0727
  C:52AEH         SYMBOL        L?0728
  -------         PROC          _FLOATTOINT
  D:003AH         SYMBOL        ang
  D:003EH         SYMBOL        highlow
  -------         DO            
  D:0040H         SYMBOL        temp
  D:0044H         SYMBOL        vol
  -------         ENDDO         
  C:52B8H         LINE#         27
  C:52C0H         LINE#         28
  C:52C0H         LINE#         32
  C:52D2H         LINE#         33
  C:52DAH         LINE#         35
  C:52EAH         LINE#         36
  C:52EAH         LINE#         37
  C:52FDH         LINE#         38
  C:530AH         LINE#         39
  C:530CH         LINE#         41
  C:530CH         LINE#         42
  C:531FH         LINE#         43
  C:5336H         LINE#         44
  C:5336H         LINE#         45
  C:533AH         LINE#         46
  -------         ENDPROC       _FLOATTOINT
  -------         PROC          _MODRTU_CHKCRC
  D:0001H         SYMBOL        buf
  D:0005H         SYMBOL        len
  C:6CC5H         LINE#         54
  C:6CC5H         LINE#         55
  C:6CC5H         LINE#         56
  C:6CCBH         LINE#         57
  C:6CCBH         LINE#         58
  C:6CCEH         LINE#         59
  C:6CCEH         LINE#         60
  C:6CD5H         LINE#         61
BL51 BANKED LINKER/LOCATER V6.22                                                      07/01/2013  09:38:04  PAGE 63


  C:6CD5H         LINE#         62
  C:6CD8H         LINE#         63
  C:6CD8H         LINE#         65
  C:6CD8H         LINE#         66
  C:6CDAH         LINE#         67
  C:6CDAH         LINE#         68
  -------         ENDPROC       _MODRTU_CHKCRC
  -------         PROC          _MODRTU_WRCRC
  D:0001H         SYMBOL        buf
  D:0004H         SYMBOL        crc
  C:6F85H         LINE#         76
  C:6F85H         LINE#         77
  C:6F85H         LINE#         78
  C:6F89H         LINE#         79
  -------         ENDPROC       _MODRTU_WRCRC
  -------         PROC          _MODRTU_8TO16
  D:0001H         SYMBOL        buf
  -------         DO            
  D:0006H         SYMBOL        temp
  -------         ENDDO         
  C:6F42H         LINE#         88
  C:6F42H         LINE#         89
  C:6F42H         LINE#         92
  C:6F45H         LINE#         93
  C:6F46H         LINE#         94
  C:6F4DH         LINE#         95
  C:6F4DH         LINE#         96
  -------         ENDPROC       _MODRTU_8TO16
  -------         PROC          _MODRTU_SETZERO
  D:0001H         SYMBOL        buf
  -------         DO            
  D:0039H         SYMBOL        temp
  -------         ENDDO         
  C:67FBH         LINE#         104
  C:67FBH         LINE#         105
  C:67FBH         LINE#         106
  C:6802H         LINE#         108
  C:680AH         LINE#         109
  C:680AH         LINE#         110
  C:6810H         LINE#         111
  C:6813H         LINE#         112
  C:6815H         LINE#         113
  C:681BH         LINE#         114
  C:681BH         LINE#         115
  C:6822H         LINE#         116
  C:682DH         LINE#         117
  C:682DH         LINE#         118
  -------         ENDPROC       _MODRTU_SETZERO
  C:6A91H         SYMBOL        L?0730
  -------         PROC          L?0729
  -------         ENDPROC       L?0729
  C:6A91H         SYMBOL        L?0730
  -------         PROC          _MODRTU_WR16U
  D:0001H         SYMBOL        buf
  -------         DO            
  D:0006H         SYMBOL        temp
  D:0004H         SYMBOL        dat
BL51 BANKED LINKER/LOCATER V6.22                                                      07/01/2013  09:38:04  PAGE 64


  -------         ENDDO         
  C:6A97H         LINE#         126
  C:6A97H         LINE#         127
  C:6A97H         LINE#         131
  C:6A9AH         LINE#         132
  C:6A9BH         LINE#         133
  C:6AA2H         LINE#         134
  C:6AB1H         LINE#         135
  C:6AB1H         LINE#         136
  -------         ENDPROC       _MODRTU_WR16U
  -------         PROC          _MODRTU_WRADDR
  D:0001H         SYMBOL        buf
  -------         DO            
  D:0006H         SYMBOL        temp
  -------         ENDDO         
  C:6996H         LINE#         144
  C:6996H         LINE#         145
  C:6996H         LINE#         148
  C:6999H         LINE#         149
  C:699AH         LINE#         150
  C:69A1H         LINE#         151
  C:69B6H         LINE#         152
  C:69BBH         LINE#         153
  C:69BDH         LINE#         154
  -------         ENDPROC       _MODRTU_WRADDR
  -------         PROC          _MODRTU_WRBAUD
  D:0001H         SYMBOL        buf
  -------         DO            
  D:0006H         SYMBOL        temp
  -------         ENDDO         
  C:69BEH         LINE#         162
  C:69BEH         LINE#         163
  C:69BEH         LINE#         166
  C:69C1H         LINE#         167
  C:69C2H         LINE#         168
  C:69C9H         LINE#         169
  C:69DBH         LINE#         170
  C:69E0H         LINE#         171
  C:69E2H         LINE#         172
  -------         ENDPROC       _MODRTU_WRBAUD
  -------         PROC          _MODRTU_WRVAL
  D:0031H         SYMBOL        addr
  D:0033H         SYMBOL        buf
  D:0036H         SYMBOL        excode
  -------         DO            
  X:0B4AH         SYMBOL        vol32u
  X:0B4EH         SYMBOL        vol8u
  X:0B57H         SYMBOL        volf
  X:0B5BH         SYMBOL        pc_data
  X:0B5DH         SYMBOL        vol16s
  -------         ENDDO         
  C:207FH         LINE#         181
  C:2089H         LINE#         182
  C:2089H         LINE#         189
  C:20A1H         LINE#         190
  C:21E5H         LINE#         191
  C:21E5H         LINE#         192
BL51 BANKED LINKER/LOCATER V6.22                                                      07/01/2013  09:38:04  PAGE 65


  C:21EBH         LINE#         193
  C:21EBH         LINE#         194
  C:21EDH         LINE#         195
  C:21F3H         LINE#         196
  C:21F3H         LINE#         197
  C:21F5H         LINE#         198
  C:21FBH         LINE#         199
  C:21FBH         LINE#         200
  C:21FDH         LINE#         201
  C:2203H         LINE#         202
  C:2203H         LINE#         203
  C:2205H         LINE#         204
  C:220BH         LINE#         205
  C:220BH         LINE#         206
  C:220DH         LINE#         207
  C:2216H         LINE#         208
  C:221CH         LINE#         209
  C:221FH         LINE#         213
  C:221FH         LINE#         214
  C:2225H         LINE#         215
  C:222EH         LINE#         216
  C:222EH         LINE#         217
  C:2234H         LINE#         218
  C:223DH         LINE#         220
  C:223DH         LINE#         221
  C:223DH         LINE#         222
  C:223DH         LINE#         223
  C:223DH         LINE#         225
  C:223DH         LINE#         227
  C:223DH         LINE#         228
  C:223DH         LINE#         232
  C:223DH         LINE#         233
  C:223DH         LINE#         234
  C:223DH         LINE#         236
  C:223DH         LINE#         238
  C:223DH         LINE#         239
  C:223DH         LINE#         243
  C:223DH         LINE#         244
  C:223DH         LINE#         245
  C:223DH         LINE#         246
  C:2252H         LINE#         247
  C:2255H         LINE#         248
  C:2255H         LINE#         249
  C:2255H         LINE#         250
  C:2255H         LINE#         251
  C:2258H         LINE#         252
  C:2258H         LINE#         253
  C:2258H         LINE#         254
  C:2258H         LINE#         255
  C:2258H         LINE#         256
  C:2258H         LINE#         257
  C:225BH         LINE#         258
  C:225BH         LINE#         259
  C:225BH         LINE#         260
  C:225BH         LINE#         261
  C:225EH         LINE#         262
  C:225EH         LINE#         263
BL51 BANKED LINKER/LOCATER V6.22                                                      07/01/2013  09:38:04  PAGE 66


  C:225EH         LINE#         264
  C:225EH         LINE#         265
  C:225EH         LINE#         266
  C:225EH         LINE#         267
  C:2261H         LINE#         268
  C:2261H         LINE#         269
  C:2261H         LINE#         270
  C:2261H         LINE#         271
  C:2264H         LINE#         272
  C:2264H         LINE#         273
  C:2264H         LINE#         274
  C:2264H         LINE#         275
  C:2264H         LINE#         276
  C:2264H         LINE#         277
  C:2267H         LINE#         278
  C:2267H         LINE#         279
  C:2267H         LINE#         280
  C:2267H         LINE#         281
  C:226AH         LINE#         282
  C:226AH         LINE#         283
  C:226AH         LINE#         284
  C:226AH         LINE#         285
  C:226AH         LINE#         286
  C:226AH         LINE#         287
  C:226DH         LINE#         288
  C:226DH         LINE#         289
  C:226DH         LINE#         290
  C:226DH         LINE#         291
  C:2270H         LINE#         292
  C:2270H         LINE#         293
  C:2270H         LINE#         294
  C:22A2H         LINE#         295
  C:22B6H         LINE#         296
  C:22B6H         LINE#         297
  C:22B9H         LINE#         298
  C:22BBH         LINE#         299
  C:22D2H         LINE#         300
  C:22D2H         LINE#         301
  C:22D9H         LINE#         302
  C:22D9H         LINE#         303
  C:22DCH         LINE#         304
  C:22DCH         LINE#         305
  C:22DCH         LINE#         306
  C:22DCH         LINE#         307
  C:22DFH         LINE#         308
  C:22DFH         LINE#         309
  C:22DFH         LINE#         310
  C:2311H         LINE#         311
  C:2325H         LINE#         312
  C:2325H         LINE#         313
  C:2325H         LINE#         314
  C:2328H         LINE#         315
  C:233FH         LINE#         316
  C:233FH         LINE#         317
  C:2343H         LINE#         318
  C:2343H         LINE#         319
  C:2346H         LINE#         320
BL51 BANKED LINKER/LOCATER V6.22                                                      07/01/2013  09:38:04  PAGE 67


  C:2346H         LINE#         321
  C:2346H         LINE#         322
  C:2346H         LINE#         323
  C:2349H         LINE#         324
  C:2349H         LINE#         325
  C:2349H         LINE#         326
  C:2349H         LINE#         327
  C:2349H         LINE#         328
  C:2349H         LINE#         329
  C:234CH         LINE#         330
  C:234CH         LINE#         331
  C:234CH         LINE#         332
  C:234CH         LINE#         333
  C:234FH         LINE#         334
  C:234FH         LINE#         335
  C:234FH         LINE#         336
  C:234FH         LINE#         337
  C:234FH         LINE#         338
  C:234FH         LINE#         340
  C:2352H         LINE#         341
  C:2352H         LINE#         342
  C:2352H         LINE#         343
  C:2362H         LINE#         344
  C:2375H         LINE#         345
  C:2375H         LINE#         346
  C:2375H         LINE#         347
  C:2375H         LINE#         348
  C:2388H         LINE#         349
  C:2388H         LINE#         350
  C:238BH         LINE#         351
  C:238BH         LINE#         352
  C:238EH         LINE#         356
  C:238EH         LINE#         357
  C:238EH         LINE#         358
  C:238EH         LINE#         359
  C:238EH         LINE#         360
  C:238EH         LINE#         361
  C:238EH         LINE#         362
  C:238EH         LINE#         363
  C:238EH         LINE#         364
  C:238EH         LINE#         365
  C:23ADH         LINE#         366
  C:23C0H         LINE#         367
  C:23C3H         LINE#         368
  C:23C3H         LINE#         369
  C:23C3H         LINE#         370
  C:23D0H         LINE#         371
  C:23E1H         LINE#         372
  C:23E9H         LINE#         373
  C:2409H         LINE#         374
  C:2409H         LINE#         375
  C:240DH         LINE#         376
  C:2411H         LINE#         377
  C:2415H         LINE#         378
  C:2419H         LINE#         379
  C:241DH         LINE#         380
  C:2421H         LINE#         381
BL51 BANKED LINKER/LOCATER V6.22                                                      07/01/2013  09:38:04  PAGE 68


  C:2429H         LINE#         383
  C:242CH         LINE#         384
  C:242CH         LINE#         385
  C:242CH         LINE#         386
  C:242CH         LINE#         387
  C:242CH         LINE#         388
  C:242CH         LINE#         389
  C:242FH         LINE#         391
  C:242FH         LINE#         392
  C:242FH         LINE#         393
  C:2461H         LINE#         394
  C:246DH         LINE#         395
  C:2482H         LINE#         396
  C:2482H         LINE#         397
  C:248EH         LINE#         398
  C:2490H         LINE#         400
  C:2490H         LINE#         401
  C:24A4H         LINE#         402
  C:24A4H         LINE#         403
  C:24B3H         LINE#         404
  C:24B3H         LINE#         405
  C:24BFH         LINE#         406
  C:24BFH         LINE#         407
  C:24C2H         LINE#         408
  C:24D1H         LINE#         409
  C:24D1H         LINE#         410
  C:24EFH         LINE#         411
  C:2514H         LINE#         412
  C:2514H         LINE#         413
  C:251DH         LINE#         414
  C:2527H         LINE#         415
  C:2532H         LINE#         416
  C:253DH         LINE#         417
  C:2548H         LINE#         418
  C:2553H         LINE#         419
  C:255EH         LINE#         420
  C:2569H         LINE#         421
  C:2569H         LINE#         422
  C:2569H         LINE#         424
  C:2569H         LINE#         425
  C:2580H         LINE#         426
  C:259AH         LINE#         428
  C:259AH         LINE#         429
  C:25A2H         LINE#         430
  C:25A2H         LINE#         431
  C:25BEH         LINE#         432
  C:25CAH         LINE#         433
  C:25CDH         LINE#         435
  C:25CDH         LINE#         436
  C:25EAH         LINE#         437
  C:25F6H         LINE#         439
  C:25F6H         LINE#         440
  C:25F9H         LINE#         441
  C:25F9H         LINE#         442
  C:25F9H         LINE#         443
  C:2619H         LINE#         444
  C:2625H         LINE#         445
BL51 BANKED LINKER/LOCATER V6.22                                                      07/01/2013  09:38:04  PAGE 69


  C:2625H         LINE#         446
  C:2628H         LINE#         447
  C:2628H         LINE#         448
  C:262BH         LINE#         449
  C:262BH         LINE#         450
  C:262BH         LINE#         451
  C:264BH         LINE#         452
  C:2664H         LINE#         453
  C:2664H         LINE#         454
  C:266AH         LINE#         455
  C:266DH         LINE#         456
  C:266FH         LINE#         457
  C:267AH         LINE#         458
  C:2685H         LINE#         459
  C:2688H         LINE#         460
  C:268EH         LINE#         461
  C:2691H         LINE#         462
  C:2693H         LINE#         463
  C:269EH         LINE#         464
  C:26A9H         LINE#         465
  C:26ACH         LINE#         466
  C:26ACH         LINE#         467
  C:26ACH         LINE#         468
  C:26ACH         LINE#         469
  C:26ACH         LINE#         470
  C:26ACH         LINE#         471
  C:26AFH         LINE#         472
  C:26AFH         LINE#         473
  C:26AFH         LINE#         474
  C:26E1H         LINE#         475
  C:26EDH         LINE#         476
  C:2703H         LINE#         477
  C:2706H         LINE#         478
  C:2706H         LINE#         479
  C:2706H         LINE#         480
  C:2706H         LINE#         481
  C:2709H         LINE#         482
  C:2709H         LINE#         483
  C:2709H         LINE#         484
  C:273BH         LINE#         485
  C:2747H         LINE#         486
  C:275DH         LINE#         487
  C:2760H         LINE#         488
  C:2760H         LINE#         489
  C:2760H         LINE#         490
  C:2760H         LINE#         491
  C:2763H         LINE#         492
  C:2763H         LINE#         493
  C:2763H         LINE#         494
  C:2795H         LINE#         495
  C:27A1H         LINE#         496
  C:27B7H         LINE#         497
  C:27BAH         LINE#         498
  C:27BAH         LINE#         499
  C:27BAH         LINE#         500
  C:27BAH         LINE#         501
  C:27BDH         LINE#         502
BL51 BANKED LINKER/LOCATER V6.22                                                      07/01/2013  09:38:04  PAGE 70


  C:27BDH         LINE#         503
  C:27BDH         LINE#         504
  C:27EFH         LINE#         505
  C:27FBH         LINE#         506
  C:2811H         LINE#         507
  C:2814H         LINE#         508
  C:2814H         LINE#         509
  C:2814H         LINE#         510
  C:2814H         LINE#         511
  C:2816H         LINE#         512
  C:2816H         LINE#         513
  C:2816H         LINE#         514
  C:2848H         LINE#         515
  C:2854H         LINE#         516
  C:286AH         LINE#         517
  C:286DH         LINE#         518
  C:286DH         LINE#         519
  C:286DH         LINE#         520
  C:287BH         LINE#         521
  C:287DH         LINE#         522
  C:287DH         LINE#         523
  C:287DH         LINE#         524
  C:28AFH         LINE#         525
  C:28BBH         LINE#         526
  C:28D4H         LINE#         527
  C:28D6H         LINE#         528
  C:28D6H         LINE#         529
  C:28D6H         LINE#         530
  C:28F5H         LINE#         531
  C:28F9H         LINE#         532
  C:28FBH         LINE#         533
  C:28FBH         LINE#         534
  C:28FBH         LINE#         535
  C:291AH         LINE#         536
  C:291DH         LINE#         537
  C:291FH         LINE#         539
  C:291FH         LINE#         540
  C:291FH         LINE#         542
  C:291FH         LINE#         544
  C:291FH         LINE#         545
  C:291FH         LINE#         549
  C:291FH         LINE#         550
  C:291FH         LINE#         551
  C:291FH         LINE#         553
  C:291FH         LINE#         555
  C:291FH         LINE#         556
  C:291FH         LINE#         560
  C:291FH         LINE#         562
  C:291FH         LINE#         563
  C:291FH         LINE#         565
  C:291FH         LINE#         567
  C:291FH         LINE#         568
  C:291FH         LINE#         570
  C:291FH         LINE#         571
  C:291FH         LINE#         572
  C:291FH         LINE#         574
  C:291FH         LINE#         577
BL51 BANKED LINKER/LOCATER V6.22                                                      07/01/2013  09:38:04  PAGE 71


  C:291FH         LINE#         578
  C:291FH         LINE#         580
  C:291FH         LINE#         582
  C:291FH         LINE#         583
  C:291FH         LINE#         585
  C:291FH         LINE#         586
  C:291FH         LINE#         587
  C:291FH         LINE#         589
  C:291FH         LINE#         591
  C:291FH         LINE#         592
  C:291FH         LINE#         594
  C:291FH         LINE#         596
  C:291FH         LINE#         597
  C:291FH         LINE#         599
  C:291FH         LINE#         600
  C:291FH         LINE#         601
  C:291FH         LINE#         603
  C:291FH         LINE#         606
  C:291FH         LINE#         607
  C:291FH         LINE#         609
  C:291FH         LINE#         611
  C:291FH         LINE#         612
  C:291FH         LINE#         614
  C:291FH         LINE#         615
  C:291FH         LINE#         616
  C:291FH         LINE#         618
  C:291FH         LINE#         621
  C:291FH         LINE#         622
  C:291FH         LINE#         624
  C:292AH         LINE#         625
  C:292DH         LINE#         626
  C:292DH         LINE#         627
  C:292FH         LINE#         628
  -------         ENDPROC       _MODRTU_WRVAL
  -------         PROC          _MODRTU_RD16U
  D:0001H         SYMBOL        buf
  D:0004H         SYMBOL        dat
  C:6EB1H         LINE#         636
  C:6EB1H         LINE#         637
  C:6EB1H         LINE#         638
  C:6EB7H         LINE#         639
  -------         ENDPROC       _MODRTU_RD16U
  -------         PROC          _MODRTU_RDVAL
  D:0032H         SYMBOL        addr
  D:0034H         SYMBOL        buf
  D:0037H         SYMBOL        excode
  -------         DO            
  X:0B57H         SYMBOL        pc_data
  X:0B59H         SYMBOL        vol16s
  -------         ENDDO         
  C:0BE7H         LINE#         648
  C:0BF1H         LINE#         649
  C:0BF1H         LINE#         653
  C:11C1H         LINE#         654
  C:11C1H         LINE#         656
  C:11C6H         LINE#         657
  C:11CBH         LINE#         659
BL51 BANKED LINKER/LOCATER V6.22                                                      07/01/2013  09:38:04  PAGE 72


  C:11D0H         LINE#         661
  C:11D5H         LINE#         662
  C:11DAH         LINE#         664
  C:11DFH         LINE#         665
  C:11E4H         LINE#         667
  C:11F6H         LINE#         668
  C:1201H         LINE#         669
  C:1214H         LINE#         671
  C:1214H         LINE#         672
  C:1214H         LINE#         673
  C:1217H         LINE#         674
  C:121AH         LINE#         675
  C:121DH         LINE#         676
  C:1220H         LINE#         677
  C:1223H         LINE#         678
  C:1226H         LINE#         679
  C:1229H         LINE#         680
  C:122CH         LINE#         681
  C:122FH         LINE#         682
  C:1232H         LINE#         683
  C:1235H         LINE#         684
  C:1238H         LINE#         685
  C:123BH         LINE#         686
  C:123EH         LINE#         687
  C:123EH         LINE#         688
  C:123EH         LINE#         689
  C:123EH         LINE#         690
  C:123EH         LINE#         691
  C:123EH         LINE#         692
  C:123EH         LINE#         693
  C:123EH         LINE#         694
  C:1244H         LINE#         695
  C:1247H         LINE#         696
  C:124AH         LINE#         697
  C:124DH         LINE#         698
  C:1250H         LINE#         699
  C:1253H         LINE#         700
  C:1256H         LINE#         701
  C:1259H         LINE#         702
  C:125CH         LINE#         703
  C:125FH         LINE#         704
  C:1262H         LINE#         705
  C:1265H         LINE#         706
  C:1268H         LINE#         707
  C:126BH         LINE#         708
  C:126EH         LINE#         709
  C:1271H         LINE#         710
  C:1274H         LINE#         711
  C:1274H         LINE#         712
  C:1274H         LINE#         713
  C:1277H         LINE#         714
  C:127DH         LINE#         715
  C:127DH         LINE#         719
  C:1289H         LINE#         720
  C:128FH         LINE#         721
  C:128FH         LINE#         722
  C:128FH         LINE#         723
BL51 BANKED LINKER/LOCATER V6.22                                                      07/01/2013  09:38:04  PAGE 73


  C:128FH         LINE#         724
  C:128FH         LINE#         725
  C:128FH         LINE#         726
  C:128FH         LINE#         727
  C:128FH         LINE#         728
  C:128FH         LINE#         729
  C:128FH         LINE#         730
  C:128FH         LINE#         731
  C:128FH         LINE#         732
  C:128FH         LINE#         733
  C:128FH         LINE#         734
  C:128FH         LINE#         735
  C:128FH         LINE#         736
  C:128FH         LINE#         737
  C:128FH         LINE#         738
  C:128FH         LINE#         739
  C:128FH         LINE#         740
  C:128FH         LINE#         741
  C:128FH         LINE#         742
  C:128FH         LINE#         743
  C:129AH         LINE#         744
  C:129AH         LINE#         745
  C:129AH         LINE#         746
  C:129AH         LINE#         747
  C:129AH         LINE#         748
  C:129AH         LINE#         749
  C:129AH         LINE#         750
  C:129AH         LINE#         751
  C:129AH         LINE#         752
  C:129AH         LINE#         753
  C:129AH         LINE#         754
  C:129AH         LINE#         755
  C:129AH         LINE#         756
  C:129AH         LINE#         757
  C:129AH         LINE#         758
  C:129AH         LINE#         759
  C:129AH         LINE#         760
  C:129AH         LINE#         761
  C:129AH         LINE#         762
  C:129AH         LINE#         763
  C:129AH         LINE#         764
  C:12A5H         LINE#         765
  C:12A5H         LINE#         766
  C:12A5H         LINE#         767
  C:12A5H         LINE#         768
  C:12A5H         LINE#         769
  C:12A5H         LINE#         770
  C:12A5H         LINE#         771
  C:12A5H         LINE#         772
  C:12A5H         LINE#         773
  C:12A5H         LINE#         774
  C:12A5H         LINE#         775
  C:12A5H         LINE#         776
  C:12A5H         LINE#         777
  C:12A5H         LINE#         778
  C:12A5H         LINE#         779
  C:12A5H         LINE#         780
BL51 BANKED LINKER/LOCATER V6.22                                                      07/01/2013  09:38:04  PAGE 74


  C:12A5H         LINE#         781
  C:12A5H         LINE#         782
  C:12A5H         LINE#         783
  C:12A5H         LINE#         784
  C:12A5H         LINE#         785
  C:12B0H         LINE#         786
  C:12B0H         LINE#         787
  C:12B0H         LINE#         788
  C:12B0H         LINE#         789
  C:12B0H         LINE#         790
  C:12B0H         LINE#         791
  C:12B0H         LINE#         792
  C:12B0H         LINE#         793
  C:12B0H         LINE#         794
  C:12B0H         LINE#         795
  C:12B0H         LINE#         796
  C:12B0H         LINE#         797
  C:12B0H         LINE#         799
  C:12BDH         LINE#         800
  C:12C3H         LINE#         801
  C:12CCH         LINE#         802
  C:12DFH         LINE#         803
  C:12DFH         LINE#         804
  C:12DFH         LINE#         805
  C:12DFH         LINE#         806
  C:12DFH         LINE#         807
  C:12DFH         LINE#         808
  C:12DFH         LINE#         809
  C:12DFH         LINE#         810
  C:12DFH         LINE#         811
  C:12DFH         LINE#         812
  C:12DFH         LINE#         813
  C:12DFH         LINE#         814
  C:12DFH         LINE#         815
  C:12DFH         LINE#         816
  C:12DFH         LINE#         817
  C:12DFH         LINE#         818
  C:12DFH         LINE#         819
  C:12DFH         LINE#         820
  C:12DFH         LINE#         821
  C:12DFH         LINE#         822
  C:12DFH         LINE#         823
  C:12DFH         LINE#         824
  C:12DFH         LINE#         825
  C:12DFH         LINE#         826
  C:12DFH         LINE#         827
  C:12EAH         LINE#         828
  C:12EAH         LINE#         829
  C:12EAH         LINE#         830
  C:12EAH         LINE#         831
  C:12EAH         LINE#         832
  C:12EAH         LINE#         833
  C:12EAH         LINE#         834
  C:12EAH         LINE#         835
  C:12EAH         LINE#         836
  C:12EAH         LINE#         837
  C:12EAH         LINE#         838
BL51 BANKED LINKER/LOCATER V6.22                                                      07/01/2013  09:38:04  PAGE 75


  C:12EAH         LINE#         839
  C:12EAH         LINE#         840
  C:12EAH         LINE#         841
  C:12EAH         LINE#         842
  C:12EAH         LINE#         843
  C:12EAH         LINE#         844
  C:12EAH         LINE#         845
  C:12EAH         LINE#         846
  C:12EAH         LINE#         847
  C:12EAH         LINE#         848
  C:12EAH         LINE#         849
  C:12EAH         LINE#         850
  C:12EAH         LINE#         851
  C:12EAH         LINE#         852
  C:1301H         LINE#         853
  C:1301H         LINE#         854
  C:1301H         LINE#         855
  C:1301H         LINE#         856
  C:1301H         LINE#         857
  C:1301H         LINE#         858
  C:1301H         LINE#         859
  C:1301H         LINE#         860
  C:1301H         LINE#         861
  C:1301H         LINE#         862
  C:1301H         LINE#         863
  C:1301H         LINE#         864
  C:1301H         LINE#         865
  C:1301H         LINE#         866
  C:1301H         LINE#         867
  C:1301H         LINE#         868
  C:1301H         LINE#         869
  C:1301H         LINE#         870
  C:1301H         LINE#         871
  C:1301H         LINE#         872
  C:1301H         LINE#         873
  C:1301H         LINE#         874
  C:1301H         LINE#         875
  C:1301H         LINE#         876
  C:1301H         LINE#         877
  C:1322H         LINE#         879
  C:132FH         LINE#         880
  C:1335H         LINE#         881
  C:133EH         LINE#         882
  C:1351H         LINE#         883
  C:1351H         LINE#         884
  C:1351H         LINE#         885
  C:1351H         LINE#         886
  C:1351H         LINE#         887
  C:1351H         LINE#         888
  C:1351H         LINE#         889
  C:1351H         LINE#         890
  C:1351H         LINE#         891
  C:1351H         LINE#         892
  C:1351H         LINE#         893
  C:1351H         LINE#         894
  C:1351H         LINE#         895
  C:1351H         LINE#         896
BL51 BANKED LINKER/LOCATER V6.22                                                      07/01/2013  09:38:04  PAGE 76


  C:1351H         LINE#         897
  C:1351H         LINE#         898
  C:1351H         LINE#         899
  C:1351H         LINE#         900
  C:1351H         LINE#         901
  C:1351H         LINE#         902
  C:1351H         LINE#         903
  C:1351H         LINE#         904
  C:1351H         LINE#         905
  C:1351H         LINE#         906
  C:1351H         LINE#         907
  C:135CH         LINE#         908
  C:135CH         LINE#         909
  C:135CH         LINE#         910
  C:135CH         LINE#         911
  C:135CH         LINE#         912
  C:135CH         LINE#         913
  C:135CH         LINE#         914
  C:135CH         LINE#         915
  C:135CH         LINE#         916
  C:135CH         LINE#         917
  C:135CH         LINE#         918
  C:135CH         LINE#         919
  C:135CH         LINE#         920
  C:135CH         LINE#         921
  C:135CH         LINE#         922
  C:135CH         LINE#         923
  C:135CH         LINE#         924
  C:135CH         LINE#         925
  C:135CH         LINE#         926
  C:135CH         LINE#         927
  C:135CH         LINE#         928
  C:135CH         LINE#         929
  C:135CH         LINE#         930
  C:135CH         LINE#         931
  C:135CH         LINE#         932
  C:1372H         LINE#         933
  C:1372H         LINE#         934
  C:1372H         LINE#         935
  C:1372H         LINE#         936
  C:1372H         LINE#         937
  C:1372H         LINE#         938
  C:1372H         LINE#         939
  C:1372H         LINE#         940
  C:1372H         LINE#         941
  C:1372H         LINE#         942
  C:1372H         LINE#         943
  C:1372H         LINE#         944
  C:1372H         LINE#         945
  C:1372H         LINE#         946
  C:1372H         LINE#         947
  C:1372H         LINE#         948
  C:1372H         LINE#         949
  C:1372H         LINE#         950
  C:1372H         LINE#         951
  C:1372H         LINE#         952
  C:1372H         LINE#         953
BL51 BANKED LINKER/LOCATER V6.22                                                      07/01/2013  09:38:04  PAGE 77


  C:1372H         LINE#         954
  C:1372H         LINE#         955
  C:1372H         LINE#         956
  C:1372H         LINE#         957
  C:1392H         LINE#         959
  C:139FH         LINE#         960
  C:13A4H         LINE#         961
  C:13A9H         LINE#         962
  C:13AEH         LINE#         963
  C:13B3H         LINE#         964
  C:13B8H         LINE#         965
  C:13BDH         LINE#         966
  C:13C2H         LINE#         967
  C:13D6H         LINE#         968
  C:13E0H         LINE#         969
  C:13EAH         LINE#         970
  C:13F4H         LINE#         971
  C:13FEH         LINE#         972
  C:140BH         LINE#         973
  C:1422H         LINE#         974
  C:142FH         LINE#         975
  C:1446H         LINE#         976
  C:1453H         LINE#         977
  C:146AH         LINE#         978
  C:1477H         LINE#         979
  C:148EH         LINE#         980
  C:149BH         LINE#         981
  C:14B2H         LINE#         982
  C:14BFH         LINE#         983
  C:14D6H         LINE#         984
  C:14E3H         LINE#         985
  C:14FAH         LINE#         986
  C:1507H         LINE#         987
  C:151EH         LINE#         988
  C:152BH         LINE#         989
  C:1542H         LINE#         990
  C:154FH         LINE#         991
  C:1566H         LINE#         992
  C:1573H         LINE#         993
  C:158AH         LINE#         994
  C:1597H         LINE#         995
  C:15AEH         LINE#         996
  C:15BEH         LINE#         997
  C:15D8H         LINE#         998
  C:15E5H         LINE#         999
  C:15FCH         LINE#         1000
  C:1609H         LINE#         1001
  C:1620H         LINE#         1002
  C:162DH         LINE#         1003
  C:1644H         LINE#         1004
  C:1651H         LINE#         1005
  C:1668H         LINE#         1006
  C:1675H         LINE#         1007
  C:168CH         LINE#         1008
  C:1699H         LINE#         1009
  C:16AFH         LINE#         1011
  C:16AFH         LINE#         1012
BL51 BANKED LINKER/LOCATER V6.22                                                      07/01/2013  09:38:04  PAGE 78


  C:16AFH         LINE#         1013
  C:16AFH         LINE#         1014
  C:16AFH         LINE#         1015
  C:16AFH         LINE#         1016
  C:16AFH         LINE#         1018
  C:16AFH         LINE#         1019
  C:16AFH         LINE#         1020
  C:16AFH         LINE#         1021
  C:16AFH         LINE#         1022
  C:16AFH         LINE#         1023
  C:16AFH         LINE#         1025
  C:16AFH         LINE#         1026
  C:16AFH         LINE#         1027
  C:16AFH         LINE#         1028
  C:16AFH         LINE#         1030
  C:16B3H         LINE#         1031
  C:16BFH         LINE#         1032
  C:16CCH         LINE#         1033
  C:16D8H         LINE#         1034
  C:16DBH         LINE#         1035
  C:16FCH         LINE#         1036
  C:1709H         LINE#         1037
  C:1714H         LINE#         1038
  C:171FH         LINE#         1039
  C:172CH         LINE#         1040
  C:1734H         LINE#         1041
  C:173FH         LINE#         1042
  C:173FH         LINE#         1043
  C:173FH         LINE#         1044
  C:174AH         LINE#         1045
  C:174DH         LINE#         1047
  C:174DH         LINE#         1048
  C:175EH         LINE#         1049
  C:1760H         LINE#         1050
  -------         ENDPROC       _MODRTU_RDVAL
  -------         PROC          _MODRTU_RDREG
  D:0025H         SYMBOL        buf
  -------         DO            
  D:0028H         SYMBOL        addr
  D:002AH         SYMBOL        i
  D:002CH         SYMBOL        j
  D:002EH         SYMBOL        crc
  D:0030H         SYMBOL        err_code
  D:0031H         SYMBOL        excode
  -------         ENDDO         
  C:4526H         LINE#         1063
  C:452CH         LINE#         1064
  C:452CH         LINE#         1066
  C:4531H         LINE#         1067
  C:4533H         LINE#         1069
  C:453BH         LINE#         1070
  C:454DH         LINE#         1071
  C:455FH         LINE#         1072
  C:456FH         LINE#         1073
  C:456FH         LINE#         1074
  C:459CH         LINE#         1075
  C:459CH         LINE#         1076
BL51 BANKED LINKER/LOCATER V6.22                                                      07/01/2013  09:38:04  PAGE 79


  C:459FH         LINE#         1077
  C:45A1H         LINE#         1078
  C:45A1H         LINE#         1079
  C:45A9H         LINE#         1080
  C:45B3H         LINE#         1081
  C:45B8H         LINE#         1082
  C:45B8H         LINE#         1083
  C:45C3H         LINE#         1085
  C:45C3H         LINE#         1086
  C:45D3H         LINE#         1087
  C:45E5H         LINE#         1088
  C:45EEH         LINE#         1089
  C:4601H         LINE#         1090
  C:460FH         LINE#         1091
  C:4612H         LINE#         1092
  -------         ENDPROC       _MODRTU_RDREG
  -------         PROC          _MODRTU_WRREG
  D:0025H         SYMBOL        buf
  D:0028H         SYMBOL        n
  -------         DO            
  D:0029H         SYMBOL        addr
  D:002BH         SYMBOL        i
  D:002DH         SYMBOL        j
  D:0004H         SYMBOL        crc
  D:002FH         SYMBOL        err_code
  D:0030H         SYMBOL        excode
  -------         ENDDO         
  C:4221H         LINE#         1100
  C:4229H         LINE#         1101
  C:4229H         LINE#         1104
  C:422CH         LINE#         1106
  C:423AH         LINE#         1107
  C:4275H         LINE#         1108
  C:4283H         LINE#         1109
  C:4293H         LINE#         1110
  C:4293H         LINE#         1111
  C:42C0H         LINE#         1112
  C:42C0H         LINE#         1113
  C:42C3H         LINE#         1114
  C:42C5H         LINE#         1115
  C:42C5H         LINE#         1116
  C:42CDH         LINE#         1117
  C:42D7H         LINE#         1118
  C:42E2H         LINE#         1119
  C:42E7H         LINE#         1120
  C:42E7H         LINE#         1121
  C:42ECH         LINE#         1123
  C:42ECH         LINE#         1124
  C:42FBH         LINE#         1125
  C:4309H         LINE#         1126
  C:4314H         LINE#         1127
  C:4317H         LINE#         1128
  C:431EH         LINE#         1129
  C:431EH         LINE#         1130
  C:4320H         LINE#         1131
  C:4323H         LINE#         1132
  C:4323H         LINE#         1133
BL51 BANKED LINKER/LOCATER V6.22                                                      07/01/2013  09:38:04  PAGE 80


  -------         ENDPROC       _MODRTU_WRREG
  -------         PROC          _MODRTU_RLYERROR
  D:0032H         SYMBOL        buf
  D:0005H         SYMBOL        excode
  -------         DO            
  D:0004H         SYMBOL        crc
  -------         ENDDO         
  C:643FH         LINE#         1152
  C:6445H         LINE#         1153
  C:6445H         LINE#         1155
  C:6454H         LINE#         1156
  C:6461H         LINE#         1157
  C:6468H         LINE#         1158
  C:6475H         LINE#         1159
  C:647CH         LINE#         1160
  C:6481H         LINE#         1161
  -------         ENDPROC       _MODRTU_RLYERROR
  -------         PROC          _MODRTU_RXPROC
  D:0021H         SYMBOL        buf
  D:0024H         SYMBOL        n
  C:65CAH         LINE#         1170
  C:65D2H         LINE#         1171
  C:65D2H         LINE#         1172
  C:65D8H         LINE#         1174
  C:65ECH         LINE#         1175
  C:65ECH         LINE#         1176
  C:65EFH         LINE#         1177
  C:65EFH         LINE#         1178
  C:65FAH         LINE#         1179
  C:65FAH         LINE#         1180
  C:6605H         LINE#         1181
  C:6605H         LINE#         1182
  C:6605H         LINE#         1183
  -------         ENDPROC       _MODRTU_RXPROC
  -------         ENDMOD        MODBUSRTU

  -------         MODULE        SEND
  C:0000H         SYMBOL        _ICE_DUMMY_
  C:2DD1H         PUBLIC        SendSpeed
  D:00A0H         PUBLIC        P2
  X:0AB8H         PUBLIC        Braud_Num
  D:00A7H         PUBLIC        SFRPAGE
  C:3FFEH         PUBLIC        Send_TimeProc
  D:000EH         SYMBOL        px_ax
  D:0010H         SYMBOL        py_ax
  C:324AH         SYMBOL        _Send_CDeal
  C:3031H         SYMBOL        _Send_RDeal
  C:1761H         SYMBOL        _Send_SDeal
  C:0003H         SYMBOL        _Send_TDeal
  C:5D17H         SYMBOL        _Send_UDeal
  C:4426H         SYMBOL        _Send_WDeal
  D:00ACH         PUBLIC        SBRL0
  C:2DE5H         PUBLIC        Braud
  -------         PROC          SEND_TIMEPROC
  -------         DO            
  X:09F0H         SYMBOL        rx_buf
  D:0008H         SYMBOL        ptr
BL51 BANKED LINKER/LOCATER V6.22                                                      07/01/2013  09:38:04  PAGE 81


  D:000BH         SYMBOL        i
  D:000CH         SYMBOL        err
  D:000DH         SYMBOL        cmd
  -------         ENDDO         
  C:3FFEH         LINE#         39
  C:3FFEH         LINE#         40
  C:3FFEH         LINE#         47
  C:4004H         LINE#         49
  C:4006H         LINE#         50
  C:400FH         LINE#         51
  C:4012H         LINE#         52
  C:4012H         LINE#         53
  C:4028H         LINE#         54
  C:402EH         LINE#         55
  C:402EH         LINE#         56
  C:4037H         LINE#         57
  C:403EH         LINE#         58
  C:403EH         LINE#         60
  C:4047H         LINE#         61
  C:4047H         LINE#         62
  C:4047H         LINE#         63
  C:4049H         LINE#         66
  C:4049H         LINE#         68
  C:4059H         LINE#         69
  C:4059H         LINE#         71
  C:4064H         LINE#         73
  C:4064H         LINE#         75
  C:4083H         LINE#         76
  C:4083H         LINE#         78
  C:408CH         LINE#         79
  C:408CH         LINE#         80
  C:4096H         LINE#         81
  C:4097H         LINE#         84
  C:4097H         LINE#         85
  C:409DH         LINE#         86
  C:40B5H         LINE#         87
  C:40BDH         LINE#         88
  C:40C8H         LINE#         89
  C:40C8H         LINE#         90
  C:40D0H         LINE#         91
  C:40DBH         LINE#         92
  C:40DBH         LINE#         93
  C:40E6H         LINE#         94
  C:40E6H         LINE#         95
  C:40F1H         LINE#         96
  C:40F1H         LINE#         97
  C:40F8H         LINE#         98
  C:4103H         LINE#         99
  C:4103H         LINE#         100
  C:410AH         LINE#         101
  C:4115H         LINE#         102
  C:4115H         LINE#         103
  C:4115H         LINE#         104
  -------         ENDPROC       SEND_TIMEPROC
  -------         PROC          _SEND_RDEAL
  D:0021H         SYMBOL        buf
  D:0024H         SYMBOL        n
BL51 BANKED LINKER/LOCATER V6.22                                                      07/01/2013  09:38:04  PAGE 82


  -------         DO            
  D:0025H         SYMBOL        data_8u
  -------         ENDDO         
  C:3031H         LINE#         112
  C:3039H         LINE#         113
  C:3039H         LINE#         115
  C:304EH         LINE#         116
  C:3057H         LINE#         117
  C:305AH         LINE#         118
  C:305AH         LINE#         119
  C:3075H         LINE#         120
  C:307EH         LINE#         121
  C:3081H         LINE#         122
  C:3081H         LINE#         123
  C:309CH         LINE#         124
  C:30A5H         LINE#         125
  C:30A8H         LINE#         126
  C:30A8H         LINE#         127
  C:30C3H         LINE#         128
  C:30CCH         LINE#         129
  C:30CFH         LINE#         130
  C:30CFH         LINE#         131
  C:30EAH         LINE#         132
  C:30F3H         LINE#         133
  C:30F6H         LINE#         134
  C:30F6H         LINE#         135
  C:3111H         LINE#         136
  C:311AH         LINE#         137
  C:311DH         LINE#         138
  C:311DH         LINE#         139
  C:3138H         LINE#         140
  C:3141H         LINE#         141
  C:3151H         LINE#         142
  C:315BH         LINE#         143
  C:3160H         LINE#         144
  C:3160H         LINE#         145
  C:317BH         LINE#         146
  C:3184H         LINE#         147
  C:318FH         LINE#         148
  C:3192H         LINE#         149
  C:3194H         LINE#         150
  C:31AFH         LINE#         151
  C:31B8H         LINE#         152
  C:31C3H         LINE#         153
  C:31C9H         LINE#         154
  C:31C9H         LINE#         155
  C:31E4H         LINE#         156
  C:31EAH         LINE#         157
  C:31FAH         LINE#         158
  C:3203H         LINE#         159
  C:3208H         LINE#         160
  C:3208H         LINE#         161
  C:3223H         LINE#         162
  C:3228H         LINE#         163
  C:3238H         LINE#         164
  C:3241H         LINE#         165
  C:3246H         LINE#         166
BL51 BANKED LINKER/LOCATER V6.22                                                      07/01/2013  09:38:04  PAGE 83


  C:3246H         LINE#         167
  C:3249H         LINE#         168
  -------         ENDPROC       _SEND_RDEAL
  -------         PROC          _SEND_CDEAL
  D:0021H         SYMBOL        buf
  D:0024H         SYMBOL        n
  C:324AH         LINE#         176
  C:3252H         LINE#         177
  C:3252H         LINE#         178
  C:3267H         LINE#         179
  C:3270H         LINE#         180
  C:327BH         LINE#         181
  C:3286H         LINE#         182
  C:328EH         LINE#         183
  C:328EH         LINE#         184
  C:3291H         LINE#         185
  C:32ACH         LINE#         186
  C:32B5H         LINE#         187
  C:32C0H         LINE#         188
  C:32C3H         LINE#         189
  C:32CEH         LINE#         190
  C:32CEH         LINE#         191
  C:32D1H         LINE#         194
  C:32ECH         LINE#         195
  C:32F5H         LINE#         196
  C:32FBH         LINE#         197
  C:3303H         LINE#         198
  C:3303H         LINE#         199
  C:3306H         LINE#         200
  C:3306H         LINE#         201
  C:3309H         LINE#         202
  C:3324H         LINE#         203
  C:332DH         LINE#         204
  C:3333H         LINE#         205
  C:333EH         LINE#         206
  C:3341H         LINE#         207
  C:334CH         LINE#         208
  C:3357H         LINE#         210
  C:3357H         LINE#         211
  C:3357H         LINE#         212
  C:335AH         LINE#         213
  C:3375H         LINE#         214
  C:337EH         LINE#         215
  C:3384H         LINE#         216
  C:338CH         LINE#         217
  C:338CH         LINE#         218
  C:338FH         LINE#         219
  C:338FH         LINE#         220
  C:3392H         LINE#         221
  C:33ADH         LINE#         222
  C:33B6H         LINE#         223
  C:33BCH         LINE#         224
  C:33C7H         LINE#         225
  C:33CAH         LINE#         226
  C:33D5H         LINE#         227
  C:33E0H         LINE#         228
  C:33E0H         LINE#         229
BL51 BANKED LINKER/LOCATER V6.22                                                      07/01/2013  09:38:04  PAGE 84


  C:33E0H         LINE#         230
  C:33E2H         LINE#         231
  C:33FDH         LINE#         232
  C:3403H         LINE#         233
  C:3409H         LINE#         234
  C:3411H         LINE#         235
  C:3411H         LINE#         236
  C:3413H         LINE#         237
  C:3413H         LINE#         238
  C:3415H         LINE#         239
  C:3430H         LINE#         240
  C:3435H         LINE#         241
  C:343BH         LINE#         242
  C:3446H         LINE#         243
  C:3449H         LINE#         244
  C:3449H         LINE#         245
  C:344CH         LINE#         246
  C:344CH         LINE#         247
  -------         ENDPROC       _SEND_CDEAL
  -------         PROC          _SEND_SDEAL
  D:0021H         SYMBOL        buf
  D:0024H         SYMBOL        n
  -------         DO            
  D:0025H         SYMBOL        data_ram
  D:0026H         SYMBOL        data_8u
  D:0027H         SYMBOL        data_32s
  D:0007H         SYMBOL        i
  D:002BH         SYMBOL        SfrPage_
  -------         ENDDO         
  C:1761H         LINE#         255
  C:1769H         LINE#         256
  C:1769H         LINE#         259
  C:176CH         LINE#         261
  C:1781H         LINE#         262
  C:178AH         LINE#         263
  C:1795H         LINE#         264
  C:1798H         LINE#         265
  C:179EH         LINE#         266
  C:179FH         LINE#         267
  C:17BAH         LINE#         268
  C:17C3H         LINE#         269
  C:17CEH         LINE#         270
  C:17D1H         LINE#         271
  C:17D6H         LINE#         272
  C:17EDH         LINE#         273
  C:17EDH         LINE#         274
  C:17F0H         LINE#         275
  C:17F0H         LINE#         276
  C:17F1H         LINE#         277
  C:1818H         LINE#         278
  C:1821H         LINE#         279
  C:183AH         LINE#         280
  C:183AH         LINE#         281
  C:183AH         LINE#         282
  C:184EH         LINE#         284
  C:184EH         LINE#         285
  C:1853H         LINE#         286
BL51 BANKED LINKER/LOCATER V6.22                                                      07/01/2013  09:38:04  PAGE 85


  C:1858H         LINE#         287
  C:185BH         LINE#         288
  C:185DH         LINE#         290
  C:185DH         LINE#         291
  C:1860H         LINE#         292
  C:1860H         LINE#         293
  C:187DH         LINE#         294
  C:187EH         LINE#         295
  C:1893H         LINE#         296
  C:1896H         LINE#         297
  C:1896H         LINE#         298
  C:1896H         LINE#         299
  C:1899H         LINE#         300
  C:18A2H         LINE#         302
  C:18BDH         LINE#         303
  C:18C6H         LINE#         304
  C:18D6H         LINE#         305
  C:18E7H         LINE#         306
  C:18ECH         LINE#         307
  C:18F4H         LINE#         308
  C:18F4H         LINE#         309
  C:18F7H         LINE#         310
  C:1912H         LINE#         311
  C:191BH         LINE#         312
  C:1921H         LINE#         313
  C:1927H         LINE#         314
  C:192FH         LINE#         315
  C:192FH         LINE#         316
  C:1932H         LINE#         317
  C:194DH         LINE#         318
  C:1956H         LINE#         319
  C:195CH         LINE#         320
  C:1962H         LINE#         321
  C:196AH         LINE#         322
  C:196AH         LINE#         323
  C:196DH         LINE#         324
  C:1988H         LINE#         325
  C:1991H         LINE#         326
  C:19AFH         LINE#         327
  C:19BAH         LINE#         328
  C:19BDH         LINE#         329
  C:19C8H         LINE#         330
  C:19C8H         LINE#         331
  C:19E3H         LINE#         332
  C:19ECH         LINE#         333
  C:1A0AH         LINE#         334
  C:1A15H         LINE#         335
  C:1A18H         LINE#         336
  C:1A23H         LINE#         337
  C:1A23H         LINE#         338
  C:1A3EH         LINE#         339
  C:1A47H         LINE#         340
  C:1A57H         LINE#         341
  C:1A6BH         LINE#         342
  C:1A70H         LINE#         343
  C:1A78H         LINE#         344
  C:1A78H         LINE#         345
BL51 BANKED LINKER/LOCATER V6.22                                                      07/01/2013  09:38:04  PAGE 86


  C:1A7BH         LINE#         346
  C:1A96H         LINE#         347
  C:1A9FH         LINE#         348
  C:1AAFH         LINE#         349
  C:1AC3H         LINE#         350
  C:1AC8H         LINE#         351
  C:1AD0H         LINE#         352
  C:1AD0H         LINE#         353
  C:1AD3H         LINE#         354
  C:1AEEH         LINE#         355
  C:1AF7H         LINE#         356
  C:1B15H         LINE#         357
  C:1B2AH         LINE#         358
  C:1B3AH         LINE#         359
  C:1B3FH         LINE#         360
  C:1B42H         LINE#         361
  C:1B42H         LINE#         362
  C:1B45H         LINE#         363
  C:1B45H         LINE#         364
  C:1B48H         LINE#         365
  C:1B66H         LINE#         366
  C:1B6FH         LINE#         367
  C:1B8DH         LINE#         368
  C:1BE8H         LINE#         370
  C:1BEBH         LINE#         372
  C:1BEBH         LINE#         373
  C:1BF6H         LINE#         374
  C:1BFBH         LINE#         375
  C:1C01H         LINE#         376
  C:1C04H         LINE#         377
  C:1C0CH         LINE#         378
  C:1C12H         LINE#         379
  C:1C15H         LINE#         380
  C:1C15H         LINE#         381
  C:1C30H         LINE#         382
  C:1C39H         LINE#         383
  C:1C57H         LINE#         384
  C:1C6CH         LINE#         385
  C:1C7CH         LINE#         386
  C:1C81H         LINE#         387
  C:1C87H         LINE#         388
  C:1C87H         LINE#         389
  C:1C8AH         LINE#         390
  C:1C8AH         LINE#         391
  C:1C8DH         LINE#         392
  C:1CABH         LINE#         393
  C:1CB4H         LINE#         394
  C:1CD2H         LINE#         395
  C:1D2DH         LINE#         397
  C:1D30H         LINE#         399
  C:1D30H         LINE#         400
  C:1D3BH         LINE#         401
  C:1D40H         LINE#         402
  C:1D46H         LINE#         404
  C:1D49H         LINE#         405
  C:1D51H         LINE#         406
  C:1D57H         LINE#         407
BL51 BANKED LINKER/LOCATER V6.22                                                      07/01/2013  09:38:04  PAGE 87


  C:1D5AH         LINE#         408
  C:1D5AH         LINE#         410
  C:1D75H         LINE#         411
  C:1D7EH         LINE#         413
  C:1DBAH         LINE#         414
  C:1DBAH         LINE#         415
  C:1DBDH         LINE#         416
  C:1DD8H         LINE#         417
  C:1DE1H         LINE#         418
  C:1DF8H         LINE#         419
  C:1E03H         LINE#         420
  C:1E03H         LINE#         421
  C:1E06H         LINE#         422
  C:1E21H         LINE#         423
  C:1E2AH         LINE#         424
  C:1E48H         LINE#         426
  C:1E53H         LINE#         427
  C:1E5EH         LINE#         428
  C:1E5EH         LINE#         429
  C:1E61H         LINE#         430
  C:1E7CH         LINE#         431
  C:1E85H         LINE#         432
  C:1EA3H         LINE#         434
  C:1EAEH         LINE#         435
  C:1EB9H         LINE#         436
  C:1EB9H         LINE#         437
  C:1EBCH         LINE#         438
  C:1ED7H         LINE#         439
  C:1EE0H         LINE#         440
  C:1EFEH         LINE#         442
  C:1F09H         LINE#         443
  C:1F14H         LINE#         444
  C:1F14H         LINE#         445
  C:1F17H         LINE#         446
  C:1F32H         LINE#         447
  C:1F3BH         LINE#         448
  C:1F59H         LINE#         449
  C:1F63H         LINE#         450
  C:1F6EH         LINE#         451
  C:1F6EH         LINE#         452
  C:1F71H         LINE#         453
  C:1F8CH         LINE#         454
  C:1F95H         LINE#         455
  C:1FA0H         LINE#         456
  C:1FA3H         LINE#         457
  C:1FAAH         LINE#         458
  C:1FADH         LINE#         459
  C:1FADH         LINE#         460
  C:1FC8H         LINE#         461
  C:1FC8H         LINE#         462
  C:1FD1H         LINE#         463
  C:1FE1H         LINE#         464
  C:1FE9H         LINE#         465
  C:1FEFH         LINE#         466
  C:1FF4H         LINE#         467
  C:1FF7H         LINE#         468
  C:1FFEH         LINE#         469
BL51 BANKED LINKER/LOCATER V6.22                                                      07/01/2013  09:38:04  PAGE 88


  C:2001H         LINE#         470
  C:2030H         LINE#         471
  C:2033H         LINE#         472
  C:2034H         LINE#         473
  C:204FH         LINE#         474
  C:204FH         LINE#         475
  C:2055H         LINE#         476
  C:2065H         LINE#         477
  C:206DH         LINE#         478
  C:2070H         LINE#         479
  C:207BH         LINE#         480
  C:207EH         LINE#         481
  C:207EH         LINE#         482
  -------         ENDPROC       _SEND_SDEAL
  -------         PROC          _SEND_WDEAL
  D:0021H         SYMBOL        buf
  D:0024H         SYMBOL        n
  -------         DO            
  D:0025H         SYMBOL        data_x
  D:0027H         SYMBOL        data_y
  D:0029H         SYMBOL        data_t
  -------         ENDDO         
  C:4426H         LINE#         490
  C:442EH         LINE#         491
  C:442EH         LINE#         494
  C:4446H         LINE#         495
  C:444FH         LINE#         496
  C:446DH         LINE#         497
  C:448AH         LINE#         498
  C:44A7H         LINE#         499
  C:44C9H         LINE#         500
  C:44D1H         LINE#         501
  C:44D3H         LINE#         503
  C:44D3H         LINE#         504
  C:44D3H         LINE#         505
  C:44D5H         LINE#         506
  C:44F0H         LINE#         507
  C:44F6H         LINE#         508
  C:44F9H         LINE#         510
  C:44F9H         LINE#         511
  C:4517H         LINE#         512
  C:4522H         LINE#         513
  C:4525H         LINE#         514
  C:4525H         LINE#         515
  -------         ENDPROC       _SEND_WDEAL
  -------         PROC          _SEND_UDEAL
  D:0021H         SYMBOL        buf
  D:0024H         SYMBOL        n
  C:5D17H         LINE#         523
  C:5D1FH         LINE#         524
  C:5D1FH         LINE#         525
  C:5D34H         LINE#         526
  C:5D34H         LINE#         528
  C:5D3AH         LINE#         529
  C:5D3DH         LINE#         530
  C:5D45H         LINE#         531
  C:5D45H         LINE#         533
BL51 BANKED LINKER/LOCATER V6.22                                                      07/01/2013  09:38:04  PAGE 89


  C:5D47H         LINE#         534
  C:5D62H         LINE#         535
  C:5D62H         LINE#         536
  C:5D67H         LINE#         537
  C:5D6AH         LINE#         538
  C:5D75H         LINE#         539
  C:5D78H         LINE#         540
  C:5D78H         LINE#         542
  C:5D7BH         LINE#         543
  -------         ENDPROC       _SEND_UDEAL
  -------         PROC          _SEND_TDEAL
  D:0001H         SYMBOL        buf
  D:0021H         SYMBOL        n
  C:0003H         LINE#         554
  C:0005H         LINE#         555
  C:0005H         LINE#         556
  C:001AH         LINE#         557
  C:001FH         LINE#         558
  C:0022H         LINE#         559
  C:0022H         LINE#         560
  -------         ENDPROC       _SEND_TDEAL
  -------         ENDMOD        SEND

  -------         MODULE        SENSOR
  C:0000H         SYMBOL        _ICE_DUMMY_
  D:00A0H         PUBLIC        P2
  C:6D95H         PUBLIC        _SnXFilter
  C:6DA7H         PUBLIC        _SnYFilter
  D:00E8H         PUBLIC        ADC0CN
  C:4CEAH         SYMBOL        _GetOffset
  C:70C2H         PUBLIC        GetXAng
  C:70C9H         PUBLIC        GetYAng
  C:5780H         SYMBOL        _SnFilter
  C:6BBBH         PUBLIC        SnXDataInit
  C:6BD6H         PUBLIC        SnYDataInit
  C:7112H         PUBLIC        GetFilterCnt
  C:5AAAH         SYMBOL        _Sn_DataInit
  C:7118H         PUBLIC        _SetFilterCnt
  C:6E5CH         PUBLIC        Get_McuTemp
  C:7025H         PUBLIC        GetXOftVal
  C:702EH         PUBLIC        GetYOftVal
  X:0AB9H         SYMBOL        filtercnt
  X:0ABAH         PUBLIC        accel_x
  C:50E5H         SYMBOL        _GetAngCalcVal
  X:0ADAH         PUBLIC        accel_y
  C:54DEH         PUBLIC        SnProc
  C:5A3CH         PUBLIC        SnInit
  C:7013H         PUBLIC        GetXFtVal
  C:701CH         PUBLIC        GetYFtVal
  C:7001H         PUBLIC        AngXCalc
  C:7050H         PUBLIC        _GetXOffset
  C:700AH         PUBLIC        AngYCalc
  C:7058H         PUBLIC        _GetYOffset
  C:4EF5H         SYMBOL        _Ang_Calc
  -------         PROC          _SN_DATAINIT
  D:0021H         SYMBOL        p_sn
  D:0024H         SYMBOL        p_tempcal
BL51 BANKED LINKER/LOCATER V6.22                                                      07/01/2013  09:38:04  PAGE 90


  D:0027H         SYMBOL        p_angcal
  C:5AAAH         LINE#         31
  C:5AB0H         LINE#         32
  C:5AB0H         LINE#         33
  C:5AB6H         LINE#         34
  C:5AC5H         LINE#         35
  C:5ACFH         LINE#         36
  C:5AD8H         LINE#         37
  C:5AE2H         LINE#         38
  C:5AFAH         LINE#         39
  C:5B12H         LINE#         40
  -------         ENDPROC       _SN_DATAINIT
  -------         PROC          _SNFILTER
  D:0021H         SYMBOL        p_sn
  D:0024H         SYMBOL        val
  D:0026H         SYMBOL        ftcnt
  C:5780H         LINE#         49
  C:578AH         LINE#         50
  C:578AH         LINE#         51
  C:57A3H         LINE#         52
  C:57A3H         LINE#         53
  C:57C1H         LINE#         55
  C:57DFH         LINE#         57
  C:57E1H         LINE#         59
  C:57ECH         LINE#         60
  -------         ENDPROC       _SNFILTER
  -------         PROC          L?0047
  -------         ENDPROC       L?0047
  -------         PROC          _GETOFFSET
  D:0021H         SYMBOL        p_sn
  D:0024H         SYMBOL        temp
  -------         DO            
  D:0026H         SYMBOL        i
  D:0004H         SYMBOL        offset
  -------         ENDDO         
  C:4CEAH         LINE#         70
  C:4CF4H         LINE#         71
  C:4CF4H         LINE#         75
  C:4D0FH         LINE#         76
  C:4D0FH         LINE#         77
  C:4D41H         LINE#         78
  C:4D41H         LINE#         79
  C:4D45H         LINE#         80
  C:4D97H         LINE#         82
  C:4D9AH         LINE#         83
  -------         ENDPROC       _GETOFFSET
  -------         PROC          _GETANGCALCVAL
  D:0028H         SYMBOL        p_sn
  D:002BH         SYMBOL        val
  -------         DO            
  D:002DH         SYMBOL        i
  D:0004H         SYMBOL        tmp
  -------         ENDDO         
  C:50E5H         LINE#         92
  C:50EFH         LINE#         93
  C:50EFH         LINE#         97
  C:510AH         LINE#         98
BL51 BANKED LINKER/LOCATER V6.22                                                      07/01/2013  09:38:04  PAGE 91


  C:510AH         LINE#         99
  C:512FH         LINE#         100
  C:512FH         LINE#         101
  C:5133H         LINE#         102
  C:5185H         LINE#         103
  C:5185H         LINE#         104
  -------         ENDPROC       _GETANGCALCVAL
  -------         PROC          _ANG_CALC
  D:0021H         SYMBOL        p_sn
  -------         DO            
  D:0024H         SYMBOL        ang
  -------         ENDDO         
  C:4EF5H         LINE#         113
  C:4EFBH         LINE#         114
  C:4EFBH         LINE#         116
  C:4F0FH         LINE#         117
  C:4F23H         LINE#         118
  C:4F34H         LINE#         119
  C:4F4AH         LINE#         120
  C:4F5BH         LINE#         122
  C:4F5BH         LINE#         123
  C:4F6EH         LINE#         124
  C:4F8CH         LINE#         125
  C:4F9BH         LINE#         126
  C:4F9BH         LINE#         127
  -------         ENDPROC       _ANG_CALC
  -------         PROC          SNXDATAINIT
  C:6BBBH         LINE#         133
  C:6BBBH         LINE#         134
  C:6BBBH         LINE#         135
  -------         ENDPROC       SNXDATAINIT
  -------         PROC          SNYDATAINIT
  C:6BD6H         LINE#         137
  C:6BD6H         LINE#         138
  C:6BD6H         LINE#         139
  -------         ENDPROC       SNYDATAINIT
  -------         PROC          _SNXFILTER
  D:0006H         SYMBOL        val
  D:0082H         SYMBOL        ftcnt
  C:6D95H         LINE#         141
  C:6D97H         LINE#         142
  C:6D97H         LINE#         143
  -------         ENDPROC       _SNXFILTER
  -------         PROC          _SNYFILTER
  D:0006H         SYMBOL        val
  D:0082H         SYMBOL        ftcnt
  C:6DA7H         LINE#         145
  C:6DA9H         LINE#         146
  C:6DA9H         LINE#         147
  -------         ENDPROC       _SNYFILTER
  -------         PROC          _GETXOFFSET
  D:0004H         SYMBOL        temp
  C:7050H         LINE#         149
  C:7050H         LINE#         150
  C:7050H         LINE#         151
  C:7057H         LINE#         152
  -------         ENDPROC       _GETXOFFSET
BL51 BANKED LINKER/LOCATER V6.22                                                      07/01/2013  09:38:04  PAGE 92


  -------         PROC          _GETYOFFSET
  D:0004H         SYMBOL        temp
  C:7058H         LINE#         153
  C:7058H         LINE#         154
  C:7058H         LINE#         155
  C:705FH         LINE#         156
  -------         ENDPROC       _GETYOFFSET
  -------         PROC          ANGXCALC
  C:7001H         LINE#         157
  C:7001H         LINE#         158
  C:7001H         LINE#         159
  -------         ENDPROC       ANGXCALC
  -------         PROC          ANGYCALC
  C:700AH         LINE#         161
  C:700AH         LINE#         162
  C:700AH         LINE#         163
  -------         ENDPROC       ANGYCALC
  -------         PROC          SNINIT
  C:5A3CH         LINE#         172
  C:5A3CH         LINE#         173
  C:5A3CH         LINE#         174
  C:5A3FH         LINE#         175
  C:5A44H         LINE#         176
  C:5A50H         LINE#         177
  C:5A5AH         LINE#         178
  C:5A64H         LINE#         179
  C:5A6EH         LINE#         180
  C:5A77H         LINE#         182
  C:5A83H         LINE#         183
  C:5A8DH         LINE#         184
  C:5A97H         LINE#         185
  C:5AA1H         LINE#         186
  -------         ENDPROC       SNINIT
  -------         PROC          SNPROC
  C:54DEH         LINE#         196
  C:54DEH         LINE#         197
  C:54DEH         LINE#         198
  C:54DEH         LINE#         199
  C:54E6H         LINE#         201
  C:54EAH         LINE#         203
  C:54F3H         LINE#         204
  C:54F3H         LINE#         205
  C:54F3H         LINE#         206
  C:54FEH         LINE#         207
  C:5505H         LINE#         208
  C:5525H         LINE#         210
  C:5528H         LINE#         211
  C:552AH         LINE#         213
  C:552AH         LINE#         214
  C:5535H         LINE#         215
  C:553CH         LINE#         216
  C:555CH         LINE#         218
  C:5565H         LINE#         219
  C:5565H         LINE#         220
  C:5565H         LINE#         221
  C:5565H         LINE#         222
  C:5568H         LINE#         223
BL51 BANKED LINKER/LOCATER V6.22                                                      07/01/2013  09:38:04  PAGE 93


  C:5568H         LINE#         224
  -------         ENDPROC       SNPROC
  -------         PROC          GETFILTERCNT
  C:7112H         LINE#         233
  C:7112H         LINE#         234
  C:7112H         LINE#         235
  C:7117H         LINE#         236
  -------         ENDPROC       GETFILTERCNT
  -------         PROC          _SETFILTERCNT
  D:0007H         SYMBOL        cnt
  C:7118H         LINE#         244
  C:7118H         LINE#         245
  C:7118H         LINE#         246
  C:711DH         LINE#         247
  -------         ENDPROC       _SETFILTERCNT
  -------         PROC          L?0046
  -------         ENDPROC       L?0046
  -------         PROC          GET_MCUTEMP
  C:6E5CH         LINE#         256
  C:6E5CH         LINE#         257
  C:6E5CH         LINE#         261
  C:6E5FH         LINE#         262
  -------         ENDPROC       GET_MCUTEMP
  -------         PROC          GETXFTVAL
  C:7013H         LINE#         271
  C:7013H         LINE#         272
  C:7013H         LINE#         273
  C:701BH         LINE#         274
  -------         ENDPROC       GETXFTVAL
  -------         PROC          GETYFTVAL
  C:701CH         LINE#         283
  C:701CH         LINE#         284
  C:701CH         LINE#         285
  C:7024H         LINE#         286
  -------         ENDPROC       GETYFTVAL
  -------         PROC          GETXOFTVAL
  C:7025H         LINE#         295
  C:7025H         LINE#         296
  C:7025H         LINE#         297
  C:702DH         LINE#         298
  -------         ENDPROC       GETXOFTVAL
  -------         PROC          GETYOFTVAL
  C:702EH         LINE#         307
  C:702EH         LINE#         308
  C:702EH         LINE#         309
  C:7036H         LINE#         310
  -------         ENDPROC       GETYOFTVAL
  -------         PROC          GETXANG
  C:70C2H         LINE#         319
  C:70C2H         LINE#         320
  C:70C2H         LINE#         321
  C:70C8H         LINE#         322
  -------         ENDPROC       GETXANG
  -------         PROC          GETYANG
  C:70C9H         LINE#         331
  C:70C9H         LINE#         332
  C:70C9H         LINE#         333
BL51 BANKED LINKER/LOCATER V6.22                                                      07/01/2013  09:38:04  PAGE 94


  C:70CFH         LINE#         334
  -------         ENDPROC       GETYANG
  -------         ENDMOD        SENSOR

  -------         MODULE        SUB
  C:0000H         SYMBOL        _ICE_DUMMY_
  C:3C48H         PUBLIC        _Sub_Int32s2Str
  C:364DH         PUBLIC        _Sub_Str2Int32s
  C:6A4EH         PUBLIC        _Sub_Int16s2Str
  C:5EF5H         PUBLIC        _Sub_Str2Int16s
  D:00A0H         PUBLIC        P2
  C:7037H         PUBLIC        _Sub_SendOffset
  C:4D9BH         PUBLIC        _Sub_Int16u2Str
  C:4C25H         PUBLIC        _Sub_Str2Int16u
  C:6CDBH         PUBLIC        _Comm_PutInt8u
  C:6F90H         PUBLIC        Sub_SysRst
  D:00A7H         PUBLIC        SFRPAGE
  C:6B84H         PUBLIC        Sub_SendSysNum
  C:6052H         PUBLIC        _Sub_SendAngXCal
  C:63F7H         PUBLIC        _Sub_SendAngYCal
  C:5E9AH         PUBLIC        Sub_SendTCalTest
  C:6606H         PUBLIC        Sub_SendID
  C:63AFH         PUBLIC        _Sub_SendAdcTXY
  C:5876H         PUBLIC        _Sub_BufBubble2
  C:6D6FH         PUBLIC        _Comm_PutInt32s
  C:67E3H         PUBLIC        _Comm_PutInt16s
  C:654EH         PUBLIC        Sub_SendAngXYP
  C:6B6CH         PUBLIC        _Comm_PutInt16u
  C:688FH         PUBLIC        _Sub_StralarmCheck
  C:47DFH         PUBLIC        _Sub_SendTempCal
  C:6E20H         PUBLIC        Sub_SendErr
  C:6E0FH         PUBLIC        Sub_SendOk
  C:6AB2H         PUBLIC        _Sub_Int8u2Str
  C:6642H         PUBLIC        _Sub_Str2Int8u
  C:5D7CH         PUBLIC        Sub_SendPrmtAll
  C:62CDH         PUBLIC        _Sub_16SBufSwitch
  C:6FAFH         PUBLIC        Comm_PutNewLine
  C:691AH         PUBLIC        Sub_SendAngXY
  D:00EFH         PUBLIC        RSTSRC
  C:6E31H         PUBLIC        Sub_SendSoftVer
  C:5FFCH         PUBLIC        _Sub_SBufSwitch
  C:6319H         PUBLIC        _Sub_UBufSwitch
  C:5B13H         PUBLIC        _Sub_BufBubble
  -------         PROC          _COMM_PUTINT32S
  D:0004H         SYMBOL        val
  C:6D6FH         LINE#         26
  C:6D6FH         LINE#         27
  C:6D6FH         LINE#         28
  C:6D78H         LINE#         29
  -------         ENDPROC       _COMM_PUTINT32S
  C:67CCH         SYMBOL        L?0089
  C:67CFH         SYMBOL        L?0090
  C:67DDH         SYMBOL        L?0091
  -------         PROC          L?0088
  -------         ENDPROC       L?0088
  C:67CCH         SYMBOL        L?0089
  C:67CFH         SYMBOL        L?0090
BL51 BANKED LINKER/LOCATER V6.22                                                      07/01/2013  09:38:04  PAGE 95


  C:67DDH         SYMBOL        L?0091
  -------         PROC          _COMM_PUTINT16S
  D:0004H         SYMBOL        val
  C:67E3H         LINE#         39
  C:67E7H         LINE#         40
  C:67E7H         LINE#         41
  C:67F0H         LINE#         42
  -------         ENDPROC       _COMM_PUTINT16S
  C:6B68H         SYMBOL        L?0093
  -------         PROC          L?0092
  -------         ENDPROC       L?0092
  C:6B68H         SYMBOL        L?0093
  -------         PROC          _COMM_PUTINT16U
  D:0004H         SYMBOL        val
  C:6B6CH         LINE#         51
  C:6B70H         LINE#         52
  C:6B70H         LINE#         53
  C:6B79H         LINE#         54
  -------         ENDPROC       _COMM_PUTINT16U
  -------         PROC          _COMM_PUTINT8U
  D:0005H         SYMBOL        val
  C:6CDBH         LINE#         63
  C:6CDDH         LINE#         64
  C:6CDDH         LINE#         65
  C:6CE6H         LINE#         66
  -------         ENDPROC       _COMM_PUTINT8U
  -------         PROC          COMM_PUTNEWLINE
  C:6FAFH         LINE#         76
  C:6FAFH         LINE#         77
  C:6FAFH         LINE#         78
  C:6FB4H         LINE#         79
  -------         ENDPROC       COMM_PUTNEWLINE
  -------         PROC          SUB_SENDOK
  -------         DO            
  D:0001H         SYMBOL        str
  -------         ENDDO         
  C:6E0FH         LINE#         88
  C:6E0FH         LINE#         89
  C:6E0FH         LINE#         90
  C:6E15H         LINE#         91
  C:6E1AH         LINE#         92
  C:6E1DH         LINE#         93
  -------         ENDPROC       SUB_SENDOK
  -------         PROC          SUB_SENDERR
  -------         DO            
  D:0001H         SYMBOL        str
  -------         ENDDO         
  C:6E20H         LINE#         96
  C:6E20H         LINE#         97
  C:6E26H         LINE#         100
  C:6E2BH         LINE#         101
  C:6E2EH         LINE#         102
  -------         ENDPROC       SUB_SENDERR
  -------         PROC          SUB_SENDANGXY
  C:691AH         LINE#         105
  C:691AH         LINE#         106
  C:691AH         LINE#         107
BL51 BANKED LINKER/LOCATER V6.22                                                      07/01/2013  09:38:04  PAGE 96


  C:6925H         LINE#         108
  C:692BH         LINE#         110
  C:692EH         LINE#         111
  C:6939H         LINE#         112
  C:693FH         LINE#         114
  C:6942H         LINE#         116
  -------         ENDPROC       SUB_SENDANGXY
  -------         PROC          SUB_SENDANGXYP
  C:654EH         LINE#         119
  C:654EH         LINE#         120
  C:654EH         LINE#         121
  C:6559H         LINE#         122
  C:655FH         LINE#         123
  C:6562H         LINE#         124
  C:656DH         LINE#         125
  C:6573H         LINE#         126
  C:6576H         LINE#         127
  C:6581H         LINE#         128
  C:6587H         LINE#         129
  C:658AH         LINE#         131
  -------         ENDPROC       SUB_SENDANGXYP
  -------         PROC          _SUB_SENDADCTXY
  D:0033H         SYMBOL        temp
  D:0035H         SYMBOL        x
  D:0037H         SYMBOL        y
  C:63AFH         LINE#         134
  C:63BBH         LINE#         135
  C:63BBH         LINE#         136
  C:63CDH         LINE#         137
  C:63DFH         LINE#         138
  C:63F1H         LINE#         139
  C:63F4H         LINE#         140
  -------         ENDPROC       _SUB_SENDADCTXY
  -------         PROC          SUB_SENDPRMTALL
  C:5D7CH         LINE#         143
  C:5D7CH         LINE#         144
  C:5D7CH         LINE#         145
  C:5D8DH         LINE#         146
  C:5D9EH         LINE#         148
  C:5DA9H         LINE#         149
  C:5DB4H         LINE#         151
  C:5DC5H         LINE#         153
  C:5DD0H         LINE#         154
  C:5DDBH         LINE#         159
  C:5DDEH         LINE#         160
  -------         ENDPROC       SUB_SENDPRMTALL
  -------         PROC          _SUB_SENDANGXCAL
  D:0026H         SYMBOL        i
  C:6052H         LINE#         163
  C:6054H         LINE#         164
  C:6054H         LINE#         165
  C:6064H         LINE#         166
  C:6077H         LINE#         168
  C:608AH         LINE#         169
  C:60A0H         LINE#         171
  C:60A3H         LINE#         172
  -------         ENDPROC       _SUB_SENDANGXCAL
BL51 BANKED LINKER/LOCATER V6.22                                                      07/01/2013  09:38:04  PAGE 97


  -------         PROC          _SUB_SENDANGYCAL
  D:0026H         SYMBOL        i
  C:63F7H         LINE#         175
  C:63F9H         LINE#         176
  C:63F9H         LINE#         177
  C:6409H         LINE#         178
  C:6416H         LINE#         179
  C:6424H         LINE#         180
  C:6432H         LINE#         182
  C:6437H         LINE#         183
  C:643CH         LINE#         184
  -------         ENDPROC       _SUB_SENDANGYCAL
  -------         PROC          _SUB_SENDTEMPCAL
  D:0026H         SYMBOL        i
  C:47DFH         LINE#         187
  C:47E1H         LINE#         188
  C:47E1H         LINE#         189
  C:47F1H         LINE#         190
  C:47FEH         LINE#         192
  C:4811H         LINE#         193
  C:4824H         LINE#         195
  C:484BH         LINE#         196
  C:486EH         LINE#         197
  C:4895H         LINE#         198
  C:48B8H         LINE#         200
  C:48BBH         LINE#         201
  -------         ENDPROC       _SUB_SENDTEMPCAL
  -------         PROC          _SUB_SENDOFFSET
  D:0004H         SYMBOL        val
  C:7037H         LINE#         204
  C:7037H         LINE#         205
  C:7037H         LINE#         206
  C:703AH         LINE#         207
  C:703DH         LINE#         208
  -------         ENDPROC       _SUB_SENDOFFSET
  -------         PROC          SUB_SENDID
  C:6606H         LINE#         211
  C:6606H         LINE#         212
  C:6606H         LINE#         213
  C:6611H         LINE#         214
  C:661EH         LINE#         215
  C:6629H         LINE#         216
  C:6634H         LINE#         217
  C:663CH         LINE#         218
  C:663FH         LINE#         219
  -------         ENDPROC       SUB_SENDID
  -------         PROC          SUB_SENDSOFTVER
  C:6E31H         LINE#         222
  C:6E31H         LINE#         223
  C:6E31H         LINE#         224
  C:6E3CH         LINE#         225
  C:6E3FH         LINE#         226
  -------         ENDPROC       SUB_SENDSOFTVER
  -------         PROC          SUB_SENDSYSNUM
  C:6B84H         LINE#         229
  C:6B84H         LINE#         230
  C:6B84H         LINE#         231
BL51 BANKED LINKER/LOCATER V6.22                                                      07/01/2013  09:38:04  PAGE 98


  C:6B8FH         LINE#         232
  C:6B9AH         LINE#         233
  C:6B9DH         LINE#         234
  -------         ENDPROC       SUB_SENDSYSNUM
  -------         PROC          SUB_SENDTCALTEST
  -------         DO            
  D:0022H         SYMBOL        TempX
  D:0024H         SYMBOL        TempY
  -------         ENDDO         
  C:5E9AH         LINE#         237
  C:5E9AH         LINE#         238
  C:5E9AH         LINE#         242
  C:5EAEH         LINE#         243
  C:5EC2H         LINE#         245
  C:5ED2H         LINE#         246
  C:5EDEH         LINE#         247
  C:5EE5H         LINE#         248
  C:5EE8H         LINE#         249
  C:5EEBH         LINE#         251
  -------         ENDPROC       SUB_SENDTCALTEST
  -------         PROC          _SUB_STR2INT32S
  D:002CH         SYMBOL        val
  D:002FH         SYMBOL        str
  -------         DO            
  D:0032H         SYMBOL        temp
  -------         ENDDO         
  C:364DH         LINE#         260
  C:3653H         LINE#         261
  C:3653H         LINE#         264
  C:366EH         LINE#         265
  C:3683H         LINE#         266
  C:3690H         LINE#         267
  C:36A5H         LINE#         268
  C:36BAH         LINE#         269
  C:36CFH         LINE#         270
  C:37A7H         LINE#         271
  C:37B3H         LINE#         272
  C:37B3H         LINE#         273
  C:37B5H         LINE#         274
  C:37B5H         LINE#         275
  C:37C1H         LINE#         276
  C:37D5H         LINE#         277
  C:37D8H         LINE#         278
  C:37D8H         LINE#         279
  C:37DAH         LINE#         280
  -------         ENDPROC       _SUB_STR2INT32S
  -------         PROC          _SUB_STR2INT16S
  D:002BH         SYMBOL        val
  D:002EH         SYMBOL        str
  -------         DO            
  D:0031H         SYMBOL        temp
  -------         ENDDO         
  C:5EF5H         LINE#         282
  C:5EFBH         LINE#         283
  C:5EFBH         LINE#         284
  C:5F18H         LINE#         286
  C:5F25H         LINE#         287
BL51 BANKED LINKER/LOCATER V6.22                                                      07/01/2013  09:38:04  PAGE 99


  C:5F30H         LINE#         288
  C:5F32H         LINE#         289
  C:5F32H         LINE#         290
  C:5F36H         LINE#         291
  C:5F49H         LINE#         292
  C:5F4CH         LINE#         293
  C:5F4CH         LINE#         294
  C:5F4EH         LINE#         295
  -------         ENDPROC       _SUB_STR2INT16S
  -------         PROC          _SUB_STR2INT16U
  D:0033H         SYMBOL        val
  D:0036H         SYMBOL        str
  -------         DO            
  D:0007H         SYMBOL        i
  -------         ENDDO         
  C:4C25H         LINE#         297
  C:4C2BH         LINE#         298
  C:4C2BH         LINE#         301
  C:4C2DH         LINE#         302
  C:4C47H         LINE#         303
  C:4C4AH         LINE#         304
  C:4C4EH         LINE#         305
  C:4CE1H         LINE#         306
  C:4CE3H         LINE#         307
  -------         ENDPROC       _SUB_STR2INT16U
  -------         PROC          _SUB_STR2INT8U
  D:0001H         SYMBOL        str
  -------         DO            
  D:0007H         SYMBOL        val
  -------         ENDDO         
  C:6642H         LINE#         309
  C:6642H         LINE#         310
  C:6642H         LINE#         312
  C:6654H         LINE#         313
  C:6669H         LINE#         314
  C:667DH         LINE#         315
  C:667DH         LINE#         316
  -------         ENDPROC       _SUB_STR2INT8U
  -------         PROC          _SUB_INT32S2STR
  D:002CH         SYMBOL        s
  D:002FH         SYMBOL        val
  C:3C48H         LINE#         318
  C:3C56H         LINE#         319
  C:3C56H         LINE#         320
  C:3C5AH         LINE#         321
  C:3C5AH         LINE#         322
  C:3C65H         LINE#         323
  C:3C67H         LINE#         324
  C:3C69H         LINE#         326
  C:3C69H         LINE#         327
  C:3C74H         LINE#         328
  C:3C74H         LINE#         329
  C:3CA5H         LINE#         331
  C:3CC6H         LINE#         332
  C:3CE8H         LINE#         333
  C:3D01H         LINE#         334
  C:3D23H         LINE#         335
BL51 BANKED LINKER/LOCATER V6.22                                                      07/01/2013  09:38:04  PAGE 100


  C:3D31H         LINE#         336
  C:3D51H         LINE#         337
  C:3D72H         LINE#         338
  C:3D8AH         LINE#         339
  -------         ENDPROC       _SUB_INT32S2STR
  -------         PROC          _SUB_INT16S2STR
  D:0001H         SYMBOL        s
  D:0004H         SYMBOL        val
  C:6A4EH         LINE#         342
  C:6A4EH         LINE#         343
  C:6A4EH         LINE#         344
  C:6A56H         LINE#         345
  C:6A5DH         LINE#         346
  C:6A5FH         LINE#         347
  C:6A61H         LINE#         349
  C:6A66H         LINE#         350
  C:6A66H         LINE#         351
  -------         ENDPROC       _SUB_INT16S2STR
  -------         PROC          _SUB_INT16U2STR
  D:0039H         SYMBOL        s
  D:003CH         SYMBOL        val
  C:4D9BH         LINE#         354
  C:4DA5H         LINE#         355
  C:4DA5H         LINE#         356
  C:4DB6H         LINE#         357
  C:4DC5H         LINE#         358
  C:4DDFH         LINE#         359
  C:4DEEH         LINE#         360
  C:4E08H         LINE#         361
  C:4E17H         LINE#         362
  C:4E31H         LINE#         363
  -------         ENDPROC       _SUB_INT16U2STR
  -------         PROC          _SUB_INT8U2STR
  D:0001H         SYMBOL        s
  D:0005H         SYMBOL        val
  C:6AB2H         LINE#         366
  C:6AB2H         LINE#         367
  C:6AB2H         LINE#         368
  C:6AB9H         LINE#         369
  C:6AC3H         LINE#         370
  -------         ENDPROC       _SUB_INT8U2STR
  -------         PROC          _SUB_SBUFSWITCH
  D:0036H         SYMBOL        buf
  D:0039H         SYMBOL        i
  D:003AH         SYMBOL        j
  -------         DO            
  D:003BH         SYMBOL        temp
  -------         ENDDO         
  C:5FFCH         LINE#         436
  C:6004H         LINE#         437
  C:6004H         LINE#         440
  C:601AH         LINE#         441
  C:6036H         LINE#         442
  -------         ENDPROC       _SUB_SBUFSWITCH
  -------         PROC          _SUB_16SBUFSWITCH
  D:003DH         SYMBOL        buf
  D:0005H         SYMBOL        i
BL51 BANKED LINKER/LOCATER V6.22                                                      07/01/2013  09:38:04  PAGE 101


  D:0041H         SYMBOL        j
  -------         DO            
  D:0042H         SYMBOL        temp
  -------         ENDDO         
  C:62CDH         LINE#         446
  C:62D3H         LINE#         447
  C:62D3H         LINE#         450
  C:62E5H         LINE#         451
  C:6306H         LINE#         452
  -------         ENDPROC       _SUB_16SBUFSWITCH
  -------         PROC          _SUB_UBUFSWITCH
  D:003DH         SYMBOL        buf
  D:0005H         SYMBOL        i
  D:0041H         SYMBOL        j
  -------         DO            
  D:0042H         SYMBOL        temp
  -------         ENDDO         
  C:6319H         LINE#         456
  C:631FH         LINE#         457
  C:631FH         LINE#         460
  C:6331H         LINE#         461
  C:6352H         LINE#         462
  -------         ENDPROC       _SUB_UBUFSWITCH
  -------         PROC          _SUB_BUFBUBBLE
  D:002DH         SYMBOL        id
  D:0030H         SYMBOL        x
  D:0033H         SYMBOL        n
  -------         DO            
  D:0034H         SYMBOL        i
  D:0035H         SYMBOL        j
  -------         ENDDO         
  C:5B13H         LINE#         465
  C:5B19H         LINE#         466
  C:5B19H         LINE#         469
  C:5B23H         LINE#         470
  C:5B2FH         LINE#         471
  C:5B57H         LINE#         472
  C:5B65H         LINE#         473
  C:5B73H         LINE#         474
  C:5B73H         LINE#         475
  C:5B77H         LINE#         476
  C:5B7BH         LINE#         477
  -------         ENDPROC       _SUB_BUFBUBBLE
  -------         PROC          _SUB_BUFBUBBLE2
  D:0031H         SYMBOL        id
  D:0034H         SYMBOL        x
  D:0037H         SYMBOL        y
  D:003AH         SYMBOL        n
  -------         DO            
  D:003BH         SYMBOL        i
  D:003CH         SYMBOL        j
  -------         ENDDO         
  C:5876H         LINE#         479
  C:587CH         LINE#         480
  C:587CH         LINE#         483
  C:5886H         LINE#         484
  C:5892H         LINE#         485
BL51 BANKED LINKER/LOCATER V6.22                                                      07/01/2013  09:38:04  PAGE 102


  C:58BEH         LINE#         486
  C:58C6H         LINE#         487
  C:58D4H         LINE#         488
  C:58E2H         LINE#         489
  C:58E2H         LINE#         490
  C:58E6H         LINE#         491
  C:58EAH         LINE#         492
  -------         ENDPROC       _SUB_BUFBUBBLE2
  -------         PROC          SUB_SYSRST
  -------         DO            
  D:0007H         SYMBOL        SfrPage_
  -------         ENDDO         
  C:6F90H         LINE#         495
  C:6F90H         LINE#         496
  C:6F92H         LINE#         499
  C:6F95H         LINE#         500
  C:6F98H         LINE#         501
  C:6F9AH         LINE#         502
  -------         ENDPROC       SUB_SYSRST
  -------         PROC          _SUB_STRALARMCHECK
  D:002CH         SYMBOL        val
  D:002FH         SYMBOL        str
  C:688FH         LINE#         506
  C:6895H         LINE#         507
  C:6895H         LINE#         508
  C:68A7H         LINE#         509
  C:68A7H         LINE#         510
  C:68B8H         LINE#         511
  C:68BBH         LINE#         512
  C:68BBH         LINE#         514
  C:68BBH         LINE#         515
  C:68BDH         LINE#         516
  C:68BDH         LINE#         518
  -------         ENDPROC       _SUB_STRALARMCHECK
  -------         ENDMOD        SUB

  -------         MODULE        TIMER
  C:0000H         SYMBOL        _ICE_DUMMY_
  D:0017H         PUBLIC        MainTime4En
  D:00A0H         PUBLIC        P2
  C:658DH         PUBLIC        Timer2_ISR
  D:00A7H         PUBLIC        SFRPAGE
  C:6728H         PUBLIC        Timer2_TaskInIsr
  B:00C8H.7       PUBLIC        TF2H
  D:00CCH         PUBLIC        TMR2
  C:66B9H         PUBLIC        Timer2_Init
  D:00C8H         PUBLIC        TMR2CN
  D:00CAH         PUBLIC        TMR2RL
  B:00A8H.5       PUBLIC        ET2
  B:00C8H.2       PUBLIC        TR2
  C:6DB9H         PUBLIC        Timer2_TaskInMain
  D:008EH         PUBLIC        CKCON
  X:0B66H         PUBLIC        MainTime4Cnt
  -------         PROC          TIMER2_INIT
  -------         DO            
  D:0007H         SYMBOL        SfrPage_
  -------         ENDDO         
BL51 BANKED LINKER/LOCATER V6.22                                                      07/01/2013  09:38:04  PAGE 103


  C:66B9H         LINE#         26
  C:66B9H         LINE#         27
  C:66B9H         LINE#         28
  C:66BBH         LINE#         29
  C:66BEH         LINE#         30
  C:66C0H         LINE#         31
  C:66C3H         LINE#         32
  C:66C9H         LINE#         33
  C:66CFH         LINE#         34
  C:66D1H         LINE#         35
  C:66D3H         LINE#         36
  C:66D5H         LINE#         37
  C:66F0H         LINE#         38
  -------         ENDPROC       TIMER2_INIT
  -------         PROC          TIMER2_ISR
  C:658DH         LINE#         46
  C:65AAH         LINE#         48
  C:65ACH         LINE#         49
  C:65AFH         LINE#         50
  -------         ENDPROC       TIMER2_ISR
  -------         PROC          TIMER2_TASKINISR
  C:6728H         LINE#         68
  C:6728H         LINE#         69
  C:6728H         LINE#         70
  C:672BH         LINE#         71
  C:6735H         LINE#         72
  C:673FH         LINE#         73
  C:673FH         LINE#         74
  C:675AH         LINE#         75
  C:675DH         LINE#         77
  C:675DH         LINE#         78
  -------         ENDPROC       TIMER2_TASKINISR
  -------         PROC          TIMER2_TASKINMAIN
  C:6DB9H         LINE#         86
  C:6DB9H         LINE#         87
  C:6DB9H         LINE#         88
  C:6DBEH         LINE#         89
  C:6DC1H         LINE#         90
  C:6DC7H         LINE#         91
  C:6DCAH         LINE#         93
  C:6DCAH         LINE#         94
  -------         ENDPROC       TIMER2_TASKINMAIN
  -------         ENDMOD        TIMER

  -------         MODULE        ?C?FPADD
  C:0055H         PUBLIC        ?C?FPADD
  C:0051H         PUBLIC        ?C?FPSUB
  -------         ENDMOD        ?C?FPADD

  -------         MODULE        ?C?FPMUL
  C:0146H         PUBLIC        ?C?FPMUL
  -------         ENDMOD        ?C?FPMUL

  -------         MODULE        ?C?FPDIV
  C:024FH         PUBLIC        ?C?FPDIV
  -------         ENDMOD        ?C?FPDIV

BL51 BANKED LINKER/LOCATER V6.22                                                      07/01/2013  09:38:04  PAGE 104


  -------         MODULE        ?C?FPCMP
  C:02EEH         PUBLIC        ?C?FPCMP
  C:02ECH         PUBLIC        ?C?FPCMP3
  -------         ENDMOD        ?C?FPCMP

  -------         MODULE        ?C?FCAST
  C:0363H         PUBLIC        ?C?FCASTC
  C:035EH         PUBLIC        ?C?FCASTI
  C:0359H         PUBLIC        ?C?FCASTL
  -------         ENDMOD        ?C?FCAST

  -------         MODULE        ?C?CASTF
  C:0397H         PUBLIC        ?C?CASTF
  -------         ENDMOD        ?C?CASTF

  -------         MODULE        SQRT
  C:4E4FH         PUBLIC        _SQRT
  -------         ENDMOD        SQRT

  -------         MODULE        SIN
  C:3B22H         PUBLIC        _COS
  C:3B38H         PUBLIC        _SIN
  C:3B6AH         PUBLIC        _TAN
  -------         ENDMOD        SIN

  -------         MODULE        ASIN
  C:667EH         PUBLIC        _ASIN
  -------         ENDMOD        ASIN

  -------         MODULE        ATAN
  C:3EF6H         PUBLIC        _ATAN
  -------         ENDMOD        ATAN

  -------         MODULE        ?C?CLDPTR
  C:0465H         PUBLIC        ?C?CLDPTR
  -------         ENDMOD        ?C?CLDPTR

  -------         MODULE        ?C?CLDOPTR
  C:047EH         PUBLIC        ?C?CLDOPTR
  -------         ENDMOD        ?C?CLDOPTR

  -------         MODULE        ?C?CILDPTR
  C:04ABH         PUBLIC        ?C?CILDPTR
  -------         ENDMOD        ?C?CILDPTR

  -------         MODULE        ?C?CSTPTR
  C:04CDH         PUBLIC        ?C?CSTPTR
  -------         ENDMOD        ?C?CSTPTR

  -------         MODULE        ?C?CSTOPTR
  C:04DFH         PUBLIC        ?C?CSTOPTR
  -------         ENDMOD        ?C?CSTOPTR

  -------         MODULE        ?C?IMUL
  C:0501H         PUBLIC        ?C?IMUL
  -------         ENDMOD        ?C?IMUL

BL51 BANKED LINKER/LOCATER V6.22                                                      07/01/2013  09:38:04  PAGE 105


  -------         MODULE        ?C?UIDIV
  C:0513H         PUBLIC        ?C?UIDIV
  -------         ENDMOD        ?C?UIDIV

  -------         MODULE        ?C?SIDIV
  C:0568H         PUBLIC        ?C?SIDIV
  -------         ENDMOD        ?C?SIDIV

  -------         MODULE        ?C?IILDX
  C:059EH         PUBLIC        ?C?IILDX
  -------         ENDMOD        ?C?IILDX

  -------         MODULE        ?C?ILDPTR
  C:05B4H         PUBLIC        ?C?ILDPTR
  -------         ENDMOD        ?C?ILDPTR

  -------         MODULE        ?C?ILDOPTR
  C:05DFH         PUBLIC        ?C?ILDOPTR
  -------         ENDMOD        ?C?ILDOPTR

  -------         MODULE        ?C?IILDPTR
  C:0617H         PUBLIC        ?C?IILDPTR
  -------         ENDMOD        ?C?IILDPTR

  -------         MODULE        ?C?IILDOPTR
  C:064FH         PUBLIC        ?C?IILDOPTR
  -------         ENDMOD        ?C?IILDOPTR

  -------         MODULE        ?C?ISTPTR
  C:069CH         PUBLIC        ?C?ISTPTR
  -------         ENDMOD        ?C?ISTPTR

  -------         MODULE        ?C?ISTOPTR
  C:06BBH         PUBLIC        ?C?ISTOPTR
  -------         ENDMOD        ?C?ISTOPTR

  -------         MODULE        ?C?LADD
  C:06E8H         PUBLIC        ?C?LADD
  -------         ENDMOD        ?C?LADD

  -------         MODULE        ?C?LSUB
  C:06F5H         PUBLIC        ?C?LSUB
  -------         ENDMOD        ?C?LSUB

  -------         MODULE        ?C?LMUL
  C:0703H         PUBLIC        ?C?LMUL
  -------         ENDMOD        ?C?LMUL

  -------         MODULE        ?C?ULDIV
  C:078EH         PUBLIC        ?C?ULDIV
  -------         ENDMOD        ?C?ULDIV

  -------         MODULE        ?C?SLDIV
  C:6484H         PUBLIC        ?C?SLDIV
  -------         ENDMOD        ?C?SLDIV

  -------         MODULE        ?C?LNEG
BL51 BANKED LINKER/LOCATER V6.22                                                      07/01/2013  09:38:04  PAGE 106


  C:0820H         PUBLIC        ?C?LNEG
  -------         ENDMOD        ?C?LNEG

  -------         MODULE        ?C?SLCMP
  C:082EH         PUBLIC        ?C?SLCMP
  -------         ENDMOD        ?C?SLCMP

  -------         MODULE        ?C?ULCMP
  C:0844H         PUBLIC        ?C?ULCMP
  -------         ENDMOD        ?C?ULCMP

  -------         MODULE        ?C?ULSHR
  C:0855H         PUBLIC        ?C?ULSHR
  -------         ENDMOD        ?C?ULSHR

  -------         MODULE        ?C?LSHL
  C:0868H         PUBLIC        ?C?LSHL
  -------         ENDMOD        ?C?LSHL

  -------         MODULE        ?C?LLDPTR
  C:087BH         PUBLIC        ?C?LLDPTR
  -------         ENDMOD        ?C?LLDPTR

  -------         MODULE        ?C?LLDOPTR
  C:089BH         PUBLIC        ?C?LLDOPTR
  -------         ENDMOD        ?C?LLDOPTR

  -------         MODULE        ?C?LSTPTR
  C:08CBH         PUBLIC        ?C?LSTPTR
  -------         ENDMOD        ?C?LSTPTR

  -------         MODULE        ?C?LSTOPTR
  C:08E5H         PUBLIC        ?C?LSTOPTR
  -------         ENDMOD        ?C?LSTOPTR

  -------         MODULE        ?C?LLDXDATA
  C:0909H         PUBLIC        ?C?LLDXDATA
  -------         ENDMOD        ?C?LLDXDATA

  -------         MODULE        ?C?LLDCODE
  C:0915H         PUBLIC        ?C?LLDCODE
  -------         ENDMOD        ?C?LLDCODE

  -------         MODULE        ?C?LLDXDATA0
  C:0925H         PUBLIC        ?C?LLDXDATA0
  -------         ENDMOD        ?C?LLDXDATA0

  -------         MODULE        ?C?LLDCODE0
  C:0931H         PUBLIC        ?C?LLDCODE0
  -------         ENDMOD        ?C?LLDCODE0

  -------         MODULE        ?C?LLDOPTR0
  C:0941H         PUBLIC        ?C?LLDOPTR0
  -------         ENDMOD        ?C?LLDOPTR0

  -------         MODULE        ?C?LSTXDATA
  C:0971H         PUBLIC        ?C?LSTXDATA
BL51 BANKED LINKER/LOCATER V6.22                                                      07/01/2013  09:38:04  PAGE 107


  -------         ENDMOD        ?C?LSTXDATA

  -------         MODULE        ?C?LSTKXDATA
  C:097DH         PUBLIC        ?C?LSTKXDATA
  -------         ENDMOD        ?C?LSTKXDATA

  -------         MODULE        ?C?LSTKOPTR
  C:09AEH         PUBLIC        ?C?LSTKOPTR
  -------         ENDMOD        ?C?LSTKOPTR

  -------         MODULE        ?C?OFFXADD
  C:09D2H         PUBLIC        ?C?OFFXADD
  -------         ENDMOD        ?C?OFFXADD

  -------         MODULE        ?C?PLDIIDATA
  C:09DEH         PUBLIC        ?C?PLDIIDATA
  -------         ENDMOD        ?C?PLDIIDATA

  -------         MODULE        ?C?PLDXDATA
  C:09EEH         PUBLIC        ?C?PLDXDATA
  -------         ENDMOD        ?C?PLDXDATA

  -------         MODULE        ?C?PSTXDATA
  C:09F7H         PUBLIC        ?C?PSTXDATA
  -------         ENDMOD        ?C?PSTXDATA

  -------         MODULE        ?C?PLDOPTR
  C:0A00H         PUBLIC        ?C?PLDOPTR
  -------         ENDMOD        ?C?PLDOPTR

  -------         MODULE        ?C?PLDIOPTR
  C:0A30H         PUBLIC        ?C?PLDIOPTR
  -------         ENDMOD        ?C?PLDIOPTR

  -------         MODULE        ?C?PSTOPTR
  C:0A62H         PUBLIC        ?C?PSTOPTR
  -------         ENDMOD        ?C?PSTOPTR

  -------         MODULE        ?C?CCASE
  C:0ABBH         PUBLIC        ?C?CCASE
  -------         ENDMOD        ?C?CCASE

  -------         MODULE        ?C?ICASE
  C:0AE1H         PUBLIC        ?C?ICASE
  -------         ENDMOD        ?C?ICASE

  -------         MODULE        ?C?ICALL
  C:0B0EH         PUBLIC        ?C?ICALL
  C:0B12H         PUBLIC        ?C?ICALL2
  -------         ENDMOD        ?C?ICALL

  -------         MODULE        STRNCMP
  D:002CH         PUBLIC        ?_strncmp?BYTE
  C:59CDH         PUBLIC        _strncmp
  -------         ENDMOD        STRNCMP

  -------         MODULE        STRNCPY
BL51 BANKED LINKER/LOCATER V6.22                                                      07/01/2013  09:38:04  PAGE 108


  D:002BH         PUBLIC        ?_strncpy?BYTE
  C:60A6H         PUBLIC        _strncpy
  -------         ENDMOD        STRNCPY

  -------         MODULE        ?C?LLDIDATA
  C:0B14H         PUBLIC        ?C?LLDIDATA
  -------         ENDMOD        ?C?LLDIDATA

  -------         MODULE        ?C?LLDPDATA
  C:0B20H         PUBLIC        ?C?LLDPDATA
  -------         ENDMOD        ?C?LLDPDATA

  -------         MODULE        ?C?LLDIDATA0
  C:0B2CH         PUBLIC        ?C?LLDIDATA0
  -------         ENDMOD        ?C?LLDIDATA0

  -------         MODULE        ?C?LLDPDATA0
  C:0B39H         PUBLIC        ?C?LLDPDATA0
  -------         ENDMOD        ?C?LLDPDATA0

  -------         MODULE        ?C?LSTIDATA
  C:0B46H         PUBLIC        ?C?LSTIDATA
  -------         ENDMOD        ?C?LSTIDATA

  -------         MODULE        ?C?LSTPDATA
  C:0B52H         PUBLIC        ?C?LSTPDATA
  -------         ENDMOD        ?C?LSTPDATA

  -------         MODULE        ?C?LSTKIDATA
  C:0B5EH         PUBLIC        ?C?LSTKIDATA
  -------         ENDMOD        ?C?LSTKIDATA

  -------         MODULE        ?C?LSTKPDATA
  C:0B77H         PUBLIC        ?C?LSTKPDATA
  -------         ENDMOD        ?C?LSTKPDATA

  -------         MODULE        ?C?PLDIDATA
  C:0B90H         PUBLIC        ?C?PLDIDATA
  -------         ENDMOD        ?C?PLDIDATA

  -------         MODULE        ?C?PSTIDATA
  C:0B99H         PUBLIC        ?C?PSTIDATA
  -------         ENDMOD        ?C?PSTIDATA

  -------         MODULE        ?C?PLDIXDATA
  C:0BA2H         PUBLIC        ?C?PLDIXDATA
  -------         ENDMOD        ?C?PLDIXDATA

  -------         MODULE        ?C?PLDPDATA
  C:0BB9H         PUBLIC        ?C?PLDPDATA
  -------         ENDMOD        ?C?PLDPDATA

  -------         MODULE        ?C?PLDIPDATA
  C:0BC2H         PUBLIC        ?C?PLDIPDATA
  -------         ENDMOD        ?C?PLDIPDATA

  -------         MODULE        ?C?PSTPDATA
BL51 BANKED LINKER/LOCATER V6.22                                                      07/01/2013  09:38:04  PAGE 109


  C:0BD2H         PUBLIC        ?C?PSTPDATA
  -------         ENDMOD        ?C?PSTPDATA

  -------         MODULE        ?C?PLDCODE
  C:0BDBH         PUBLIC        ?C?PLDCODE
  -------         ENDMOD        ?C?PLDCODE

Program Size: data=113.4 xdata=2920 code=28977
LINK/LOCATE RUN COMPLETE.  0 WARNING(S),  0 ERROR(S)
