BL51 BANKED LINKER/LOCATER V6.22                                                        06/13/2018  16:51:36  PAGE 1


BL51 BANKED LINKER/LOCATER V6.22, INVOKED BY:
C:\KEIL\C51\BIN\BL51.EXE .\obj\STARTUP.obj, .\obj\AdcDrv.obj, .\obj\AngApp.obj, .\obj\Calibration.obj, .\obj\CmdSub.obj,
>>  .\obj\Comm.obj, .\obj\Delay.obj, .\obj\Filter.obj, .\obj\Flash.obj, .\obj\Init.obj, .\obj\Key.obj, .\obj\Main.obj, .
>> \obj\ModBusCrc.obj, .\obj\ModBusRtu.obj, .\obj\Send.obj, .\obj\Sensor.obj, .\obj\Sub.obj, .\obj\Timer.obj, .\obj\CalM
>> cuT.obj, .\obj\compass.obj TO .\obj\9003 PRINT (.\lst\9003.m51) RAMSIZE (256)


MEMORY MODEL: SMALL WITH FLOATING POINT ARITHMETIC


INPUT MODULES INCLUDED:
  .\obj\STARTUP.obj (?C_STARTUP)
  .\obj\AdcDrv.obj (ADCDRV)
  .\obj\AngApp.obj (ANGAPP)
  .\obj\Calibration.obj (CALIBRATION)
  .\obj\CmdSub.obj (CMDSUB)
  .\obj\Comm.obj (COMM)
  .\obj\Delay.obj (DELAY)
  .\obj\Filter.obj (FILTER)
  .\obj\Flash.obj (FLASH)
  .\obj\Init.obj (INIT)
  .\obj\Key.obj (KEY)
  .\obj\Main.obj (MAIN)
  .\obj\ModBusCrc.obj (MODBUSCRC)
  .\obj\ModBusRtu.obj (MODBUSRTU)
  .\obj\Send.obj (SEND)
  .\obj\Sensor.obj (SENSOR)
  .\obj\Sub.obj (SUB)
  .\obj\Timer.obj (TIMER)
  .\obj\CalMcuT.obj (CALMCUT)
  .\obj\compass.obj (COMPASS)
  C:\KEIL\C51\LIB\C51FPS.LIB (?C?FPADD)
  C:\KEIL\C51\LIB\C51FPS.LIB (?C?FPMUL)
  C:\KEIL\C51\LIB\C51FPS.LIB (?C?FPDIV)
  C:\KEIL\C51\LIB\C51FPS.LIB (?C?FPCMP)
  C:\KEIL\C51\LIB\C51FPS.LIB (?C?FCAST)
  C:\KEIL\C51\LIB\C51FPS.LIB (?C?CASTF)
  C:\KEIL\C51\LIB\C51FPS.LIB (SQRT)
  C:\KEIL\C51\LIB\C51FPS.LIB (SIN)
  C:\KEIL\C51\LIB\C51FPS.LIB (ATAN)
  C:\KEIL\C51\LIB\C51FPS.LIB (ASIN)
  C:\KEIL\C51\LIB\C51FPS.LIB (?C?FPGETOPN)
  C:\KEIL\C51\LIB\C51FPS.LIB (?C?FPSERIES)
  C:\KEIL\C51\LIB\C51S.LIB (?C_INIT)
  C:\KEIL\C51\LIB\C51S.LIB (?C?CLDPTR)
  C:\KEIL\C51\LIB\C51S.LIB (?C?CLDOPTR)
  C:\KEIL\C51\LIB\C51S.LIB (?C?CILDPTR)
  C:\KEIL\C51\LIB\C51S.LIB (?C?CILDOPTR)
  C:\KEIL\C51\LIB\C51S.LIB (?C?CSTPTR)
  C:\KEIL\C51\LIB\C51S.LIB (?C?CSTOPTR)
  C:\KEIL\C51\LIB\C51S.LIB (?C?IMUL)
  C:\KEIL\C51\LIB\C51S.LIB (?C?UIDIV)
  C:\KEIL\C51\LIB\C51S.LIB (?C?SIDIV)
  C:\KEIL\C51\LIB\C51S.LIB (?C?IILDX)
  C:\KEIL\C51\LIB\C51S.LIB (?C?ILDPTR)
  C:\KEIL\C51\LIB\C51S.LIB (?C?ILDOPTR)
  C:\KEIL\C51\LIB\C51S.LIB (?C?IILDPTR)
  C:\KEIL\C51\LIB\C51S.LIB (?C?IILDOPTR)
BL51 BANKED LINKER/LOCATER V6.22                                                      06/13/2018  16:51:36  PAGE 2


  C:\KEIL\C51\LIB\C51S.LIB (?C?ISTPTR)
  C:\KEIL\C51\LIB\C51S.LIB (?C?ISTOPTR)
  C:\KEIL\C51\LIB\C51S.LIB (?C?LADD)
  C:\KEIL\C51\LIB\C51S.LIB (?C?LMUL)
  C:\KEIL\C51\LIB\C51S.LIB (?C?ULDIV)
  C:\KEIL\C51\LIB\C51S.LIB (?C?SLDIV)
  C:\KEIL\C51\LIB\C51S.LIB (?C?LNEG)
  C:\KEIL\C51\LIB\C51S.LIB (?C?SLCMP)
  C:\KEIL\C51\LIB\C51S.LIB (?C?ULCMP)
  C:\KEIL\C51\LIB\C51S.LIB (?C?ULSHR)
  C:\KEIL\C51\LIB\C51S.LIB (?C?LSHL)
  C:\KEIL\C51\LIB\C51S.LIB (?C?LLDPTR)
  C:\KEIL\C51\LIB\C51S.LIB (?C?LLDOPTR)
  C:\KEIL\C51\LIB\C51S.LIB (?C?LSTPTR)
  C:\KEIL\C51\LIB\C51S.LIB (?C?LSTOPTR)
  C:\KEIL\C51\LIB\C51S.LIB (?C?LLDXDATA)
  C:\KEIL\C51\LIB\C51S.LIB (?C?LLDCODE)
  C:\KEIL\C51\LIB\C51S.LIB (?C?LLDXDATA0)
  C:\KEIL\C51\LIB\C51S.LIB (?C?LLDCODE0)
  C:\KEIL\C51\LIB\C51S.LIB (?C?LLDOPTR0)
  C:\KEIL\C51\LIB\C51S.LIB (?C?LSTXDATA)
  C:\KEIL\C51\LIB\C51S.LIB (?C?LSTKXDATA)
  C:\KEIL\C51\LIB\C51S.LIB (?C?LSTKOPTR)
  C:\KEIL\C51\LIB\C51S.LIB (?C?OFFXADD)
  C:\KEIL\C51\LIB\C51S.LIB (?C?PLDIIDATA)
  C:\KEIL\C51\LIB\C51S.LIB (?C?PLDXDATA)
  C:\KEIL\C51\LIB\C51S.LIB (?C?PSTXDATA)
  C:\KEIL\C51\LIB\C51S.LIB (?C?PLDOPTR)
  C:\KEIL\C51\LIB\C51S.LIB (?C?PLDIOPTR)
  C:\KEIL\C51\LIB\C51S.LIB (?C?PSTOPTR)
  C:\KEIL\C51\LIB\C51S.LIB (?C?CCASE)
  C:\KEIL\C51\LIB\C51S.LIB (?C?ICASE)
  C:\KEIL\C51\LIB\C51S.LIB (?C?ICALL)
  C:\KEIL\C51\LIB\C51S.LIB (STRNCMP)
  C:\KEIL\C51\LIB\C51S.LIB (STRNCPY)
  C:\KEIL\C51\LIB\C51S.LIB (?C?LLDIDATA)
  C:\KEIL\C51\LIB\C51S.LIB (?C?LLDPDATA)
  C:\KEIL\C51\LIB\C51S.LIB (?C?LLDIDATA0)
  C:\KEIL\C51\LIB\C51S.LIB (?C?LLDPDATA0)
  C:\KEIL\C51\LIB\C51S.LIB (?C?LSTIDATA)
  C:\KEIL\C51\LIB\C51S.LIB (?C?LSTPDATA)
  C:\KEIL\C51\LIB\C51S.LIB (?C?LSTKIDATA)
  C:\KEIL\C51\LIB\C51S.LIB (?C?LSTKPDATA)
  C:\KEIL\C51\LIB\C51S.LIB (?C?PLDIDATA)
  C:\KEIL\C51\LIB\C51S.LIB (?C?PSTIDATA)
  C:\KEIL\C51\LIB\C51S.LIB (?C?PLDIXDATA)
  C:\KEIL\C51\LIB\C51S.LIB (?C?PLDPDATA)
  C:\KEIL\C51\LIB\C51S.LIB (?C?PLDIPDATA)
  C:\KEIL\C51\LIB\C51S.LIB (?C?PSTPDATA)
  C:\KEIL\C51\LIB\C51S.LIB (?C?PLDCODE)


LINK MAP OF MODULE:  .\obj\9003 (?C_STARTUP)


            TYPE    BASE      LENGTH    RELOCATION   SEGMENT NAME
            -----------------------------------------------------
BL51 BANKED LINKER/LOCATER V6.22                                                      06/13/2018  16:51:36  PAGE 3



            * * * * * * *   D A T A   M E M O R Y   * * * * * * *
            REG     0000H     0008H     ABSOLUTE     "REG BANK 0"
            DATA    0008H     000AH     UNIT         ?DT?SEND
            DATA    0012H     0004H     UNIT         ?DT?CMDSUB
            DATA    0016H     0003H     UNIT         ?DT?_GETMT?CALMCUT
            DATA    0019H     0002H     UNIT         ?DT?CALMCUT
            DATA    001BH     0001H     UNIT         ?DT?TIMER
            IDATA   001CH     0003H     UNIT         ?ID?ADCDRV
                    001FH     0001H                  *** GAP ***
            BIT     0020H.0   0000H.2   UNIT         ?BI?COMM
            BIT     0020H.2   0000H.2   UNIT         _BIT_GROUP_
                    0020H.4   0000H.4                *** GAP ***
            DATA    0021H     0055H     UNIT         _DATA_GROUP_
            IDATA   0076H     0001H     UNIT         ?STACK

            * * * * * * *  X D A T A   M E M O R Y  * * * * * * *
            XDATA   0000H     04B3H     UNIT         ?XD?CALIBRATION
            XDATA   04B3H     0200H     UNIT         ?XD?FLASH
            XDATA   06B3H     01A3H     UNIT         ?XD?COMM
            XDATA   0856H     019EH     UNIT         ?XD?ADCDRV
            XDATA   09F4H     00F1H     UNIT         ?XD?CALMCUT
            XDATA   0AE5H     00C9H     UNIT         ?XD?SEND
            XDATA   0BAEH     0041H     UNIT         ?XD?SENSOR
            XDATA   0BEFH     0038H     UNIT         ?XD?ANGAPP
            XDATA   0C27H     001CH     UNIT         ?XD?MAIN
            XDATA   0C43H     001CH     UNIT         ?XD?COMPASS
            XDATA   0C5FH     0018H     UNIT         ?XD?CMDSUB
            XDATA   0C77H     0014H     UNIT         _XDATA_GROUP_
            XDATA   0C8BH     0010H     UNIT         ?XD?MODBUSRTU
            XDATA   0C9BH     000AH     UNIT         ?XD?INIT
            XDATA   0CA5H     0002H     UNIT         ?XD?TIMER
            XDATA   0CA7H     0001H     UNIT         ?XD?KEY

            * * * * * * *   C O D E   M E M O R Y   * * * * * * *
            CODE    0000H     0003H     ABSOLUTE     
            CODE    0003H     0020H     UNIT         ?PR?_SEND_TDEAL?SEND
            CODE    0023H     0003H     ABSOLUTE     
            CODE    0026H     0004H     UNIT         ?PR?ADC_ENABLE?ADCDRV
                    002AH     0001H                  *** GAP ***
            CODE    002BH     0003H     ABSOLUTE     
            CODE    002EH     001DH     UNIT         ?PR?COMM_TIMERPROC?COMM
            CODE    004BH     0003H     ABSOLUTE     
            CODE    004EH     0BBEH     UNIT         ?C?LIB_CODE
            CODE    0C0CH     0B1FH     UNIT         ?PR?_MODRTU_RDVAL?MODBUSRTU
            CODE    172BH     06BEH     UNIT         ?PR?_MODRTU_WRVAL?MODBUSRTU
            CODE    1DE9H     05E2H     UNIT         ?PR?_SEND_SDEAL?SEND
            CODE    23CBH     0435H     UNIT         ?PR?_RAM_CALDATA2BUF?FLASH
            CODE    2800H     036CH     UNIT         ?PR?_RAM_BUF2CALDATA?FLASH
            CODE    2B6CH     02BAH     UNIT         ?PR?_CUSTOMPRO?MODBUSRTU
            CODE    2E26H     0200H     UNIT         ?CO?MODBUSCRC
            CODE    3026H     01CBH     UNIT         ?PR?COMP_ANGCNTPROC?COMPASS
            CODE    31F1H     01BEH     UNIT         ?CO?SEND
            CODE    33AFH     0199H     UNIT         ?PR?COMP_CALPRMTCNT?COMPASS
            CODE    3548H     018EH     UNIT         ?PR?_SUB_STR2INT32S?SUB
            CODE    36D6H     017CH     UNIT         ?PR?_ANG_CALCPRM?CALIBRATION
            CODE    3852H     016EH     UNIT         ?PR?SIN?SIN
BL51 BANKED LINKER/LOCATER V6.22                                                      06/13/2018  16:51:36  PAGE 4


            CODE    39C0H     0165H     UNIT         ?PR?_SEND_CDEAL?SEND
            CODE    3B25H     0163H     UNIT         ?PR?_MCUT_CALCPRM?CALMCUT
            CODE    3C88H     0162H     UNIT         ?PR?_SUB_INT32S2STR?SUB
            CODE    3DEAH     0146H     UNIT         ?PR?_SEND_RDEAL?SEND
            CODE    3F30H     0137H     UNIT         ?PR?SEND_TIMEPROC?SEND
            CODE    4067H     012CH     UNIT         ?PR?_TEMP_CALCPRM?CALIBRATION
            CODE    4193H     0128H     UNIT         ?PR?ATAN?ATAN
            CODE    42BBH     0127H     UNIT         ?PR?_COMP_ADCCORRECTS?COMPASS
            CODE    43E2H     0118H     UNIT         ?PR?_INT32S2VAL?MODBUSRTU
            CODE    44FAH     010BH     UNIT         ?PR?COMP_CALSAMPPROC?COMPASS
            CODE    4605H     0108H     UNIT         ?PR?FLASH_CALDATAINIT?FLASH
            CODE    470DH     0107H     UNIT         ?PR?ANGCALDATAINIT?CALIBRATION
            CODE    4814H     0103H     UNIT         ?PR?_MODRTU_WRREG?MODBUSRTU
            CODE    4917H     0100H     UNIT         ?PR?_SEND_WDEAL?SEND
            CODE    4A17H     0100H     UNIT         ?PR?_COMP_MIDFILTER?COMPASS
            CODE    4B17H     00EDH     UNIT         ?PR?_MODRTU_RDREG?MODBUSRTU
            CODE    4C04H     00E8H     UNIT         ?PR?_TEMP_CALTREFSET?CMDSUB
            CODE    4CECH     00E4H     UNIT         ?PR?CALIBINIT?CALIBRATION
            CODE    4DD0H     00E0H     UNIT         ?PR?MTCALDATAINIT?CALMCUT
            CODE    4EB0H     00DBH     UNIT         ?PR?_SLIDEWINFILTER?FILTER
            CODE    4F8BH     00D8H     UNIT         ?PR?_PANGCALC?ANGAPP
            CODE    5063H     00C4H     UNIT         ?PR?_SUB_SENDTEMPCAL?SUB
            CODE    5127H     00BFH     UNIT         ?PR?_SUB_STR2INT16U?SUB
            CODE    51E6H     00B7H     UNIT         ?PR?_GETOFFSET?SENSOR
            CODE    529DH     00B0H     UNIT         ?PR?_SUB_INT16U2STR?SUB
            CODE    534DH     00AAH     UNIT         ?PR?SQRT?SQRT
            CODE    53F7H     00A7H     UNIT         ?PR?_ANG_CALC?SENSOR
            CODE    549EH     00A5H     UNIT         ?PR?_COMM_GETTXCHAR?COMM
            CODE    5543H     00A4H     UNIT         ?PR?_COMM_GETCHAR?COMM
            CODE    55E7H     00A1H     UNIT         ?PR?_GETANGCALCVAL?SENSOR
            CODE    5688H     008FH     UNIT         ?PR?COMM_SOFTWAREINIT?COMM
            CODE    5717H     008DH     UNIT         ?PR?_FLOATTOINT?MODBUSRTU
            CODE    57A4H     008CH     UNIT         ?C_C51STARTUP
            CODE    5830H     008CH     UNIT         ?PR?_COMM_PUTCHAR?COMM
            CODE    58BCH     008BH     UNIT         ?PR?ADC_ISR?ADCDRV
            CODE    5947H     008BH     UNIT         ?PR?SNPROC?SENSOR
            CODE    59D2H     0087H     UNIT         ?PR?ADC_XCALSTOP?CMDSUB
            CODE    5A59H     0087H     UNIT         ?PR?ADC_YCALSTOP?CMDSUB
            CODE    5AE0H     0085H     UNIT         ?PR?_ADCFILTER?ADCDRV
            CODE    5B65H     0085H     UNIT         ?PR?_GETMT?CALMCUT
            CODE    5BEAH     0084H     UNIT         ?PR?_COMM_PUTRXCHAR?COMM
            CODE    5C6EH     0080H     UNIT         ?PR?_SNFILTER?SENSOR
            CODE    5CEEH     007FH     UNIT         ?PR?_ADC_SAVEANDSWITCH?ADCDRV
            CODE    5D6DH     0078H     UNIT         ?PR?ANGINIT?ANGAPP
            CODE    5DE5H     0076H     UNIT         ?PR?_TEMP_CALVALWR?CMDSUB
            CODE    5E5BH     0075H     UNIT         ?PR?_SUB_BUFBUBBLE16U?SUB
            CODE    5ED0H     0073H     UNIT         ?PR?_SUB_SENDMCUTEMPCAL?SUB
            CODE    5F43H     0072H     UNIT         ?PR?COMM_ISR?COMM
            CODE    5FB5H     0071H     UNIT         ?PR?GET_MCUTEMPINCELSIUS?SENSOR
            CODE    6026H     0070H     UNIT         ?PR?TEMPSORTANDCALCPRM?CMDSUB
            CODE    6096H     006FH     UNIT         ?PR?_STRNCMP?STRNCMP
            CODE    6105H     006EH     UNIT         ?PR?SNINIT?SENSOR
            CODE    6173H     006DH     UNIT         ?PR?SUB_SENDPRMTALL?SUB
            CODE    61E0H     006DH     UNIT         ?PR?_SUB_BUFBUBBLE16S?SUB
            CODE    624DH     006CH     UNIT         ?PR?TEMPCALDATAINIT?CALIBRATION
            CODE    62B9H     0069H     UNIT         ?PR?_SN_DATAINIT?SENSOR
            CODE    6322H     0069H     UNIT         ?PR?_SUB_BUFBUBBLE32S?SUB
BL51 BANKED LINKER/LOCATER V6.22                                                      06/13/2018  16:51:36  PAGE 5


            CODE    638BH     0066H     UNIT         ?PR?_TEMP_CALSAMP?CMDSUB
            CODE    63F1H     0065H     UNIT         ?PR?_FLASH_BUFWR?FLASH
            CODE    6456H     0065H     UNIT         ?PR?_SEND_UDEAL?SEND
            CODE    64BBH     005EH     UNIT         ?CO?SUB
            CODE    6519H     005DH     UNIT         ?PR?_FILTER_1ST?FILTER
            CODE    6576H     005BH     UNIT         ?PR?FLASH_CALDATAUPDATE?FLASH
            CODE    65D1H     005AH     UNIT         ?PR?_SUB_STR2INT16S?SUB
            CODE    662BH     0058H     UNIT         ?PR?SUB_SENDTCALTEST?SUB
            CODE    6683H     0057H     UNIT         ?PR?_FLASH_BUFRD?FLASH
            CODE    66DAH     0056H     UNIT         ?PR?FLASHAREA_USER?FLASH
            CODE    6730H     0056H     UNIT         ?PR?_CHKCODE?MODBUSRTU
            CODE    6786H     0056H     UNIT         ?PR?_SUB_SBUFSWITCH?SUB
            CODE    67DCH     0052H     UNIT         ?PR?_STRNCPY?STRNCPY
            CODE    682EH     0050H     UNIT         ?PR?INIT_SYSTEMPARA?INIT
            CODE    687EH     004FH     UNIT         ?PR?_FLASH_CALDATAUPDATE_USER?FLASH
            CODE    68CDH     004CH     UNIT         ?PR?GETXANGALLSETVAL?ANGAPP
            CODE    6919H     004CH     UNIT         ?PR?GETYANGALLSETVAL?ANGAPP
            CODE    6965H     004CH     UNIT         ?PR?_SUB_16SBUFSWITCH?SUB
            CODE    69B1H     004CH     UNIT         ?PR?_SUB_UBUFSWITCH?SUB
            CODE    69FDH     004AH     UNIT         ?PR?ADCENTITYINIT?ADCDRV
            CODE    6A47H     0049H     UNIT         ?PR?_MCUT_CALVALWR?CALMCUT
            CODE    6A90H     0045H     UNIT         ?PR?_MODRTU_RLYERROR?MODBUSRTU
            CODE    6AD5H     0045H     UNIT         ?PR?_SUB_SENDADCTXY?SUB
            CODE    6B1AH     0044H     UNIT         ?PR?FLASH_COMPDATAINIT?FLASH
            CODE    6B5EH     0044H     UNIT         ?C?LDIV
            CODE    6BA2H     0043H     UNIT         ?PR?_SUMCHK?MODBUSRTU
            CODE    6BE5H     0042H     UNIT         ?PR?COMP_SPIBYTEGET?COMPASS
            CODE    6C27H     0040H     UNIT         ?PR?CALIBMTINIT?CALMCUT
            CODE    6C67H     003EH     UNIT         ?PR?MCUTCALCPRM?CALMCUT
            CODE    6CA5H     003DH     UNIT         ?PR?TIMER2_ISR?TIMER
            CODE    6CE2H     003CH     UNIT         ?PR?MAIN?MAIN
            CODE    6D1EH     003CH     UNIT         ?PR?_MODRTU_RXPROC?MODBUSRTU
            CODE    6D5AH     003CH     UNIT         ?PR?_SUB_STR2INT8U?SUB
            CODE    6D96H     003CH     UNIT         ?PR?COMP_CALDATAINIT?COMPASS
            CODE    6DD2H     003BH     UNIT         ?PR?ASIN?ASIN
            CODE    6E0DH     0038H     UNIT         ?PR?TIMER2_INIT?TIMER
            CODE    6E45H     0037H     UNIT         ?PR?_FLASH_CHECKSUM?FLASH
            CODE    6E7CH     0036H     UNIT         ?PR?SUB_SENDANGXYP?SUB
            CODE    6EB2H     0036H     UNIT         ?PR?TIMER2_TASKINISR?TIMER
            CODE    6EE8H     0035H     UNIT         ?PR?_MODBUSCRCCNT?MODBUSCRC
            CODE    6F1DH     0033H     UNIT         ?C_INITSEG
            CODE    6F50H     0033H     UNIT         ?PR?_MODRTU_SETZERO?MODBUSRTU
            CODE    6F83H     0032H     UNIT         ?PR?_FLASHUPDATE?FLASH
            CODE    6FB5H     002FH     UNIT         ?PR?RAM_CALDATAINIT_USER?FLASH
            CODE    6FE4H     002FH     UNIT         ?PR?_SUB_SENDMCUT?SUB
            CODE    7013H     002FH     UNIT         ?PR?COMP_CALINIT?COMPASS
            CODE    7042H     002EH     UNIT         ?PR?ADC_SETINIT?ADCDRV
            CODE    7070H     002EH     UNIT         ?PR?GETANGP?ANGAPP
            CODE    709EH     002AH     UNIT         ?PR?_COMM_PUTINT16S?SUB
            CODE    70C8H     002AH     UNIT         ?PR?_COMP_GETADC?COMPASS
            CODE    70F2H     0029H     UNIT         ?PR?_FLASH_PAGEERASE?FLASH
            CODE    711BH     0028H     UNIT         ?PR?_MODRTU_WRADDR?MODBUSRTU
            CODE    7143H     0026H     UNIT         ?PR?SYS_PORTINIT?INIT
            CODE    7169H     0025H     UNIT         ?PR?_MODRTU_WRBAUD?MODBUSRTU
            CODE    718EH     0025H     UNIT         ?PR?SUB_SENDANGXY?SUB
            CODE    71B3H     0024H     UNIT         ?PR?_SETANGZERO?ANGAPP
            CODE    71D7H     0024H     UNIT         ?PR?COMM_HARDWAREINIT?COMM
BL51 BANKED LINKER/LOCATER V6.22                                                      06/13/2018  16:51:36  PAGE 6


            CODE    71FBH     0024H     UNIT         ?PR?_VALINRANGE?FILTER
            CODE    721FH     0023H     UNIT         ?PR?_COMP_SPIBYTESEND?COMPASS
            CODE    7242H     0022H     UNIT         ?PR?_SUB_INT16S2STR?SUB
            CODE    7264H     0021H     UNIT         ?PR?_COMM_PUTSTR?COMM
            CODE    7285H     0021H     UNIT         ?PR?INIT_ALL?INIT
            CODE    72A6H     0021H     UNIT         ?PR?_MODRTU_WR16U?MODBUSRTU
            CODE    72C7H     0021H     UNIT         ?PR?_SUB_STR2INT8S?SUB
            CODE    72E8H     0020H     UNIT         ?PR?_SUB_INT8U2STR?SUB
            CODE    7308H     001EH     UNIT         ?PR?_SETANGZEROADD?ANGAPP
            CODE    7326H     001EH     UNIT         ?PR?_MCUT_CALSAMP?CALMCUT
            CODE    7344H     001BH     UNIT         ?PR?SNXDATAINIT?SENSOR
            CODE    735FH     001BH     UNIT         ?PR?SNYDATAINIT?SENSOR
            CODE    737AH     001AH     UNIT         ?CO?ADCDRV
            CODE    7394H     0019H     UNIT         ?PR?SYS_CLKINIT?INIT
            CODE    73ADH     0019H     UNIT         ?PR?SUB_SENDSYSNUM?SUB
            CODE    73C6H     0018H     UNIT         ?PR?FLASH_USERDATAUPDATE?FLASH
            CODE    73DEH     0018H     UNIT         ?PR?_COMM_PUTINT16U?SUB
            CODE    73F6H     0017H     UNIT         ?PR?_TEMP_RDTEMPVAL?CALIBRATION
            CODE    740DH     0017H     UNIT         ?PR?_TEMP_WRTEMPVAL?CALIBRATION
            CODE    7424H     0017H     UNIT         ?PR?_DELAY_MS?DELAY
            CODE    743BH     0017H     UNIT         ?PR?_MCUT_RDADCVAL?CALMCUT
            CODE    7452H     0017H     UNIT         ?PR?_MCUT_WRADCVAL?CALMCUT
            CODE    7469H     0016H     UNIT         ?PR?TEMP_CALSTOP?CMDSUB
            CODE    747FH     0016H     UNIT         ?PR?_MODRTU_CHKCRC?MODBUSRTU
            CODE    7495H     0016H     UNIT         ?PR?_COMM_PUTINT8U?SUB
            CODE    74ABH     0015H     UNIT         ?PR?_SETTEMPXCALTEMPVAL?CALIBRATION
            CODE    74C0H     0015H     UNIT         ?PR?_SETTEMPYCALTEMPVAL?CALIBRATION
            CODE    74D5H     0015H     UNIT         ?PR?_SETTEMPXCALADCVAL?CALIBRATION
            CODE    74EAH     0015H     UNIT         ?PR?_SETANGXCALADCVAL?CALIBRATION
            CODE    74FFH     0015H     UNIT         ?PR?_SETTEMPYCALADCVAL?CALIBRATION
            CODE    7514H     0015H     UNIT         ?PR?_SETANGYCALADCVAL?CALIBRATION
            CODE    7529H     0015H     UNIT         ?PR?_SETMCUTCALTEMPVAL?CALMCUT
            CODE    753EH     0015H     UNIT         ?PR?_SETMCUTCALADCVAL?CALMCUT
            CODE    7553H     0014H     UNIT         ?PR?_COMM_PUTINT32S?SUB
            CODE    7567H     0012H     UNIT         ?PR?TEMP_CALSTA?CMDSUB
            CODE    7579H     0012H     UNIT         ?PR?_SNXFILTER?SENSOR
            CODE    758BH     0012H     UNIT         ?PR?_SNYFILTER?SENSOR
            CODE    759DH     0012H     UNIT         ?PR?TIMER2_TASKINMAIN?TIMER
            CODE    75AFH     0011H     UNIT         ?PR?_TEMP_RDADCVAL?CALIBRATION
            CODE    75C0H     0011H     UNIT         ?PR?_TEMP_WRADCVAL?CALIBRATION
            CODE    75D1H     0011H     UNIT         ?PR?_ANG_RDADCVAL?CALIBRATION
            CODE    75E2H     0011H     UNIT         ?PR?_ANG_WRADCVAL?CALIBRATION
            CODE    75F3H     0011H     UNIT         ?PR?_MCUT_RDTEMPVAL?CALMCUT
            CODE    7604H     0011H     UNIT         ?PR?_MCUT_WRTEMPVAL?CALMCUT
            CODE    7615H     0010H     UNIT         ?PR?_MCUT_SET?CMDSUB
            CODE    7625H     000FH     UNIT         ?PR?DELAY_100US?DELAY
            CODE    7634H     000FH     UNIT         ?PR?GET_MCUTEMP?SENSOR
            CODE    7643H     000EH     UNIT         ?PR?_ANG_RDANGVAL?CALIBRATION
            CODE    7651H     000EH     UNIT         ?PR?_ANG_WRANGVAL?CALIBRATION
            CODE    765FH     000EH     UNIT         ?PR?FLASHCHK?FLASH
            CODE    766DH     000EH     UNIT         ?PR?SUB_SENDOK?SUB
            CODE    767BH     000EH     UNIT         ?PR?SUB_SENDERR?SUB
            CODE    7689H     000EH     UNIT         ?PR?SUB_SENDSOFTVER?SUB
            CODE    7697H     000DH     UNIT         ?PR?_MODRTU_RD16U?MODBUSRTU
            CODE    76A4H     000DH     UNIT         ?PR?COMM_PUTNEWLINESTA?SUB
            CODE    76B1H     000CH     UNIT         ?PR?ADC_INIT?ADCDRV
            CODE    76BDH     000CH     UNIT         ?PR?_GETTEMPXCALTEMPVAL?CALIBRATION
BL51 BANKED LINKER/LOCATER V6.22                                                      06/13/2018  16:51:36  PAGE 7


            CODE    76C9H     000CH     UNIT         ?PR?_GETANGXCALANGVAL?CALIBRATION
            CODE    76D5H     000CH     UNIT         ?PR?_GETTEMPYCALTEMPVAL?CALIBRATION
            CODE    76E1H     000CH     UNIT         ?PR?_GETANGYCALANGVAL?CALIBRATION
            CODE    76EDH     000CH     UNIT         ?PR?_GETTEMPXCALADCVAL?CALIBRATION
            CODE    76F9H     000CH     UNIT         ?PR?_GETANGXCALADCVAL?CALIBRATION
            CODE    7705H     000CH     UNIT         ?PR?_GETTEMPYCALADCVAL?CALIBRATION
            CODE    7711H     000CH     UNIT         ?PR?_GETANGYCALADCVAL?CALIBRATION
            CODE    771DH     000CH     UNIT         ?PR?_SETANGXCALANGVAL?CALIBRATION
            CODE    7729H     000CH     UNIT         ?PR?_SETANGYCALANGVAL?CALIBRATION
            CODE    7735H     000CH     UNIT         ?PR?_MODRTU_8TO16?MODBUSRTU
            CODE    7741H     000CH     UNIT         ?PR?_GETMCUTCALTEMPVAL?CALMCUT
            CODE    774DH     000CH     UNIT         ?PR?_GETMCUTCALADCVAL?CALMCUT
            CODE    7759H     000BH     UNIT         ?PR?_SETTEMPXCALCNT?CALIBRATION
            CODE    7764H     000BH     UNIT         ?PR?_SETANGXCALCNT?CALIBRATION
            CODE    776FH     000BH     UNIT         ?PR?_SETTEMPYCALCNT?CALIBRATION
            CODE    777AH     000BH     UNIT         ?PR?_SETANGYCALCNT?CALIBRATION
            CODE    7785H     000BH     UNIT         ?PR?_MODRTU_WRCRC?MODBUSRTU
            CODE    7790H     000BH     UNIT         ?PR?SUB_SYSRST?SUB
            CODE    779BH     000BH     UNIT         ?PR?_SETMCUTCALCNT?CALMCUT
            CODE    77A6H     000BH     UNIT         ?PR?COMP_SPISTA?COMPASS
            CODE    77B1H     000AH     UNIT         ?PR?COMM_TIMERINIT?COMM
            CODE    77BBH     000AH     UNIT         ?PR?DELAY_MS_?DELAY
            CODE    77C5H     0009H     UNIT         ?PR?ADC_GETXVAL?ADCDRV
            CODE    77CEH     0009H     UNIT         ?PR?ADC_GETYVAL?ADCDRV
            CODE    77D7H     0009H     UNIT         ?PR?ADC_GETTEMP?ADCDRV
            CODE    77E0H     0009H     UNIT         ?PR?TEMPXCALCPRM?CALIBRATION
            CODE    77E9H     0009H     UNIT         ?PR?TEMPYCALCPRM?CALIBRATION
            CODE    77F2H     0009H     UNIT         ?PR?ANGXCALCPRM?CALIBRATION
            CODE    77FBH     0009H     UNIT         ?PR?ANGYCALCPRM?CALIBRATION
            CODE    7804H     0009H     UNIT         ?PR?RAM_CALDATAINIT?FLASH
            CODE    780DH     0009H     UNIT         ?PR?ANGXCALC?SENSOR
            CODE    7816H     0009H     UNIT         ?PR?ANGYCALC?SENSOR
            CODE    781FH     0009H     UNIT         ?PR?GETXFTVAL?SENSOR
            CODE    7828H     0009H     UNIT         ?PR?GETYFTVAL?SENSOR
            CODE    7831H     0009H     UNIT         ?PR?GETXOFTVAL?SENSOR
            CODE    783AH     0009H     UNIT         ?PR?GETYOFTVAL?SENSOR
            CODE    7843H     0009H     UNIT         ?PR?COMP_HARDWAREINIT?COMPASS
            CODE    784CH     0008H     UNIT         ?PR?_SETTEMPCALCNT?CALIBRATION
            CODE    7854H     0008H     UNIT         ?PR?_SETANGCALCNT?CALIBRATION
            CODE    785CH     0008H     UNIT         ?PR?_GETXOFFSET?SENSOR
            CODE    7864H     0008H     UNIT         ?PR?_GETYOFFSET?SENSOR
            CODE    786CH     0007H     UNIT         ?PR?GETANGXSYSZERO?ANGAPP
            CODE    7873H     0007H     UNIT         ?PR?GETANGYSYSZERO?ANGAPP
            CODE    787AH     0007H     UNIT         ?PR?GETANGXUSRZERO?ANGAPP
            CODE    7881H     0007H     UNIT         ?PR?GETANGYUSRZERO?ANGAPP
            CODE    7888H     0007H     UNIT         ?PR?GETANGXINST?ANGAPP
            CODE    788FH     0007H     UNIT         ?PR?GETANGYINST?ANGAPP
            CODE    7896H     0007H     UNIT         ?PR?GETANGXSET?ANGAPP
            CODE    789DH     0007H     UNIT         ?PR?GETANGYSET?ANGAPP
            CODE    78A4H     0007H     UNIT         ?PR?GETANGPSET?ANGAPP
            CODE    78ABH     0007H     UNIT         ?PR?GETANGXZEROUSR?ANGAPP
            CODE    78B2H     0007H     UNIT         ?PR?GETANGYZEROUSR?ANGAPP
            CODE    78B9H     0007H     UNIT         ?PR?GETANGXRELSYS?ANGAPP
            CODE    78C0H     0007H     UNIT         ?PR?GETANGYRELSYS?ANGAPP
            CODE    78C7H     0007H     UNIT         ?PR?MAIN_TEMP?MAIN
            CODE    78CEH     0007H     UNIT         ?PR?GETXANG?SENSOR
            CODE    78D5H     0007H     UNIT         ?PR?GETYANG?SENSOR
BL51 BANKED LINKER/LOCATER V6.22                                                      06/13/2018  16:51:36  PAGE 8


            CODE    78DCH     0006H     UNIT         ?PR?_SETANGXSYSZERO?ANGAPP
            CODE    78E2H     0006H     UNIT         ?PR?_SETANGYSYSZERO?ANGAPP
            CODE    78E8H     0006H     UNIT         ?PR?_SETANGXUSRZERO?ANGAPP
            CODE    78EEH     0006H     UNIT         ?PR?_SETANGYUSRZERO?ANGAPP
            CODE    78F4H     0006H     UNIT         ?PR?_SETANGXINST?ANGAPP
            CODE    78FAH     0006H     UNIT         ?PR?_SETANGYINST?ANGAPP
            CODE    7900H     0006H     UNIT         ?PR?GETTEMPXCALCNT?CALIBRATION
            CODE    7906H     0006H     UNIT         ?PR?GETANGXCALCNT?CALIBRATION
            CODE    790CH     0006H     UNIT         ?PR?GETANGYCALCNT?CALIBRATION
            CODE    7912H     0006H     UNIT         ?PR?COMM_SENDSTA?COMM
            CODE    7918H     0006H     UNIT         ?PR?GETFILTERCNT?SENSOR
            CODE    791EH     0006H     UNIT         ?PR?_SETFILTERCNT?SENSOR
            CODE    7924H     0006H     UNIT         ?PR?GETMCUTCALCNT?CALMCUT
            CODE    792AH     0006H     UNIT         ?PR?MCUT_CALSTOP?CALMCUT
            CODE    7930H     0006H     UNIT         ?PR?COMP_SPIBUSYTEST?COMPASS
            CODE    7936H     0004H     UNIT         ?PR?ADC_VREFINIT?ADCDRV
            CODE    793AH     0004H     UNIT         ?PR?ADC_ISRINIT?ADCDRV
            CODE    793EH     0004H     UNIT         ?PR?_TEMP_SETCALCNT?CALIBRATION
            CODE    7942H     0004H     UNIT         ?PR?_ANG_SETCALCNT?CALIBRATION
            CODE    7946H     0004H     UNIT         ?PR?COMM_SENDSTOP?COMM
            CODE    794AH     0004H     UNIT         ?PR?_MCUT_SETCALCNT?CALMCUT
            CODE    794EH     0003H     UNIT         ?PR?MCUT_CALSTA?CALMCUT
            CODE    7951H     0003H     UNIT         ?PR?COMP_SPIEND?COMPASS



OVERLAY MAP OF MODULE:   .\obj\9003 (?C_STARTUP)


SEGMENT                                        BIT_GROUP          DATA_GROUP          XDATA_GROUP
  +--> CALLED SEGMENT                       START    LENGTH     START    LENGTH     START    LENGTH
---------------------------------------------------------------------------------------------------
?C_C51STARTUP                               -----    -----      -----    -----      -----    -----
  +--> ?PR?MAIN?MAIN
  +--> ?C_INITSEG

?PR?MAIN?MAIN                               -----    -----      -----    -----      -----    -----
  +--> ?PR?INIT_ALL?INIT
  +--> ?PR?FLASH_CALDATAINIT?FLASH
  +--> ?PR?MAIN_TEMP?MAIN
  +--> ?PR?_DELAY_MS?DELAY
  +--> ?PR?SNPROC?SENSOR
  +--> ?PR?TIMER2_TASKINMAIN?TIMER
  +--> ?PR?SEND_TIMEPROC?SEND
  +--> ?PR?COMP_ANGCNTPROC?COMPASS
  +--> ?PR?COMP_CALSAMPPROC?COMPASS

?PR?INIT_ALL?INIT                           -----    -----      -----    -----      -----    -----
  +--> ?PR?SYS_PORTINIT?INIT
  +--> ?PR?SYS_CLKINIT?INIT
  +--> ?PR?COMM_HARDWAREINIT?COMM
  +--> ?PR?COMM_SOFTWAREINIT?COMM
  +--> ?PR?TIMER2_INIT?TIMER
  +--> ?PR?INIT_SYSTEMPARA?INIT
  +--> ?PR?ANGINIT?ANGAPP
  +--> ?PR?ADC_INIT?ADCDRV
  +--> ?PR?ADC_ENABLE?ADCDRV
BL51 BANKED LINKER/LOCATER V6.22                                                      06/13/2018  16:51:36  PAGE 9


  +--> ?PR?CALIBMTINIT?CALMCUT
  +--> ?PR?COMP_HARDWAREINIT?COMPASS

?PR?COMM_SOFTWAREINIT?COMM                  -----    -----      0021H    0003H      -----    -----

?PR?TIMER2_INIT?TIMER                       -----    -----      -----    -----      -----    -----
  +--> ?CO?SEND

?PR?INIT_SYSTEMPARA?INIT                    -----    -----      -----    -----      -----    -----
  +--> ?CO?SEND

?PR?ANGINIT?ANGAPP                          -----    -----      -----    -----      -----    -----
  +--> ?PR?SNINIT?SENSOR
  +--> ?PR?_SETANGXINST?ANGAPP
  +--> ?PR?_SETANGYINST?ANGAPP
  +--> ?PR?_SETANGXSYSZERO?ANGAPP
  +--> ?PR?_SETANGYSYSZERO?ANGAPP
  +--> ?PR?_SETANGXUSRZERO?ANGAPP
  +--> ?PR?_SETANGYUSRZERO?ANGAPP

?PR?SNINIT?SENSOR                           -----    -----      -----    -----      -----    -----
  +--> ?PR?CALIBINIT?CALIBRATION
  +--> ?PR?_SETFILTERCNT?SENSOR
  +--> ?PR?SNXDATAINIT?SENSOR
  +--> ?PR?_SNXFILTER?SENSOR
  +--> ?PR?_GETXOFFSET?SENSOR
  +--> ?PR?ANGXCALC?SENSOR
  +--> ?PR?SNYDATAINIT?SENSOR
  +--> ?PR?_SNYFILTER?SENSOR
  +--> ?PR?_GETYOFFSET?SENSOR
  +--> ?PR?ANGYCALC?SENSOR

?PR?CALIBINIT?CALIBRATION                   -----    -----      -----    -----      -----    -----
  +--> ?PR?_SETTEMPXCALCNT?CALIBRATION
  +--> ?PR?_GETTEMPXCALTEMPVAL?CALIBRATION
  +--> ?PR?_GETTEMPXCALADCVAL?CALIBRATION
  +--> ?PR?_SETTEMPXCALTEMPVAL?CALIBRATION
  +--> ?PR?_SETTEMPXCALADCVAL?CALIBRATION
  +--> ?PR?_SETTEMPYCALCNT?CALIBRATION
  +--> ?PR?_GETTEMPYCALTEMPVAL?CALIBRATION
  +--> ?PR?_GETTEMPYCALADCVAL?CALIBRATION
  +--> ?PR?_SETTEMPYCALTEMPVAL?CALIBRATION
  +--> ?PR?_SETTEMPYCALADCVAL?CALIBRATION
  +--> ?PR?_SETANGXCALCNT?CALIBRATION
  +--> ?PR?_GETANGXCALANGVAL?CALIBRATION
  +--> ?PR?_GETANGXCALADCVAL?CALIBRATION
  +--> ?PR?_SETANGXCALANGVAL?CALIBRATION
  +--> ?PR?_SETANGXCALADCVAL?CALIBRATION
  +--> ?PR?_SETANGYCALCNT?CALIBRATION
  +--> ?PR?_GETANGYCALANGVAL?CALIBRATION
  +--> ?PR?_GETANGYCALADCVAL?CALIBRATION
  +--> ?PR?_SETANGYCALANGVAL?CALIBRATION
  +--> ?PR?_SETANGYCALADCVAL?CALIBRATION

?PR?_SETTEMPXCALCNT?CALIBRATION             -----    -----      -----    -----      -----    -----
  +--> ?PR?_TEMP_SETCALCNT?CALIBRATION

BL51 BANKED LINKER/LOCATER V6.22                                                      06/13/2018  16:51:36  PAGE 10


?PR?_GETTEMPXCALTEMPVAL?CALIBRATION         -----    -----      -----    -----      -----    -----
  +--> ?PR?_TEMP_RDTEMPVAL?CALIBRATION

?PR?_GETTEMPXCALADCVAL?CALIBRATION          -----    -----      -----    -----      -----    -----
  +--> ?PR?_TEMP_RDADCVAL?CALIBRATION

?PR?_SETTEMPXCALTEMPVAL?CALIBRATION         -----    -----      -----    -----      -----    -----
  +--> ?PR?_TEMP_WRTEMPVAL?CALIBRATION

?PR?_TEMP_WRTEMPVAL?CALIBRATION             -----    -----      0029H    0006H      -----    -----

?PR?_SETTEMPXCALADCVAL?CALIBRATION          -----    -----      -----    -----      -----    -----
  +--> ?PR?_TEMP_WRADCVAL?CALIBRATION

?PR?_TEMP_WRADCVAL?CALIBRATION              -----    -----      0029H    0006H      -----    -----

?PR?_SETTEMPYCALCNT?CALIBRATION             -----    -----      -----    -----      -----    -----
  +--> ?PR?_TEMP_SETCALCNT?CALIBRATION

?PR?_GETTEMPYCALTEMPVAL?CALIBRATION         -----    -----      -----    -----      -----    -----
  +--> ?PR?_TEMP_RDTEMPVAL?CALIBRATION

?PR?_GETTEMPYCALADCVAL?CALIBRATION          -----    -----      -----    -----      -----    -----
  +--> ?PR?_TEMP_RDADCVAL?CALIBRATION

?PR?_SETTEMPYCALTEMPVAL?CALIBRATION         -----    -----      -----    -----      -----    -----
  +--> ?PR?_TEMP_WRTEMPVAL?CALIBRATION

?PR?_SETTEMPYCALADCVAL?CALIBRATION          -----    -----      -----    -----      -----    -----
  +--> ?PR?_TEMP_WRADCVAL?CALIBRATION

?PR?_SETANGXCALCNT?CALIBRATION              -----    -----      -----    -----      -----    -----
  +--> ?PR?_ANG_SETCALCNT?CALIBRATION

?PR?_GETANGXCALANGVAL?CALIBRATION           -----    -----      -----    -----      -----    -----
  +--> ?PR?_ANG_RDANGVAL?CALIBRATION

?PR?_GETANGXCALADCVAL?CALIBRATION           -----    -----      -----    -----      -----    -----
  +--> ?PR?_ANG_RDADCVAL?CALIBRATION

?PR?_SETANGXCALANGVAL?CALIBRATION           -----    -----      0039H    0005H      -----    -----
  +--> ?PR?_ANG_WRANGVAL?CALIBRATION

?PR?_ANG_WRANGVAL?CALIBRATION               -----    -----      003EH    0008H      -----    -----

?PR?_SETANGXCALADCVAL?CALIBRATION           -----    -----      -----    -----      -----    -----
  +--> ?PR?_ANG_WRADCVAL?CALIBRATION

?PR?_ANG_WRADCVAL?CALIBRATION               -----    -----      0039H    0006H      -----    -----

?PR?_SETANGYCALCNT?CALIBRATION              -----    -----      -----    -----      -----    -----
  +--> ?PR?_ANG_SETCALCNT?CALIBRATION

?PR?_GETANGYCALANGVAL?CALIBRATION           -----    -----      -----    -----      -----    -----
  +--> ?PR?_ANG_RDANGVAL?CALIBRATION

?PR?_GETANGYCALADCVAL?CALIBRATION           -----    -----      -----    -----      -----    -----
BL51 BANKED LINKER/LOCATER V6.22                                                      06/13/2018  16:51:36  PAGE 11


  +--> ?PR?_ANG_RDADCVAL?CALIBRATION

?PR?_SETANGYCALANGVAL?CALIBRATION           -----    -----      0039H    0005H      -----    -----
  +--> ?PR?_ANG_WRANGVAL?CALIBRATION

?PR?_SETANGYCALADCVAL?CALIBRATION           -----    -----      -----    -----      -----    -----
  +--> ?PR?_ANG_WRADCVAL?CALIBRATION

?PR?SNXDATAINIT?SENSOR                      -----    -----      -----    -----      -----    -----
  +--> ?PR?_SN_DATAINIT?SENSOR

?PR?_SN_DATAINIT?SENSOR                     -----    -----      0021H    0009H      -----    -----

?PR?_SNXFILTER?SENSOR                       -----    -----      -----    -----      -----    -----
  +--> ?PR?_SNFILTER?SENSOR

?PR?_SNFILTER?SENSOR                        -----    -----      0021H    0006H      -----    -----
  +--> ?PR?_VALINRANGE?FILTER
  +--> ?PR?_FILTER_1ST?FILTER

?PR?_FILTER_1ST?FILTER                      -----    -----      0027H    0007H      -----    -----

?PR?_GETXOFFSET?SENSOR                      -----    -----      -----    -----      -----    -----
  +--> ?PR?_GETOFFSET?SENSOR

?PR?_GETOFFSET?SENSOR                       -----    -----      0021H    0006H      -----    -----

?PR?ANGXCALC?SENSOR                         -----    -----      -----    -----      -----    -----
  +--> ?PR?_ANG_CALC?SENSOR

?PR?_ANG_CALC?SENSOR                        -----    -----      0021H    0007H      -----    -----
  +--> ?PR?_GETANGCALCVAL?SENSOR
  +--> ?PR?ASIN?ASIN

?PR?_GETANGCALCVAL?SENSOR                   -----    -----      0028H    0006H      -----    -----

?PR?ASIN?ASIN                               -----    -----      -----    -----      -----    -----
  +--> ?PR?SQRT?SQRT
  +--> ?PR?ATAN?ATAN

?PR?SQRT?SQRT                               -----    -----      004AH    0004H      -----    -----

?PR?ATAN?ATAN                               0020H.2  0000H.2    004AH    0004H      -----    -----

?PR?SNYDATAINIT?SENSOR                      -----    -----      -----    -----      -----    -----
  +--> ?PR?_SN_DATAINIT?SENSOR

?PR?_SNYFILTER?SENSOR                       -----    -----      -----    -----      -----    -----
  +--> ?PR?_SNFILTER?SENSOR

?PR?_GETYOFFSET?SENSOR                      -----    -----      -----    -----      -----    -----
  +--> ?PR?_GETOFFSET?SENSOR

?PR?ANGYCALC?SENSOR                         -----    -----      -----    -----      -----    -----
  +--> ?PR?_ANG_CALC?SENSOR

?PR?ADC_INIT?ADCDRV                         -----    -----      -----    -----      -----    -----
BL51 BANKED LINKER/LOCATER V6.22                                                      06/13/2018  16:51:36  PAGE 12


  +--> ?PR?ADC_SETINIT?ADCDRV
  +--> ?PR?ADC_VREFINIT?ADCDRV
  +--> ?PR?ADC_ISRINIT?ADCDRV
  +--> ?PR?ADCENTITYINIT?ADCDRV

?PR?CALIBMTINIT?CALMCUT                     -----    -----      -----    -----      -----    -----
  +--> ?PR?_SETMCUTCALCNT?CALMCUT
  +--> ?PR?_GETMCUTCALTEMPVAL?CALMCUT
  +--> ?PR?_GETMCUTCALADCVAL?CALMCUT
  +--> ?PR?_SETMCUTCALTEMPVAL?CALMCUT
  +--> ?PR?_SETMCUTCALADCVAL?CALMCUT

?PR?_SETMCUTCALCNT?CALMCUT                  -----    -----      -----    -----      -----    -----
  +--> ?PR?_MCUT_SETCALCNT?CALMCUT

?PR?_GETMCUTCALTEMPVAL?CALMCUT              -----    -----      -----    -----      -----    -----
  +--> ?PR?_MCUT_RDTEMPVAL?CALMCUT

?PR?_GETMCUTCALADCVAL?CALMCUT               -----    -----      -----    -----      -----    -----
  +--> ?PR?_MCUT_RDADCVAL?CALMCUT

?PR?_SETMCUTCALTEMPVAL?CALMCUT              -----    -----      -----    -----      -----    -----
  +--> ?PR?_MCUT_WRTEMPVAL?CALMCUT

?PR?_MCUT_WRTEMPVAL?CALMCUT                 -----    -----      0029H    0006H      -----    -----

?PR?_SETMCUTCALADCVAL?CALMCUT               -----    -----      -----    -----      -----    -----
  +--> ?PR?_MCUT_WRADCVAL?CALMCUT

?PR?_MCUT_WRADCVAL?CALMCUT                  -----    -----      0029H    0006H      -----    -----

?PR?FLASH_CALDATAINIT?FLASH                 -----    -----      0021H    0001H      -----    -----
  +--> ?PR?_FLASH_BUFRD?FLASH
  +--> ?PR?FLASHCHK?FLASH
  +--> ?PR?RAM_CALDATAINIT?FLASH
  +--> ?PR?FLASH_CALDATAUPDATE?FLASH
  +--> ?PR?_RAM_BUF2CALDATA?FLASH
  +--> ?PR?_FLASH_CHECKSUM?FLASH
  +--> ?PR?FLASHAREA_USER?FLASH
  +--> ?PR?_FLASH_CALDATAUPDATE_USER?FLASH
  +--> ?PR?FLASH_COMPDATAINIT?FLASH
  +--> ?PR?GETANGXCALCNT?CALIBRATION
  +--> ?PR?GETANGYCALCNT?CALIBRATION
  +--> ?PR?ADC_XCALSTOP?CMDSUB
  +--> ?PR?ADC_YCALSTOP?CMDSUB
  +--> ?PR?TEMP_CALSTOP?CMDSUB
  +--> ?PR?MCUT_CALSTOP?CALMCUT
  +--> ?CO?SEND

?PR?_FLASH_BUFRD?FLASH                      0020H.2  0000H.1    0023H    0009H      -----    -----

?PR?RAM_CALDATAINIT?FLASH                   -----    -----      -----    -----      -----    -----
  +--> ?PR?ANGCALDATAINIT?CALIBRATION
  +--> ?PR?TEMPCALDATAINIT?CALIBRATION
  +--> ?PR?MTCALDATAINIT?CALMCUT

?PR?ANGCALDATAINIT?CALIBRATION              -----    -----      -----    -----      -----    -----
BL51 BANKED LINKER/LOCATER V6.22                                                      06/13/2018  16:51:36  PAGE 13


  +--> ?PR?_SETANGCALCNT?CALIBRATION

?PR?_SETANGCALCNT?CALIBRATION               -----    -----      -----    -----      -----    -----
  +--> ?PR?_SETANGXCALCNT?CALIBRATION
  +--> ?PR?_SETANGYCALCNT?CALIBRATION

?PR?TEMPCALDATAINIT?CALIBRATION             -----    -----      0022H    0001H      -----    -----
  +--> ?PR?_SETTEMPCALCNT?CALIBRATION

?PR?_SETTEMPCALCNT?CALIBRATION              -----    -----      -----    -----      -----    -----
  +--> ?PR?_SETTEMPXCALCNT?CALIBRATION
  +--> ?PR?_SETTEMPYCALCNT?CALIBRATION

?PR?MTCALDATAINIT?CALMCUT                   -----    -----      0022H    0001H      -----    -----
  +--> ?PR?_SETMCUTCALCNT?CALMCUT

?PR?FLASH_CALDATAUPDATE?FLASH               -----    -----      -----    -----      -----    -----
  +--> ?PR?_RAM_CALDATA2BUF?FLASH
  +--> ?PR?_FLASHUPDATE?FLASH

?PR?_RAM_CALDATA2BUF?FLASH                  -----    -----      0042H    0006H      -----    -----
  +--> ?PR?_GETANGXCALANGVAL?CALIBRATION
  +--> ?PR?_GETANGYCALANGVAL?CALIBRATION
  +--> ?PR?_GETANGXCALADCVAL?CALIBRATION
  +--> ?PR?_GETANGYCALADCVAL?CALIBRATION
  +--> ?PR?_GETTEMPXCALTEMPVAL?CALIBRATION
  +--> ?PR?_GETTEMPXCALADCVAL?CALIBRATION
  +--> ?PR?_GETTEMPYCALADCVAL?CALIBRATION
  +--> ?PR?GETANGXCALCNT?CALIBRATION
  +--> ?PR?GETTEMPXCALCNT?CALIBRATION
  +--> ?PR?GETANGXSYSZERO?ANGAPP
  +--> ?PR?GETANGYSYSZERO?ANGAPP
  +--> ?PR?GETMCUTCALCNT?CALMCUT
  +--> ?PR?_GETMCUTCALTEMPVAL?CALMCUT
  +--> ?PR?_GETMCUTCALADCVAL?CALMCUT
  +--> ?PR?GETFILTERCNT?SENSOR
  +--> ?PR?GETANGXUSRZERO?ANGAPP
  +--> ?PR?GETANGYUSRZERO?ANGAPP
  +--> ?PR?GETANGXINST?ANGAPP
  +--> ?PR?GETANGYINST?ANGAPP
  +--> ?PR?GETANGXSET?ANGAPP
  +--> ?PR?GETANGYSET?ANGAPP
  +--> ?PR?GETANGPSET?ANGAPP
  +--> ?PR?_FLASH_CHECKSUM?FLASH

?PR?_FLASH_CHECKSUM?FLASH                   -----    -----      0048H    0005H      -----    -----

?PR?_FLASHUPDATE?FLASH                      0020H.2  0000H.1    0042H    0007H      -----    -----
  +--> ?PR?_FLASH_PAGEERASE?FLASH
  +--> ?PR?_DELAY_MS?DELAY
  +--> ?PR?_FLASH_BUFWR?FLASH

?PR?_FLASH_PAGEERASE?FLASH                  0020H.3  0000H.1    -----    -----      -----    -----

?PR?_DELAY_MS?DELAY                         -----    -----      -----    -----      -----    -----
  +--> ?PR?DELAY_MS_?DELAY

BL51 BANKED LINKER/LOCATER V6.22                                                      06/13/2018  16:51:36  PAGE 14


?PR?DELAY_MS_?DELAY                         -----    -----      -----    -----      -----    -----
  +--> ?PR?DELAY_100US?DELAY

?PR?_FLASH_BUFWR?FLASH                      0020H.3  0000H.1    0049H    000BH      -----    -----

?PR?_RAM_BUF2CALDATA?FLASH                  -----    -----      0023H    0006H      -----    -----
  +--> ?PR?_SETANGXCALANGVAL?CALIBRATION
  +--> ?PR?_SETANGYCALANGVAL?CALIBRATION
  +--> ?PR?_SETANGXCALADCVAL?CALIBRATION
  +--> ?PR?_SETANGYCALADCVAL?CALIBRATION
  +--> ?PR?_SETTEMPXCALTEMPVAL?CALIBRATION
  +--> ?PR?_SETTEMPXCALADCVAL?CALIBRATION
  +--> ?PR?_SETTEMPYCALADCVAL?CALIBRATION
  +--> ?PR?_SETANGCALCNT?CALIBRATION
  +--> ?PR?_SETTEMPCALCNT?CALIBRATION
  +--> ?PR?_SETANGXSYSZERO?ANGAPP
  +--> ?PR?_SETANGYSYSZERO?ANGAPP
  +--> ?PR?_SETMCUTCALCNT?CALMCUT
  +--> ?PR?_SETMCUTCALTEMPVAL?CALMCUT
  +--> ?PR?_SETMCUTCALADCVAL?CALMCUT
  +--> ?PR?_SETFILTERCNT?SENSOR
  +--> ?PR?_SETANGXUSRZERO?ANGAPP
  +--> ?PR?_SETANGYUSRZERO?ANGAPP
  +--> ?PR?_SETANGXINST?ANGAPP
  +--> ?PR?_SETANGYINST?ANGAPP

?PR?FLASHAREA_USER?FLASH                    -----    -----      -----    -----      -----    -----
  +--> ?PR?_FLASH_BUFRD?FLASH
  +--> ?PR?FLASHCHK?FLASH
  +--> ?PR?_FLASH_CHECKSUM?FLASH
  +--> ?PR?RAM_CALDATAINIT_USER?FLASH
  +--> ?PR?_FLASH_CALDATAUPDATE_USER?FLASH
  +--> ?PR?_RAM_BUF2CALDATA?FLASH

?PR?RAM_CALDATAINIT_USER?FLASH              -----    -----      -----    -----      -----    -----
  +--> ?PR?_SETANGXUSRZERO?ANGAPP
  +--> ?PR?_SETANGYUSRZERO?ANGAPP
  +--> ?PR?_SETANGXINST?ANGAPP
  +--> ?PR?_SETANGYINST?ANGAPP
  +--> ?PR?INIT_SYSTEMPARA?INIT

?PR?_FLASH_CALDATAUPDATE_USER?FLASH         -----    -----      0039H    0009H      -----    -----
  +--> ?PR?_RAM_CALDATA2BUF?FLASH
  +--> ?PR?_FLASHUPDATE?FLASH

?PR?FLASH_COMPDATAINIT?FLASH                -----    -----      0022H    0001H      -----    -----
  +--> ?PR?_FLASH_BUFRD?FLASH
  +--> ?PR?FLASHCHK?FLASH
  +--> ?PR?COMP_CALDATAINIT?COMPASS
  +--> ?PR?_RAM_CALDATA2BUF?FLASH
  +--> ?PR?_FLASHUPDATE?FLASH
  +--> ?PR?_RAM_BUF2CALDATA?FLASH

?PR?ADC_XCALSTOP?CMDSUB                     -----    -----      0022H    0001H      -----    -----
  +--> ?PR?_SUB_BUFBUBBLE32S?SUB
  +--> ?PR?ANGXCALCPRM?CALIBRATION

BL51 BANKED LINKER/LOCATER V6.22                                                      06/13/2018  16:51:36  PAGE 15


?PR?_SUB_BUFBUBBLE32S?SUB                   -----    -----      0023H    0009H      -----    -----
  +--> ?PR?_SUB_SBUFSWITCH?SUB
  +--> ?PR?_SUB_UBUFSWITCH?SUB

?PR?_SUB_SBUFSWITCH?SUB                     -----    -----      002CH    0009H      -----    -----

?PR?_SUB_UBUFSWITCH?SUB                     -----    -----      003DH    0007H      -----    -----

?PR?ANGXCALCPRM?CALIBRATION                 -----    -----      -----    -----      -----    -----
  +--> ?PR?_ANG_CALCPRM?CALIBRATION

?PR?_ANG_CALCPRM?CALIBRATION                -----    -----      0023H    000CH      -----    -----
  +--> ?PR?SIN?SIN

?PR?SIN?SIN                                 0020H.2  0000H.1    004AH    0004H      -----    -----

?PR?ADC_YCALSTOP?CMDSUB                     -----    -----      0022H    0001H      -----    -----
  +--> ?PR?_SUB_BUFBUBBLE32S?SUB
  +--> ?PR?ANGYCALCPRM?CALIBRATION

?PR?ANGYCALCPRM?CALIBRATION                 -----    -----      -----    -----      -----    -----
  +--> ?PR?_ANG_CALCPRM?CALIBRATION

?PR?TEMP_CALSTOP?CMDSUB                     -----    -----      -----    -----      -----    -----
  +--> ?PR?TEMPSORTANDCALCPRM?CMDSUB

?PR?TEMPSORTANDCALCPRM?CMDSUB               -----    -----      -----    -----      -----    -----
  +--> ?PR?_SUB_BUFBUBBLE16U?SUB
  +--> ?PR?TEMPXCALCPRM?CALIBRATION
  +--> ?PR?TEMPYCALCPRM?CALIBRATION

?PR?_SUB_BUFBUBBLE16U?SUB                   -----    -----      0031H    000CH      -----    -----
  +--> ?PR?_SUB_UBUFSWITCH?SUB
  +--> ?PR?_SUB_16SBUFSWITCH?SUB

?PR?_SUB_16SBUFSWITCH?SUB                   -----    -----      003DH    0007H      -----    -----

?PR?TEMPXCALCPRM?CALIBRATION                -----    -----      -----    -----      -----    -----
  +--> ?PR?_TEMP_CALCPRM?CALIBRATION

?PR?_TEMP_CALCPRM?CALIBRATION               -----    -----      0031H    0004H      -----    -----

?PR?TEMPYCALCPRM?CALIBRATION                -----    -----      -----    -----      -----    -----
  +--> ?PR?_TEMP_CALCPRM?CALIBRATION

?PR?MCUT_CALSTOP?CALMCUT                    -----    -----      -----    -----      -----    -----
  +--> ?PR?MCUTCALCPRM?CALMCUT

?PR?MCUTCALCPRM?CALMCUT                     -----    -----      -----    -----      -----    -----
  +--> ?PR?_SUB_BUFBUBBLE16S?SUB
  +--> ?PR?_MCUT_CALCPRM?CALMCUT

?PR?_SUB_BUFBUBBLE16S?SUB                   -----    -----      0025H    0009H      -----    -----
  +--> ?PR?_SUB_16SBUFSWITCH?SUB
  +--> ?PR?_SUB_UBUFSWITCH?SUB

?PR?_MCUT_CALCPRM?CALMCUT                   -----    -----      0025H    0008H      -----    -----
BL51 BANKED LINKER/LOCATER V6.22                                                      06/13/2018  16:51:36  PAGE 16



?PR?SNPROC?SENSOR                           -----    -----      -----    -----      -----    -----
  +--> ?PR?ADC_GETXVAL?ADCDRV
  +--> ?PR?GET_MCUTEMP?SENSOR
  +--> ?PR?ADC_GETYVAL?ADCDRV

?PR?GET_MCUTEMP?SENSOR                      -----    -----      -----    -----      -----    -----
  +--> ?PR?ADC_GETTEMP?ADCDRV

?PR?TIMER2_TASKINMAIN?TIMER                 -----    -----      -----    -----      -----    -----
  +--> ?PR?SUB_SENDANGXY?SUB

?PR?SUB_SENDANGXY?SUB                       -----    -----      -----    -----      -----    -----
  +--> ?CO?SUB
  +--> ?PR?_COMM_PUTSTR?COMM
  +--> ?PR?GETXANGALLSETVAL?ANGAPP
  +--> ?PR?_COMM_PUTINT32S?SUB
  +--> ?PR?GETYANGALLSETVAL?ANGAPP
  +--> ?PR?COMM_PUTNEWLINESTA?SUB

?PR?_COMM_PUTSTR?COMM                       -----    -----      0039H    0003H      -----    -----
  +--> ?PR?_COMM_PUTCHAR?COMM

?PR?_COMM_PUTCHAR?COMM                      -----    -----      003CH    0003H      -----    -----

?PR?GETXANGALLSETVAL?ANGAPP                 -----    -----      003AH    0004H      -----    -----
  +--> ?PR?GETXANG?SENSOR
  +--> ?PR?_SETANGZERO?ANGAPP
  +--> ?PR?_SETANGZEROADD?ANGAPP

?PR?_SETANGZERO?ANGAPP                      -----    -----      003EH    0004H      -----    -----

?PR?_SETANGZEROADD?ANGAPP                   -----    -----      003EH    0004H      -----    -----

?PR?_COMM_PUTINT32S?SUB                     -----    -----      -----    -----      -----    -----
  +--> ?PR?_SUB_INT32S2STR?SUB
  +--> ?PR?_COMM_PUTSTR?COMM

?PR?_SUB_INT32S2STR?SUB                     -----    -----      002CH    0007H      -----    -----

?PR?GETYANGALLSETVAL?ANGAPP                 -----    -----      003AH    0004H      -----    -----
  +--> ?PR?GETYANG?SENSOR
  +--> ?PR?_SETANGZERO?ANGAPP
  +--> ?PR?_SETANGZEROADD?ANGAPP

?PR?COMM_PUTNEWLINESTA?SUB                  -----    -----      -----    -----      -----    -----
  +--> ?PR?_COMM_PUTCHAR?COMM
  +--> ?PR?COMM_SENDSTA?COMM

?PR?SEND_TIMEPROC?SEND                      -----    -----      -----    -----      -----    -----
  +--> ?PR?_COMM_GETCHAR?COMM
  +--> ?PR?_CUSTOMPRO?MODBUSRTU
  +--> ?PR?_MODRTU_RXPROC?MODBUSRTU
  +--> ?PR?_SEND_RDEAL?SEND
  +--> ?PR?_SEND_CDEAL?SEND
  +--> ?PR?_SEND_SDEAL?SEND
  +--> ?PR?_SEND_UDEAL?SEND
BL51 BANKED LINKER/LOCATER V6.22                                                      06/13/2018  16:51:36  PAGE 17


  +--> ?PR?_SEND_WDEAL?SEND
  +--> ?PR?_SEND_TDEAL?SEND

?PR?_COMM_GETCHAR?COMM                      -----    -----      0021H    0006H      -----    -----

?PR?_CUSTOMPRO?MODBUSRTU                    -----    -----      0021H    0004H      0C77H    000AH
  +--> ?PR?_CHKCODE?MODBUSRTU
  +--> ?PR?GETXANGALLSETVAL?ANGAPP
  +--> ?PR?_INT32S2VAL?MODBUSRTU
  +--> ?PR?GETYANGALLSETVAL?ANGAPP
  +--> ?PR?GET_MCUTEMPINCELSIUS?SENSOR
  +--> ?PR?_SUMCHK?MODBUSRTU
  +--> ?PR?_COMM_PUTSTR?COMM
  +--> ?PR?COMM_SENDSTA?COMM
  +--> ?PR?_DELAY_MS?DELAY
  +--> ?CO?SEND
  +--> ?PR?FLASH_USERDATAUPDATE?FLASH

?PR?_CHKCODE?MODBUSRTU                      -----    -----      0025H    0003H      -----    -----

?PR?_INT32S2VAL?MODBUSRTU                   -----    -----      0025H    0007H      -----    -----

?PR?GET_MCUTEMPINCELSIUS?SENSOR             -----    -----      -----    -----      -----    -----
  +--> ?PR?ADC_GETTEMP?ADCDRV

?PR?_SUMCHK?MODBUSRTU                       -----    -----      0025H    0004H      0C81H    0001H

?PR?FLASH_USERDATAUPDATE?FLASH              -----    -----      -----    -----      -----    -----
  +--> ?PR?_FLASH_CALDATAUPDATE_USER?FLASH

?PR?_MODRTU_RXPROC?MODBUSRTU                -----    -----      0021H    0004H      -----    -----
  +--> ?PR?_MODRTU_CHKCRC?MODBUSRTU
  +--> ?PR?_MODRTU_RDREG?MODBUSRTU
  +--> ?PR?_MODRTU_WRREG?MODBUSRTU
  +--> ?PR?_MODRTU_RLYERROR?MODBUSRTU

?PR?_MODRTU_CHKCRC?MODBUSRTU                -----    -----      -----    -----      -----    -----
  +--> ?PR?_MODBUSCRCCNT?MODBUSCRC

?PR?_MODBUSCRCCNT?MODBUSCRC                 -----    -----      0035H    0003H      -----    -----
  +--> ?CO?MODBUSCRC

?PR?_MODRTU_RDREG?MODBUSRTU                 -----    -----      0025H    000DH      -----    -----
  +--> ?PR?_MODRTU_8TO16?MODBUSRTU
  +--> ?PR?_MODRTU_RDVAL?MODBUSRTU
  +--> ?PR?_MODRTU_RLYERROR?MODBUSRTU
  +--> ?PR?_MODBUSCRCCNT?MODBUSCRC
  +--> ?PR?_MODRTU_WRCRC?MODBUSRTU
  +--> ?PR?_COMM_PUTSTR?COMM
  +--> ?PR?COMM_SENDSTA?COMM

?PR?_MODRTU_RDVAL?MODBUSRTU                 -----    -----      0032H    0008H      0C77H    0004H
  +--> ?PR?GETXANGALLSETVAL?ANGAPP
  +--> ?PR?GETYANGALLSETVAL?ANGAPP
  +--> ?PR?GETANGP?ANGAPP
  +--> ?PR?GETANGXINST?ANGAPP
  +--> ?PR?GETANGYINST?ANGAPP
BL51 BANKED LINKER/LOCATER V6.22                                                      06/13/2018  16:51:36  PAGE 18


  +--> ?PR?GETANGXSET?ANGAPP
  +--> ?PR?GETANGYSET?ANGAPP
  +--> ?PR?GETANGPSET?ANGAPP
  +--> ?PR?GET_MCUTEMP?SENSOR
  +--> ?PR?_GETTEMPXCALTEMPVAL?CALIBRATION
  +--> ?PR?_GETTEMPXCALADCVAL?CALIBRATION
  +--> ?PR?_GETTEMPYCALADCVAL?CALIBRATION
  +--> ?PR?GETXOFTVAL?SENSOR
  +--> ?PR?_FLOATTOINT?MODBUSRTU
  +--> ?PR?_GETANGXCALADCVAL?CALIBRATION
  +--> ?PR?_GETANGXCALANGVAL?CALIBRATION
  +--> ?PR?GETYOFTVAL?SENSOR
  +--> ?PR?_GETANGYCALADCVAL?CALIBRATION
  +--> ?PR?_GETANGYCALANGVAL?CALIBRATION
  +--> ?PR?GETXFTVAL?SENSOR
  +--> ?PR?GETYFTVAL?SENSOR
  +--> ?PR?GETXANG?SENSOR
  +--> ?PR?GETYANG?SENSOR
  +--> ?PR?GETANGXRELSYS?ANGAPP
  +--> ?PR?GETANGYRELSYS?ANGAPP
  +--> ?PR?GETANGXZEROUSR?ANGAPP
  +--> ?PR?GETANGYZEROUSR?ANGAPP
  +--> ?PR?GETANGXSYSZERO?ANGAPP
  +--> ?PR?GETANGYSYSZERO?ANGAPP
  +--> ?PR?GETANGXUSRZERO?ANGAPP
  +--> ?PR?GETANGYUSRZERO?ANGAPP
  +--> ?PR?GETANGXCALCNT?CALIBRATION
  +--> ?PR?GETTEMPXCALCNT?CALIBRATION
  +--> ?PR?GETFILTERCNT?SENSOR
  +--> ?PR?_MODRTU_RD16U?MODBUSRTU

?PR?GETANGP?ANGAPP                          -----    -----      -----    -----      -----    -----
  +--> ?PR?GETXANGALLSETVAL?ANGAPP
  +--> ?PR?GETYANGALLSETVAL?ANGAPP
  +--> ?PR?_PANGCALC?ANGAPP

?PR?_PANGCALC?ANGAPP                        -----    -----      003AH    0010H      -----    -----
  +--> ?PR?SIN?SIN
  +--> ?PR?SQRT?SQRT
  +--> ?PR?ASIN?ASIN

?PR?_FLOATTOINT?MODBUSRTU                   -----    -----      003AH    000CH      -----    -----

?PR?_MODRTU_RLYERROR?MODBUSRTU              -----    -----      0032H    0003H      -----    -----
  +--> ?PR?_MODBUSCRCCNT?MODBUSCRC
  +--> ?PR?_COMM_PUTSTR?COMM
  +--> ?PR?COMM_SENDSTA?COMM

?PR?_MODRTU_WRREG?MODBUSRTU                 -----    -----      0025H    000CH      -----    -----
  +--> ?PR?_MODRTU_8TO16?MODBUSRTU
  +--> ?PR?_MODRTU_WRVAL?MODBUSRTU
  +--> ?PR?_MODRTU_RLYERROR?MODBUSRTU
  +--> ?PR?_MODBUSCRCCNT?MODBUSCRC
  +--> ?PR?_MODRTU_WRCRC?MODBUSRTU
  +--> ?PR?_COMM_PUTSTR?COMM
  +--> ?PR?COMM_SENDSTA?COMM
  +--> ?PR?FLASH_USERDATAUPDATE?FLASH
BL51 BANKED LINKER/LOCATER V6.22                                                      06/13/2018  16:51:36  PAGE 19



?PR?_MODRTU_WRVAL?MODBUSRTU                 -----    -----      0031H    0008H      0C77H    0008H
  +--> ?PR?_MODRTU_WR16U?MODBUSRTU
  +--> ?PR?_SETANGXINST?ANGAPP
  +--> ?PR?_SETANGYINST?ANGAPP
  +--> ?PR?_MODRTU_SETZERO?MODBUSRTU
  +--> ?PR?_MODRTU_WRADDR?MODBUSRTU
  +--> ?PR?_MODRTU_WRBAUD?MODBUSRTU
  +--> ?PR?COMP_CALINIT?COMPASS
  +--> ?PR?COMP_CALPRMTCNT?COMPASS
  +--> ?PR?COMP_HARDWAREINIT?COMPASS
  +--> ?PR?GETANGXRELSYS?ANGAPP
  +--> ?PR?_SETANGXUSRZERO?ANGAPP
  +--> ?PR?FLASH_USERDATAUPDATE?FLASH
  +--> ?PR?_SETANGCALCNT?CALIBRATION
  +--> ?PR?GETANGXCALCNT?CALIBRATION
  +--> ?PR?_SETANGXCALANGVAL?CALIBRATION
  +--> ?PR?GETXOFTVAL?SENSOR
  +--> ?PR?_SETANGXCALADCVAL?CALIBRATION
  +--> ?PR?_SETANGYCALANGVAL?CALIBRATION
  +--> ?PR?GETYOFTVAL?SENSOR
  +--> ?PR?_SETANGYCALADCVAL?CALIBRATION
  +--> ?PR?FLASH_CALDATAUPDATE?FLASH
  +--> ?PR?GETXANG?SENSOR
  +--> ?PR?_SETANGXSYSZERO?ANGAPP
  +--> ?PR?GETYANG?SENSOR
  +--> ?PR?_SETANGYSYSZERO?ANGAPP
  +--> ?PR?GETANGYRELSYS?ANGAPP
  +--> ?PR?_SETANGYUSRZERO?ANGAPP
  +--> ?PR?_SETFILTERCNT?SENSOR

?PR?_MODRTU_SETZERO?MODBUSRTU               -----    -----      0039H    0002H      -----    -----
  +--> ?PR?_MODRTU_8TO16?MODBUSRTU
  +--> ?PR?GETANGXRELSYS?ANGAPP
  +--> ?PR?_SETANGXUSRZERO?ANGAPP
  +--> ?PR?GETANGYRELSYS?ANGAPP
  +--> ?PR?_SETANGYUSRZERO?ANGAPP

?PR?COMP_CALPRMTCNT?COMPASS                 -----    -----      -----    -----      0C7FH    000CH
  +--> ?PR?ASIN?ASIN
  +--> ?PR?SIN?SIN

?PR?_SEND_RDEAL?SEND                        -----    -----      0021H    0005H      -----    -----
  +--> ?CO?SEND
  +--> ?PR?_STRNCMP?STRNCMP
  +--> ?PR?SUB_SENDPRMTALL?SUB
  +--> ?PR?SUB_SENDANGXYP?SUB
  +--> ?PR?SUB_SENDANGXY?SUB
  +--> ?PR?SUB_SENDSOFTVER?SUB
  +--> ?PR?SUB_SENDSYSNUM?SUB
  +--> ?PR?_SUB_STR2INT8U?SUB
  +--> ?PR?_SUB_SENDTEMPCAL?SUB
  +--> ?PR?_SUB_SENDMCUTEMPCAL?SUB
  +--> ?PR?SUB_SENDERR?SUB

?PR?_STRNCMP?STRNCMP                        -----    -----      002CH    0008H      -----    -----

BL51 BANKED LINKER/LOCATER V6.22                                                      06/13/2018  16:51:36  PAGE 20


?PR?SUB_SENDPRMTALL?SUB                     -----    -----      -----    -----      -----    -----
  +--> ?CO?SUB
  +--> ?PR?_COMM_PUTSTR?COMM
  +--> ?PR?GET_MCUTEMP?SENSOR
  +--> ?PR?_COMM_PUTINT16U?SUB
  +--> ?PR?GETXFTVAL?SENSOR
  +--> ?PR?_COMM_PUTCHAR?COMM
  +--> ?PR?GETXOFTVAL?SENSOR
  +--> ?PR?GETXANG?SENSOR
  +--> ?PR?_COMM_PUTINT32S?SUB
  +--> ?PR?GETYFTVAL?SENSOR
  +--> ?PR?GETYOFTVAL?SENSOR
  +--> ?PR?GETYANG?SENSOR
  +--> ?PR?GET_MCUTEMPINCELSIUS?SENSOR
  +--> ?PR?COMM_PUTNEWLINESTA?SUB

?PR?_COMM_PUTINT16U?SUB                     -----    -----      -----    -----      -----    -----
  +--> ?PR?_SUB_INT16U2STR?SUB
  +--> ?PR?_COMM_PUTSTR?COMM

?PR?_SUB_INT16U2STR?SUB                     -----    -----      0039H    0005H      -----    -----

?PR?SUB_SENDANGXYP?SUB                      -----    -----      -----    -----      -----    -----
  +--> ?CO?SUB
  +--> ?PR?_COMM_PUTSTR?COMM
  +--> ?PR?GETXANGALLSETVAL?ANGAPP
  +--> ?PR?_COMM_PUTINT32S?SUB
  +--> ?PR?GETYANGALLSETVAL?ANGAPP
  +--> ?PR?GETANGP?ANGAPP
  +--> ?PR?COMM_PUTNEWLINESTA?SUB

?PR?SUB_SENDSOFTVER?SUB                     -----    -----      -----    -----      -----    -----
  +--> ?CO?SUB
  +--> ?PR?_COMM_PUTSTR?COMM
  +--> ?PR?COMM_PUTNEWLINESTA?SUB

?PR?SUB_SENDSYSNUM?SUB                      -----    -----      -----    -----      -----    -----
  +--> ?CO?SUB
  +--> ?PR?_COMM_PUTSTR?COMM
  +--> ?PR?COMM_PUTNEWLINESTA?SUB

?PR?_SUB_SENDTEMPCAL?SUB                    -----    -----      0026H    0001H      -----    -----
  +--> ?CO?SUB
  +--> ?PR?_COMM_PUTSTR?COMM
  +--> ?PR?_COMM_PUTINT8U?SUB
  +--> ?PR?_COMM_PUTCHAR?COMM
  +--> ?PR?_GETTEMPXCALTEMPVAL?CALIBRATION
  +--> ?PR?_COMM_PUTINT16U?SUB
  +--> ?PR?_GETTEMPXCALADCVAL?CALIBRATION
  +--> ?PR?_COMM_PUTINT16S?SUB
  +--> ?PR?_GETTEMPYCALADCVAL?CALIBRATION
  +--> ?PR?COMM_PUTNEWLINESTA?SUB

?PR?_COMM_PUTINT8U?SUB                      -----    -----      -----    -----      -----    -----
  +--> ?PR?_SUB_INT8U2STR?SUB
  +--> ?PR?_COMM_PUTSTR?COMM

BL51 BANKED LINKER/LOCATER V6.22                                                      06/13/2018  16:51:36  PAGE 21


?PR?_COMM_PUTINT16S?SUB                     -----    -----      -----    -----      -----    -----
  +--> ?PR?_SUB_INT16S2STR?SUB
  +--> ?PR?_COMM_PUTSTR?COMM

?PR?_SUB_INT16S2STR?SUB                     -----    -----      -----    -----      -----    -----
  +--> ?PR?_SUB_INT16U2STR?SUB

?PR?_SUB_SENDMCUTEMPCAL?SUB                 -----    -----      0026H    0001H      -----    -----
  +--> ?CO?SUB
  +--> ?PR?_COMM_PUTSTR?COMM
  +--> ?PR?_COMM_PUTINT8U?SUB
  +--> ?PR?_COMM_PUTCHAR?COMM
  +--> ?PR?_GETMCUTCALTEMPVAL?CALMCUT
  +--> ?PR?_COMM_PUTINT16S?SUB
  +--> ?PR?_GETMCUTCALADCVAL?CALMCUT
  +--> ?PR?_COMM_PUTINT16U?SUB
  +--> ?PR?COMM_PUTNEWLINESTA?SUB

?PR?SUB_SENDERR?SUB                         -----    -----      -----    -----      -----    -----
  +--> ?CO?SUB
  +--> ?PR?_COMM_PUTSTR?COMM
  +--> ?PR?COMM_PUTNEWLINESTA?SUB

?PR?_SEND_CDEAL?SEND                        -----    -----      0021H    0004H      -----    -----
  +--> ?CO?SEND
  +--> ?PR?_STRNCMP?STRNCMP
  +--> ?PR?SUB_SENDERR?SUB
  +--> ?PR?_SETANGXSYSZERO?ANGAPP
  +--> ?PR?_SETANGYSYSZERO?ANGAPP
  +--> ?PR?_COMM_PUTSTR?COMM
  +--> ?PR?SUB_SENDOK?SUB
  +--> ?PR?_SETANGXUSRZERO?ANGAPP
  +--> ?PR?_SETANGYUSRZERO?ANGAPP
  +--> ?PR?TEMP_CALSTA?CMDSUB
  +--> ?PR?TEMP_CALSTOP?CMDSUB
  +--> ?PR?MCUT_CALSTA?CALMCUT
  +--> ?PR?MCUT_CALSTOP?CALMCUT

?PR?SUB_SENDOK?SUB                          -----    -----      -----    -----      -----    -----
  +--> ?CO?SUB
  +--> ?PR?_COMM_PUTSTR?COMM
  +--> ?PR?COMM_PUTNEWLINESTA?SUB

?PR?_SEND_SDEAL?SEND                        -----    -----      0021H    000BH      -----    -----
  +--> ?CO?SEND
  +--> ?PR?_STRNCMP?STRNCMP
  +--> ?PR?_COMM_PUTSTR?COMM
  +--> ?PR?SUB_SENDOK?SUB
  +--> ?PR?SUB_SENDERR?SUB
  +--> ?PR?SUB_SENDANGXY?SUB
  +--> ?PR?_SUB_STR2INT8U?SUB
  +--> ?PR?_SETFILTERCNT?SENSOR
  +--> ?PR?GETXANG?SENSOR
  +--> ?PR?_SETANGXSYSZERO?ANGAPP
  +--> ?PR?GETYANG?SENSOR
  +--> ?PR?_SETANGYSYSZERO?ANGAPP
  +--> ?PR?GETANGXRELSYS?ANGAPP
BL51 BANKED LINKER/LOCATER V6.22                                                      06/13/2018  16:51:36  PAGE 22


  +--> ?PR?_SETANGXUSRZERO?ANGAPP
  +--> ?PR?GETANGYRELSYS?ANGAPP
  +--> ?PR?_SETANGYUSRZERO?ANGAPP
  +--> ?PR?_SUB_STR2INT32S?SUB
  +--> ?PR?_SETANGXINST?ANGAPP
  +--> ?PR?_SETANGYINST?ANGAPP
  +--> ?PR?_SETTEMPCALCNT?CALIBRATION
  +--> ?PR?_SETMCUTCALCNT?CALMCUT
  +--> ?PR?_SUB_STR2INT8S?SUB
  +--> ?PR?GET_MCUTEMP?SENSOR
  +--> ?PR?_MCUT_SET?CMDSUB
  +--> ?PR?_MCUT_CALSAMP?CALMCUT
  +--> ?PR?GETXFTVAL?SENSOR
  +--> ?PR?GETYFTVAL?SENSOR
  +--> ?PR?_TEMP_CALSAMP?CMDSUB
  +--> ?PR?_TEMP_CALTREFSET?CMDSUB
  +--> ?PR?_DELAY_MS?DELAY
  +--> ?PR?SUB_SYSRST?SUB

?PR?_SUB_STR2INT32S?SUB                     -----    -----      002CH    000AH      -----    -----

?PR?_SUB_STR2INT8S?SUB                      -----    -----      002CH    0003H      -----    -----
  +--> ?PR?_SUB_STR2INT8U?SUB

?PR?_MCUT_CALSAMP?CALMCUT                   -----    -----      002CH    0004H      -----    -----
  +--> ?PR?_MCUT_CALVALWR?CALMCUT
  +--> ?PR?_SUB_SENDMCUT?SUB

?PR?_MCUT_CALVALWR?CALMCUT                  -----    -----      0030H    0003H      -----    -----

?PR?_SUB_SENDMCUT?SUB                       -----    -----      0030H    0004H      -----    -----
  +--> ?CO?SUB
  +--> ?PR?_COMM_PUTSTR?COMM
  +--> ?PR?_COMM_PUTINT16S?SUB
  +--> ?PR?_COMM_PUTINT16U?SUB
  +--> ?PR?COMM_PUTNEWLINESTA?SUB

?PR?_TEMP_CALSAMP?CMDSUB                    -----    -----      002CH    0007H      -----    -----
  +--> ?PR?_TEMP_CALVALWR?CMDSUB
  +--> ?PR?_SUB_SENDADCTXY?SUB

?PR?_TEMP_CALVALWR?CMDSUB                   -----    -----      0033H    0007H      -----    -----

?PR?_SUB_SENDADCTXY?SUB                     -----    -----      0033H    0006H      -----    -----
  +--> ?CO?SUB
  +--> ?PR?_COMM_PUTSTR?COMM
  +--> ?PR?_COMM_PUTINT16U?SUB
  +--> ?PR?COMM_PUTNEWLINESTA?SUB

?PR?_TEMP_CALTREFSET?CMDSUB                 -----    -----      002CH    0005H      -----    -----
  +--> ?PR?TEMP_CALSTOP?CMDSUB

?PR?_SEND_UDEAL?SEND                        -----    -----      0021H    0004H      -----    -----
  +--> ?CO?SEND
  +--> ?PR?_STRNCMP?STRNCMP
  +--> ?PR?FLASH_CALDATAUPDATE?FLASH
  +--> ?PR?FLASH_USERDATAUPDATE?FLASH
BL51 BANKED LINKER/LOCATER V6.22                                                      06/13/2018  16:51:36  PAGE 23


  +--> ?PR?_COMM_PUTSTR?COMM
  +--> ?PR?SUB_SENDOK?SUB
  +--> ?PR?SUB_SENDERR?SUB

?PR?_SEND_WDEAL?SEND                        -----    -----      0021H    000AH      -----    -----
  +--> ?CO?SEND
  +--> ?PR?_STRNCMP?STRNCMP
  +--> ?PR?_SUB_STR2INT16S?SUB
  +--> ?PR?_SUB_STR2INT16U?SUB
  +--> ?PR?_SUB_STR2INT8U?SUB
  +--> ?PR?_TEMP_CALVALWR?CMDSUB
  +--> ?PR?SUB_SENDERR?SUB
  +--> ?PR?_STRNCPY?STRNCPY
  +--> ?PR?_COMM_PUTSTR?COMM
  +--> ?PR?SUB_SENDOK?SUB

?PR?_SUB_STR2INT16S?SUB                     -----    -----      002BH    0008H      -----    -----
  +--> ?PR?_SUB_STR2INT16U?SUB

?PR?_SUB_STR2INT16U?SUB                     -----    -----      0033H    0006H      -----    -----

?PR?_STRNCPY?STRNCPY                        -----    -----      002BH    000AH      -----    -----

?PR?_SEND_TDEAL?SEND                        -----    -----      0021H    0001H      -----    -----
  +--> ?CO?SEND
  +--> ?PR?_STRNCMP?STRNCMP
  +--> ?PR?SUB_SENDTCALTEST?SUB

?PR?SUB_SENDTCALTEST?SUB                    -----    -----      0022H    0004H      -----    -----
  +--> ?PR?GET_MCUTEMP?SENSOR
  +--> ?PR?_COMM_PUTINT16U?SUB
  +--> ?PR?_COMM_PUTCHAR?COMM
  +--> ?PR?_COMM_PUTINT16S?SUB
  +--> ?PR?COMM_PUTNEWLINESTA?SUB

?PR?COMP_ANGCNTPROC?COMPASS                 -----    -----      -----    -----      0C77H    0007H
  +--> ?PR?_COMP_GETADC?COMPASS
  +--> ?PR?_COMP_ADCCORRECTS?COMPASS
  +--> ?PR?ATAN?ATAN

?PR?_COMP_GETADC?COMPASS                    -----    -----      -----    -----      0C7EH    0002H
  +--> ?PR?COMP_SPISTA?COMPASS
  +--> ?PR?_COMP_SPIBYTESEND?COMPASS
  +--> ?PR?COMP_SPIBUSYTEST?COMPASS
  +--> ?PR?COMP_SPIBYTEGET?COMPASS
  +--> ?PR?COMP_SPIEND?COMPASS

?PR?_COMP_SPIBYTESEND?COMPASS               -----    -----      -----    -----      0C80H    0001H

?PR?COMP_SPIBYTEGET?COMPASS                 -----    -----      -----    -----      0C80H    0004H

?PR?_COMP_ADCCORRECTS?COMPASS               -----    -----      0021H    0006H      0C7EH    0008H

?PR?COMP_CALSAMPPROC?COMPASS                -----    -----      -----    -----      0C77H    0005H
  +--> ?PR?_COMP_GETADC?COMPASS
  +--> ?PR?_COMP_MIDFILTER?COMPASS

BL51 BANKED LINKER/LOCATER V6.22                                                      06/13/2018  16:51:36  PAGE 24


?PR?_COMP_MIDFILTER?COMPASS                 -----    -----      -----    -----      0C7CH    0006H

*** NEW ROOT ***************************************************

?PR?ADC_ISR?ADCDRV                          -----    -----      -----    -----      -----    -----
  +--> ?PR?_ADC_SAVEANDSWITCH?ADCDRV

?PR?_ADC_SAVEANDSWITCH?ADCDRV               -----    -----      0054H    0003H      -----    -----
  +--> ?CO?ADCDRV
  +--> ?PR?_ADCFILTER?ADCDRV

?PR?_ADCFILTER?ADCDRV                       -----    -----      0057H    0005H      -----    -----
  +--> ?PR?_VALINRANGE?FILTER
  +--> ?PR?_SLIDEWINFILTER?FILTER

?PR?_SLIDEWINFILTER?FILTER                  -----    -----      005CH    0012H      -----    -----

*** NEW ROOT ***************************************************

?PR?COMM_ISR?COMM                           -----    -----      006EH    0002H      -----    -----
  +--> ?PR?_COMM_GETTXCHAR?COMM
  +--> ?PR?COMM_SENDSTOP?COMM
  +--> ?PR?_COMM_PUTRXCHAR?COMM
  +--> ?PR?COMM_TIMERINIT?COMM

?PR?_COMM_GETTXCHAR?COMM                    -----    -----      0070H    0006H      -----    -----

?PR?_COMM_PUTRXCHAR?COMM                    -----    -----      0070H    0003H      -----    -----

*** NEW ROOT ***************************************************

?PR?TIMER2_ISR?TIMER                        -----    -----      -----    -----      -----    -----
  +--> ?PR?TIMER2_TASKINISR?TIMER

?PR?TIMER2_TASKINISR?TIMER                  -----    -----      -----    -----      -----    -----
  +--> ?PR?COMM_TIMERPROC?COMM
  +--> ?CO?SEND



SYMBOL TABLE OF MODULE:  .\obj\9003 (?C_STARTUP)

  VALUE           TYPE          NAME
  ----------------------------------

  -------         MODULE        ?C_STARTUP
  C:57A4H         SEGMENT       ?C_C51STARTUP
  I:0076H         SEGMENT       ?STACK
  C:0000H         PUBLIC        ?C_STARTUP
  D:00E0H         SYMBOL        ACC
  D:00F0H         SYMBOL        B
  D:0083H         SYMBOL        DPH
  D:0082H         SYMBOL        DPL
  N:0000H         SYMBOL        IBPSTACK
  N:0100H         SYMBOL        IBPSTACKTOP
  N:0080H         SYMBOL        IDATALEN
  C:57A7H         SYMBOL        IDATALOOP
BL51 BANKED LINKER/LOCATER V6.22                                                      06/13/2018  16:51:36  PAGE 25


  N:0000H         SYMBOL        PBPSTACK
  N:0100H         SYMBOL        PBPSTACKTOP
  N:0000H         SYMBOL        PDATALEN
  N:0000H         SYMBOL        PDATASTART
  N:0000H         SYMBOL        PPAGE
  N:0000H         SYMBOL        PPAGEENABLE
  D:00A0H         SYMBOL        PPAGE_SFR
  D:0081H         SYMBOL        SP
  C:57A4H         SYMBOL        STARTUP1
  N:0000H         SYMBOL        XBPSTACK
  N:0000H         SYMBOL        XBPSTACKTOP
  N:0000H         SYMBOL        XDATALEN
  N:0000H         SYMBOL        XDATASTART
  C:0000H         LINE#         126
  C:57A4H         LINE#         133
  C:57A6H         LINE#         134
  C:57A7H         LINE#         135
  C:57A8H         LINE#         136
  C:57AAH         LINE#         185
  C:57ADH         LINE#         196
  -------         ENDMOD        ?C_STARTUP

  -------         MODULE        ADCDRV
  C:0000H         SYMBOL        _ICE_DUMMY_
  C:76B1H         PUBLIC        Adc_Init
  D:0090H         PUBLIC        P1
  D:00A0H         PUBLIC        P2
  D:00BCH         PUBLIC        ADC0CF
  D:00E6H         PUBLIC        EIE1
  C:5CEEH         SYMBOL        _Adc_SaveAndSwitch
  C:77C5H         PUBLIC        Adc_GetXVal
  C:77CEH         PUBLIC        Adc_GetYVal
  D:00E8H         PUBLIC        ADC0CN
  D:00A7H         PUBLIC        SFRPAGE
  C:7936H         SYMBOL        Adc_VrefInit
  C:58BCH         PUBLIC        Adc_Isr
  X:085CH         PUBLIC        x_axis_adc
  X:08E4H         PUBLIC        y_axis_adc
  D:00BBH         PUBLIC        ADC0MX
  D:00D1H         PUBLIC        REF0CN
  C:69FDH         SYMBOL        AdcEntityInit
  B:00E8H.5       PUBLIC        AD0INT
  C:77D7H         PUBLIC        Adc_GetTemp
  C:7042H         SYMBOL        Adc_SetInit
  I:001CH         PUBLIC        AdcSwitchId
  C:793AH         SYMBOL        Adc_IsrInit
  C:0026H         PUBLIC        Adc_Enable
  I:001DH         PUBLIC        AdcEndTag
  D:00BEH         PUBLIC        ADC0H
  X:096CH         PUBLIC        temp_adc
  D:00BDH         PUBLIC        ADC0L
  I:001EH         PUBLIC        AdcEndId
  C:737AH         SYMBOL        PinIdTab
  C:5AE0H         SYMBOL        _AdcFilter
  D:00BDH         PUBLIC        ADC0
  C:7387H         SYMBOL        PinMuxTab
  -------         PROC          ADC_INIT
BL51 BANKED LINKER/LOCATER V6.22                                                      06/13/2018  16:51:36  PAGE 26


  C:76B1H         LINE#         46
  C:76B1H         LINE#         47
  C:76B1H         LINE#         48
  C:76B4H         LINE#         49
  C:76B7H         LINE#         50
  C:76BAH         LINE#         51
  -------         ENDPROC       ADC_INIT
  -------         PROC          ADC_ENABLE
  C:0026H         LINE#         54
  C:0026H         LINE#         55
  C:0026H         LINE#         56
  C:0029H         LINE#         57
  -------         ENDPROC       ADC_ENABLE
  -------         PROC          ADC_GETXVAL
  C:77C5H         LINE#         65
  C:77C5H         LINE#         66
  C:77C5H         LINE#         67
  C:77CDH         LINE#         68
  -------         ENDPROC       ADC_GETXVAL
  -------         PROC          ADC_GETYVAL
  C:77CEH         LINE#         76
  C:77CEH         LINE#         77
  C:77CEH         LINE#         78
  C:77D6H         LINE#         79
  -------         ENDPROC       ADC_GETYVAL
  -------         PROC          ADC_GETTEMP
  C:77D7H         LINE#         87
  C:77D7H         LINE#         88
  C:77D7H         LINE#         89
  C:77DFH         LINE#         90
  -------         ENDPROC       ADC_GETTEMP
  -------         PROC          ADC_SETINIT
  -------         DO            
  D:0007H         SYMBOL        SfrPage_
  -------         ENDDO         
  C:7042H         LINE#         111
  C:7042H         LINE#         112
  C:7044H         LINE#         115
  C:7047H         LINE#         116
  C:704AH         LINE#         117
  C:704DH         LINE#         118
  C:7050H         LINE#         119
  C:7053H         LINE#         120
  C:7056H         LINE#         121
  C:7059H         LINE#         122
  C:705CH         LINE#         123
  C:705FH         LINE#         124
  C:7062H         LINE#         125
  C:7065H         LINE#         126
  C:7067H         LINE#         127
  C:706AH         LINE#         128
  C:706DH         LINE#         129
  C:706FH         LINE#         130
  -------         ENDPROC       ADC_SETINIT
  -------         PROC          ADC_VREFINIT
  C:7936H         LINE#         132
  C:7936H         LINE#         133
BL51 BANKED LINKER/LOCATER V6.22                                                      06/13/2018  16:51:36  PAGE 27


  C:7936H         LINE#         134
  C:7939H         LINE#         135
  -------         ENDPROC       ADC_VREFINIT
  -------         PROC          ADC_ISRINIT
  C:793AH         LINE#         137
  C:793AH         LINE#         138
  C:793AH         LINE#         139
  C:793DH         LINE#         140
  -------         ENDPROC       ADC_ISRINIT
  -------         PROC          _ADCFILTER
  D:0057H         SYMBOL        p_adc
  D:005AH         SYMBOL        val
  C:5AE0H         LINE#         149
  C:5AEAH         LINE#         150
  C:5AEAH         LINE#         151
  C:5AFFH         LINE#         152
  C:5AFFH         LINE#         154
  C:5B4EH         LINE#         155
  C:5B4EH         LINE#         157
  C:5B4EH         LINE#         158
  C:5B5DH         LINE#         159
  C:5B64H         LINE#         160
  C:5B64H         LINE#         161
  -------         ENDPROC       _ADCFILTER
  -------         PROC          ADCENTITYINIT
  C:69FDH         LINE#         219
  C:69FDH         LINE#         220
  C:69FDH         LINE#         222
  C:6A02H         LINE#         223
  C:6A04H         LINE#         224
  C:6A06H         LINE#         225
  C:6A0CH         LINE#         227
  C:6A16H         LINE#         229
  C:6A1CH         LINE#         230
  C:6A1FH         LINE#         231
  C:6A21H         LINE#         232
  C:6A27H         LINE#         234
  C:6A2FH         LINE#         236
  C:6A35H         LINE#         237
  C:6A38H         LINE#         238
  C:6A3AH         LINE#         239
  C:6A40H         LINE#         241
  -------         ENDPROC       ADCENTITYINIT
  -------         PROC          _ADC_SAVEANDSWITCH
  D:0004H         SYMBOL        val
  -------         DO            
  D:0054H         SYMBOL        adc_ent
  -------         ENDDO         
  C:5CEEH         LINE#         265
  C:5CF2H         LINE#         266
  C:5CF2H         LINE#         268
  C:5CFBH         LINE#         269
  C:5D0AH         LINE#         270
  C:5D12H         LINE#         272
  C:5D1AH         LINE#         273
  C:5D1AH         LINE#         274
  C:5D2EH         LINE#         275
BL51 BANKED LINKER/LOCATER V6.22                                                      06/13/2018  16:51:36  PAGE 28


  C:5D2EH         LINE#         276
  C:5D3AH         LINE#         277
  C:5D3CH         LINE#         278
  C:5D44H         LINE#         280
  C:5D4DH         LINE#         282
  C:5D57H         LINE#         283
  C:5D5AH         LINE#         285
  C:5D60H         LINE#         286
  C:5D69H         LINE#         287
  C:5D6CH         LINE#         288
  -------         ENDPROC       _ADC_SAVEANDSWITCH
  -------         PROC          ADC_ISR
  -------         DO            
  X:0856H         SYMBOL        sum
  X:085AH         SYMBOL        cnt
  -------         ENDDO         
  C:58BCH         LINE#         296
  C:58D9H         LINE#         301
  C:58DBH         LINE#         302
  C:58F1H         LINE#         303
  C:5904H         LINE#         304
  C:5904H         LINE#         305
  C:5916H         LINE#         306
  C:5920H         LINE#         307
  C:5927H         LINE#         308
  C:5929H         LINE#         310
  C:592CH         LINE#         311
  -------         ENDPROC       ADC_ISR
  -------         ENDMOD        ADCDRV

  -------         MODULE        ANGAPP
  C:0000H         SYMBOL        _ICE_DUMMY_
  C:78EEH         PUBLIC        _SetAngYUsrZero
  C:68CDH         PUBLIC        GetXAngAllSetVal
  D:0090H         PUBLIC        P1
  C:6919H         PUBLIC        GetYAngAllSetVal
  D:00A0H         PUBLIC        P2
  C:78DCH         PUBLIC        _SetAngXSysZero
  C:78E2H         PUBLIC        _SetAngYSysZero
  C:7070H         PUBLIC        GetAngP
  X:0BEFH         SYMBOL        angp
  C:5D6DH         PUBLIC        AngInit
  X:0BF3H         SYMBOL        angx_usrzero
  X:0BF7H         SYMBOL        angy_usrzero
  C:7888H         PUBLIC        GetAngXInst
  C:788FH         PUBLIC        GetAngYInst
  X:0BFBH         SYMBOL        angx_syszero
  X:0BFFH         SYMBOL        angy_syszero
  C:78A4H         PUBLIC        GetAngPSet
  C:78F4H         PUBLIC        _SetAngXInst
  C:78FAH         PUBLIC        _SetAngYInst
  C:7896H         PUBLIC        GetAngXSet
  C:789DH         PUBLIC        GetAngYSet
  X:0C03H         SYMBOL        angx_inst
  X:0C07H         SYMBOL        angy_inst
  X:0C0BH         SYMBOL        angp_set
  C:4F8BH         SYMBOL        _PAngCalc
BL51 BANKED LINKER/LOCATER V6.22                                                      06/13/2018  16:51:36  PAGE 29


  X:0C0FH         SYMBOL        angx_set
  X:0C13H         SYMBOL        angy_set
  C:71B8H         PUBLIC        _SetAngZero
  C:78ABH         PUBLIC        GetAngXZeroUsr
  C:787AH         PUBLIC        GetAngXUsrZero
  C:78B2H         PUBLIC        GetAngYZeroUsr
  C:7881H         PUBLIC        GetAngYUsrZero
  C:7308H         PUBLIC        _SetAngZeroAdd
  X:0C17H         SYMBOL        BufZerox_usr
  C:786CH         PUBLIC        GetAngXSysZero
  X:0C1BH         SYMBOL        BufZeroy_usr
  C:7873H         PUBLIC        GetAngYSysZero
  C:78B9H         PUBLIC        GetAngXRelSys
  C:78C0H         PUBLIC        GetAngYRelSys
  X:0C1FH         SYMBOL        BufZerox_sys
  X:0C23H         SYMBOL        BufZeroy_sys
  C:78E8H         PUBLIC        _SetAngXUsrZero
  -------         PROC          ANGINIT
  C:5D6DH         LINE#         41
  C:5D6DH         LINE#         42
  C:5D6DH         LINE#         43
  C:5D70H         LINE#         45
  C:5D7AH         LINE#         47
  C:5D85H         LINE#         48
  C:5D90H         LINE#         49
  C:5D9BH         LINE#         50
  C:5DA6H         LINE#         51
  C:5DB1H         LINE#         52
  C:5DBCH         LINE#         57
  C:5DC6H         LINE#         58
  C:5DD0H         LINE#         59
  C:5DDAH         LINE#         60
  C:5DE4H         LINE#         62
  -------         ENDPROC       ANGINIT
  -------         PROC          _PANGCALC
  D:0004H         SYMBOL        angx
  D:003EH         SYMBOL        angy
  -------         DO            
  D:0042H         SYMBOL        x
  D:0004H         SYMBOL        y
  D:0046H         SYMBOL        s
  -------         ENDDO         
  C:4F8BH         LINE#         70
  C:4F8BH         LINE#         71
  C:4F8BH         LINE#         74
  C:4F97H         LINE#         75
  C:4FB5H         LINE#         76
  C:4FC0H         LINE#         77
  C:4FD3H         LINE#         79
  C:4FDFH         LINE#         80
  C:4FF5H         LINE#         81
  C:4FF8H         LINE#         82
  C:5003H         LINE#         84
  C:5019H         LINE#         85
  C:502DH         LINE#         86
  C:502DH         LINE#         87
  C:5036H         LINE#         88
BL51 BANKED LINKER/LOCATER V6.22                                                      06/13/2018  16:51:36  PAGE 30


  C:5036H         LINE#         89
  C:505FH         LINE#         90
  C:5062H         LINE#         91
  -------         ENDPROC       _PANGCALC
  -------         PROC          GETANGP
  C:7070H         LINE#         99
  C:7070H         LINE#         100
  C:7070H         LINE#         102
  C:7097H         LINE#         103
  C:709DH         LINE#         104
  -------         ENDPROC       GETANGP
  -------         PROC          GETANGXSYSZERO
  C:786CH         LINE#         106
  C:786CH         LINE#         107
  C:786CH         LINE#         108
  C:7872H         LINE#         109
  -------         ENDPROC       GETANGXSYSZERO
  -------         PROC          GETANGYSYSZERO
  C:7873H         LINE#         110
  C:7873H         LINE#         111
  C:7873H         LINE#         112
  C:7879H         LINE#         113
  -------         ENDPROC       GETANGYSYSZERO
  -------         PROC          GETANGXUSRZERO
  C:787AH         LINE#         114
  C:787AH         LINE#         115
  C:787AH         LINE#         116
  C:7880H         LINE#         117
  -------         ENDPROC       GETANGXUSRZERO
  -------         PROC          GETANGYUSRZERO
  C:7881H         LINE#         118
  C:7881H         LINE#         119
  C:7881H         LINE#         120
  C:7887H         LINE#         121
  -------         ENDPROC       GETANGYUSRZERO
  -------         PROC          GETANGXINST
  C:7888H         LINE#         123
  C:7888H         LINE#         124
  C:7888H         LINE#         125
  C:788EH         LINE#         126
  -------         ENDPROC       GETANGXINST
  -------         PROC          GETANGYINST
  C:788FH         LINE#         127
  C:788FH         LINE#         128
  C:788FH         LINE#         129
  C:7895H         LINE#         130
  -------         ENDPROC       GETANGYINST
  -------         PROC          GETANGXSET
  C:7896H         LINE#         132
  C:7896H         LINE#         133
  C:7896H         LINE#         134
  C:789CH         LINE#         135
  -------         ENDPROC       GETANGXSET
  -------         PROC          GETANGYSET
  C:789DH         LINE#         136
  C:789DH         LINE#         137
  C:789DH         LINE#         138
BL51 BANKED LINKER/LOCATER V6.22                                                      06/13/2018  16:51:36  PAGE 31


  C:78A3H         LINE#         139
  -------         ENDPROC       GETANGYSET
  -------         PROC          GETANGPSET
  C:78A4H         LINE#         140
  C:78A4H         LINE#         141
  C:78A4H         LINE#         142
  C:78AAH         LINE#         143
  -------         ENDPROC       GETANGPSET
  -------         PROC          GETANGXZEROUSR
  C:78ABH         LINE#         145
  C:78ABH         LINE#         146
  C:78ABH         LINE#         147
  C:78B1H         LINE#         148
  -------         ENDPROC       GETANGXZEROUSR
  -------         PROC          GETANGYZEROUSR
  C:78B2H         LINE#         149
  C:78B2H         LINE#         150
  C:78B2H         LINE#         151
  C:78B8H         LINE#         152
  -------         ENDPROC       GETANGYZEROUSR
  -------         PROC          GETANGXRELSYS
  C:78B9H         LINE#         154
  C:78B9H         LINE#         155
  C:78B9H         LINE#         156
  C:78BFH         LINE#         157
  -------         ENDPROC       GETANGXRELSYS
  -------         PROC          GETANGYRELSYS
  C:78C0H         LINE#         158
  C:78C0H         LINE#         159
  C:78C0H         LINE#         160
  C:78C6H         LINE#         161
  -------         ENDPROC       GETANGYRELSYS
  -------         PROC          _SETANGXSYSZERO
  D:0004H         SYMBOL        zore
  C:78DCH         LINE#         170
  C:78DCH         LINE#         171
  C:78DCH         LINE#         172
  -------         ENDPROC       _SETANGXSYSZERO
  -------         PROC          _SETANGYSYSZERO
  D:0004H         SYMBOL        zore
  C:78E2H         LINE#         174
  C:78E2H         LINE#         175
  C:78E2H         LINE#         176
  -------         ENDPROC       _SETANGYSYSZERO
  -------         PROC          _SETANGXUSRZERO
  D:0004H         SYMBOL        zore
  C:78E8H         LINE#         179
  C:78E8H         LINE#         180
  C:78E8H         LINE#         181
  -------         ENDPROC       _SETANGXUSRZERO
  -------         PROC          _SETANGYUSRZERO
  D:0004H         SYMBOL        zore
  C:78EEH         LINE#         183
  C:78EEH         LINE#         184
  C:78EEH         LINE#         185
  -------         ENDPROC       _SETANGYUSRZERO
  -------         PROC          _SETANGXINST
BL51 BANKED LINKER/LOCATER V6.22                                                      06/13/2018  16:51:36  PAGE 32


  D:0004H         SYMBOL        ang_inst
  C:78F4H         LINE#         188
  C:78F4H         LINE#         189
  C:78F4H         LINE#         190
  -------         ENDPROC       _SETANGXINST
  -------         PROC          _SETANGYINST
  D:0004H         SYMBOL        ang_inst
  C:78FAH         LINE#         192
  C:78FAH         LINE#         193
  C:78FAH         LINE#         194
  -------         ENDPROC       _SETANGYINST
  -------         PROC          L?0028
  -------         ENDPROC       L?0028
  -------         PROC          _SETANGZERO
  D:0001H         SYMBOL        angval
  D:003EH         SYMBOL        setval
  C:71B8H         LINE#         206
  C:71C0H         LINE#         207
  C:71C0H         LINE#         208
  -------         ENDPROC       _SETANGZERO
  -------         PROC          _SETANGZEROADD
  D:0001H         SYMBOL        angval
  D:003EH         SYMBOL        setval
  C:7308H         LINE#         211
  C:7310H         LINE#         212
  C:7310H         LINE#         213
  -------         ENDPROC       _SETANGZEROADD
  -------         PROC          GETXANGALLSETVAL
  -------         DO            
  D:003AH         SYMBOL        tmp
  -------         ENDDO         
  C:68CDH         LINE#         222
  C:68CDH         LINE#         223
  C:68CDH         LINE#         225
  C:68D8H         LINE#         226
  C:68E2H         LINE#         227
  C:68F0H         LINE#         228
  C:68F9H         LINE#         229
  C:6907H         LINE#         230
  C:6910H         LINE#         231
  C:6918H         LINE#         233
  -------         ENDPROC       GETXANGALLSETVAL
  -------         PROC          GETYANGALLSETVAL
  -------         DO            
  D:003AH         SYMBOL        tmp
  -------         ENDDO         
  C:6919H         LINE#         241
  C:6919H         LINE#         242
  C:6919H         LINE#         244
  C:6924H         LINE#         245
  C:692EH         LINE#         246
  C:693CH         LINE#         247
  C:6945H         LINE#         248
  C:6953H         LINE#         249
  C:695CH         LINE#         250
  C:6964H         LINE#         251
  -------         ENDPROC       GETYANGALLSETVAL
BL51 BANKED LINKER/LOCATER V6.22                                                      06/13/2018  16:51:36  PAGE 33


  -------         ENDMOD        ANGAPP

  -------         MODULE        CALIBRATION
  C:0000H         SYMBOL        _ICE_DUMMY_
  C:7651H         SYMBOL        _Ang_WrAngVal
  C:7854H         PUBLIC        _SetAngCalCnt
  X:0000H         PUBLIC        SetMcuTincelsius
  C:784CH         PUBLIC        _SetTempCalCnt
  C:740DH         SYMBOL        _Temp_WrTempVal
  D:0090H         PUBLIC        P1
  X:0001H         PUBLIC        Ang_Xcal
  D:00A0H         PUBLIC        P2
  X:0167H         PUBLIC        Ang_Ycal
  X:02CDH         PUBLIC        Temp_Xcal
  X:03AAH         PUBLIC        Temp_Ycal
  C:77F2H         PUBLIC        AngXCalcPrm
  C:77FBH         PUBLIC        AngYCalcPrm
  C:77E0H         PUBLIC        TempXCalcPrm
  C:77E9H         PUBLIC        TempYCalcPrm
  C:36D6H         SYMBOL        _Ang_CalcPrm
  C:4067H         SYMBOL        _Temp_CalcPrm
  C:470DH         PUBLIC        AngCalDataInit
  C:624DH         PUBLIC        TempCalDataInit
  C:7906H         PUBLIC        GetAngXCalCnt
  C:790CH         PUBLIC        GetAngYCalCnt
  C:7900H         PUBLIC        GetTempXCalCnt
  C:76F9H         PUBLIC        _GetAngXCalAdcVal
  C:7711H         PUBLIC        _GetAngYCalAdcVal
  C:76EDH         PUBLIC        _GetTempXCalAdcVal
  X:0487H         PUBLIC        McuTAdcValWhileSet
  C:7705H         PUBLIC        _GetTempYCalAdcVal
  X:0489H         SYMBOL        temp_buf
  C:7764H         PUBLIC        _SetAngXCalCnt
  C:777AH         PUBLIC        _SetAngYCalCnt
  C:7759H         PUBLIC        _SetTempXCalCnt
  C:776FH         PUBLIC        _SetTempYCalCnt
  C:75D1H         SYMBOL        _Ang_RdAdcVal
  C:7942H         SYMBOL        _Ang_SetCalCnt
  C:75AFH         SYMBOL        _Temp_RdAdcVal
  C:793EH         SYMBOL        _Temp_SetCalCnt
  C:74EAH         PUBLIC        _SetAngXCalAdcVal
  C:7514H         PUBLIC        _SetAngYCalAdcVal
  C:74D5H         PUBLIC        _SetTempXCalAdcVal
  C:74FFH         PUBLIC        _SetTempYCalAdcVal
  C:76C9H         PUBLIC        _GetAngXCalAngVal
  C:76E1H         PUBLIC        _GetAngYCalAngVal
  C:76BDH         PUBLIC        _GetTempXCalTempVal
  C:76D5H         PUBLIC        _GetTempYCalTempVal
  C:7643H         SYMBOL        _Ang_RdAngVal
  C:73F6H         SYMBOL        _Temp_RdTempVal
  C:771DH         PUBLIC        _SetAngXCalAngVal
  C:7729H         PUBLIC        _SetAngYCalAngVal
  C:74ABH         PUBLIC        _SetTempXCalTempVal
  C:75E2H         SYMBOL        _Ang_WrAdcVal
  C:74C0H         PUBLIC        _SetTempYCalTempVal
  C:75C0H         SYMBOL        _Temp_WrAdcVal
  C:4CECH         PUBLIC        CalibInit
BL51 BANKED LINKER/LOCATER V6.22                                                      06/13/2018  16:51:36  PAGE 34


  -------         PROC          _TEMP_SETCALCNT
  D:0001H         SYMBOL        p_cal
  D:0005H         SYMBOL        num
  C:793EH         LINE#         32
  C:793EH         LINE#         33
  C:793EH         LINE#         34
  -------         ENDPROC       _TEMP_SETCALCNT
  -------         PROC          _TEMP_RDTEMPVAL
  D:0001H         SYMBOL        p_cal
  D:0005H         SYMBOL        posid
  C:73F6H         LINE#         44
  C:73F6H         LINE#         45
  C:73F6H         LINE#         46
  C:740CH         LINE#         47
  -------         ENDPROC       _TEMP_RDTEMPVAL
  -------         PROC          _TEMP_RDADCVAL
  D:0001H         SYMBOL        p_cal
  D:0005H         SYMBOL        posid
  C:75AFH         LINE#         56
  C:75AFH         LINE#         57
  C:75AFH         LINE#         58
  C:75BFH         LINE#         59
  -------         ENDPROC       _TEMP_RDADCVAL
  -------         PROC          _TEMP_WRTEMPVAL
  D:0001H         SYMBOL        p_cal
  D:0004H         SYMBOL        val
  D:002EH         SYMBOL        posid
  C:740DH         LINE#         68
  C:740DH         LINE#         69
  C:740DH         LINE#         70
  -------         ENDPROC       _TEMP_WRTEMPVAL
  -------         PROC          _TEMP_WRADCVAL
  D:0001H         SYMBOL        p_cal
  D:0004H         SYMBOL        val
  D:002EH         SYMBOL        posid
  C:75C0H         LINE#         80
  C:75C0H         LINE#         81
  C:75C0H         LINE#         82
  -------         ENDPROC       _TEMP_WRADCVAL
  -------         PROC          _TEMP_CALCPRM
  D:0031H         SYMBOL        p_cal
  -------         DO            
  D:0034H         SYMBOL        i
  -------         ENDDO         
  C:4067H         LINE#         92
  C:406DH         LINE#         93
  C:406DH         LINE#         95
  C:4084H         LINE#         96
  C:4084H         LINE#         97
  C:4113H         LINE#         98
  C:418DH         LINE#         99
  C:4192H         LINE#         100
  -------         ENDPROC       _TEMP_CALCPRM
  -------         PROC          _ANG_SETCALCNT
  D:0001H         SYMBOL        p_cal
  D:0005H         SYMBOL        num
  C:7942H         LINE#         109
BL51 BANKED LINKER/LOCATER V6.22                                                      06/13/2018  16:51:36  PAGE 35


  C:7942H         LINE#         110
  C:7942H         LINE#         111
  -------         ENDPROC       _ANG_SETCALCNT
  -------         PROC          _ANG_RDANGVAL
  D:0001H         SYMBOL        p_cal
  D:0005H         SYMBOL        posid
  C:7643H         LINE#         120
  C:7643H         LINE#         121
  C:7643H         LINE#         122
  C:7650H         LINE#         123
  -------         ENDPROC       _ANG_RDANGVAL
  -------         PROC          _ANG_RDADCVAL
  D:0001H         SYMBOL        p_cal
  D:0005H         SYMBOL        posid
  C:75D1H         LINE#         132
  C:75D1H         LINE#         133
  C:75D1H         LINE#         134
  C:75E1H         LINE#         135
  -------         ENDPROC       _ANG_RDADCVAL
  -------         PROC          _ANG_WRANGVAL
  D:0001H         SYMBOL        p_cal
  D:0004H         SYMBOL        val
  D:0045H         SYMBOL        posid
  C:7651H         LINE#         143
  C:7651H         LINE#         144
  C:7651H         LINE#         145
  -------         ENDPROC       _ANG_WRANGVAL
  -------         PROC          _ANG_WRADCVAL
  D:0001H         SYMBOL        p_cal
  D:0004H         SYMBOL        val
  D:003EH         SYMBOL        posid
  C:75E2H         LINE#         155
  C:75E2H         LINE#         156
  C:75E2H         LINE#         157
  -------         ENDPROC       _ANG_WRADCVAL
  -------         PROC          _ANG_CALCPRM
  D:0023H         SYMBOL        p_cal
  -------         DO            
  D:0026H         SYMBOL        ang0
  D:002AH         SYMBOL        ang1
  D:002EH         SYMBOL        i
  -------         ENDDO         
  C:36D6H         LINE#         167
  C:36DCH         LINE#         168
  C:36DCH         LINE#         173
  C:36F3H         LINE#         174
  C:36F3H         LINE#         175
  C:3723H         LINE#         176
  C:3759H         LINE#         177
  C:37E0H         LINE#         178
  C:384CH         LINE#         179
  C:3851H         LINE#         180
  -------         ENDPROC       _ANG_CALCPRM
  -------         PROC          GETTEMPXCALCNT
  C:7900H         LINE#         190
  C:7900H         LINE#         191
  C:7900H         LINE#         192
BL51 BANKED LINKER/LOCATER V6.22                                                      06/13/2018  16:51:36  PAGE 36


  C:7905H         LINE#         193
  -------         ENDPROC       GETTEMPXCALCNT
  -------         PROC          GETANGXCALCNT
  C:7906H         LINE#         197
  C:7906H         LINE#         198
  C:7906H         LINE#         199
  C:790BH         LINE#         200
  -------         ENDPROC       GETANGXCALCNT
  -------         PROC          GETANGYCALCNT
  C:790CH         LINE#         207
  C:790CH         LINE#         208
  C:790CH         LINE#         209
  C:7911H         LINE#         210
  -------         ENDPROC       GETANGYCALCNT
  -------         PROC          _SETTEMPXCALCNT
  D:0005H         SYMBOL        cnt
  C:7759H         LINE#         220
  C:775BH         LINE#         221
  C:775BH         LINE#         222
  -------         ENDPROC       _SETTEMPXCALCNT
  -------         PROC          _SETANGXCALCNT
  D:0005H         SYMBOL        cnt
  C:7764H         LINE#         225
  C:7766H         LINE#         226
  C:7766H         LINE#         227
  -------         ENDPROC       _SETANGXCALCNT
  -------         PROC          _SETTEMPYCALCNT
  D:0005H         SYMBOL        cnt
  C:776FH         LINE#         230
  C:7771H         LINE#         231
  C:7771H         LINE#         232
  -------         ENDPROC       _SETTEMPYCALCNT
  -------         PROC          _SETANGYCALCNT
  D:0005H         SYMBOL        cnt
  C:777AH         LINE#         235
  C:777CH         LINE#         236
  C:777CH         LINE#         237
  -------         ENDPROC       _SETANGYCALCNT
  -------         PROC          _SETTEMPCALCNT
  D:0006H         SYMBOL        cnt
  C:784CH         LINE#         240
  C:784EH         LINE#         241
  C:784EH         LINE#         242
  C:7851H         LINE#         243
  -------         ENDPROC       _SETTEMPCALCNT
  -------         PROC          _SETANGCALCNT
  D:0006H         SYMBOL        cnt
  C:7854H         LINE#         246
  C:7856H         LINE#         247
  C:7856H         LINE#         248
  C:7859H         LINE#         249
  -------         ENDPROC       _SETANGCALCNT
  -------         PROC          _GETTEMPXCALTEMPVAL
  D:0005H         SYMBOL        pos
  C:76BDH         LINE#         261
  C:76BFH         LINE#         262
  C:76BFH         LINE#         263
BL51 BANKED LINKER/LOCATER V6.22                                                      06/13/2018  16:51:36  PAGE 37


  C:76C8H         LINE#         264
  -------         ENDPROC       _GETTEMPXCALTEMPVAL
  -------         PROC          _GETANGXCALANGVAL
  D:0005H         SYMBOL        pos
  C:76C9H         LINE#         271
  C:76CBH         LINE#         272
  C:76CBH         LINE#         273
  C:76D4H         LINE#         274
  -------         ENDPROC       _GETANGXCALANGVAL
  -------         PROC          _GETTEMPYCALTEMPVAL
  D:0005H         SYMBOL        pos
  C:76D5H         LINE#         282
  C:76D7H         LINE#         283
  C:76D7H         LINE#         284
  C:76E0H         LINE#         285
  -------         ENDPROC       _GETTEMPYCALTEMPVAL
  -------         PROC          _GETANGYCALANGVAL
  D:0005H         SYMBOL        pos
  C:76E1H         LINE#         292
  C:76E3H         LINE#         293
  C:76E3H         LINE#         294
  C:76ECH         LINE#         295
  -------         ENDPROC       _GETANGYCALANGVAL
  -------         PROC          _GETTEMPXCALADCVAL
  D:0005H         SYMBOL        pos
  C:76EDH         LINE#         303
  C:76EFH         LINE#         304
  C:76EFH         LINE#         305
  C:76F8H         LINE#         306
  -------         ENDPROC       _GETTEMPXCALADCVAL
  -------         PROC          _GETANGXCALADCVAL
  D:0005H         SYMBOL        pos
  C:76F9H         LINE#         313
  C:76FBH         LINE#         314
  C:76FBH         LINE#         315
  C:7704H         LINE#         316
  -------         ENDPROC       _GETANGXCALADCVAL
  -------         PROC          _GETTEMPYCALADCVAL
  D:0005H         SYMBOL        pos
  C:7705H         LINE#         323
  C:7707H         LINE#         324
  C:7707H         LINE#         325
  C:7710H         LINE#         326
  -------         ENDPROC       _GETTEMPYCALADCVAL
  -------         PROC          _GETANGYCALADCVAL
  D:0005H         SYMBOL        pos
  C:7711H         LINE#         333
  C:7713H         LINE#         334
  C:7713H         LINE#         335
  C:771CH         LINE#         336
  -------         ENDPROC       _GETANGYCALADCVAL
  -------         PROC          _SETTEMPXCALTEMPVAL
  D:0082H         SYMBOL        val
  D:0007H         SYMBOL        pos
  C:74ABH         LINE#         348
  C:74B1H         LINE#         349
  C:74B1H         LINE#         350
BL51 BANKED LINKER/LOCATER V6.22                                                      06/13/2018  16:51:36  PAGE 38


  -------         ENDPROC       _SETTEMPXCALTEMPVAL
  -------         PROC          _SETANGXCALANGVAL
  D:0004H         SYMBOL        val
  D:003DH         SYMBOL        pos
  C:771DH         LINE#         358
  C:771DH         LINE#         359
  C:771DH         LINE#         360
  -------         ENDPROC       _SETANGXCALANGVAL
  -------         PROC          _SETTEMPYCALTEMPVAL
  D:0082H         SYMBOL        val
  D:0007H         SYMBOL        pos
  C:74C0H         LINE#         368
  C:74C6H         LINE#         369
  C:74C6H         LINE#         370
  -------         ENDPROC       _SETTEMPYCALTEMPVAL
  -------         PROC          _SETANGYCALANGVAL
  D:0004H         SYMBOL        val
  D:003DH         SYMBOL        pos
  C:7729H         LINE#         378
  C:7729H         LINE#         379
  C:7729H         LINE#         380
  -------         ENDPROC       _SETANGYCALANGVAL
  -------         PROC          _SETTEMPXCALADCVAL
  D:0082H         SYMBOL        val
  D:0007H         SYMBOL        pos
  C:74D5H         LINE#         389
  C:74DBH         LINE#         390
  C:74DBH         LINE#         391
  -------         ENDPROC       _SETTEMPXCALADCVAL
  -------         PROC          _SETANGXCALADCVAL
  D:0082H         SYMBOL        val
  D:0007H         SYMBOL        pos
  C:74EAH         LINE#         400
  C:74F0H         LINE#         401
  C:74F0H         LINE#         402
  -------         ENDPROC       _SETANGXCALADCVAL
  -------         PROC          _SETTEMPYCALADCVAL
  D:0082H         SYMBOL        val
  D:0007H         SYMBOL        pos
  C:74FFH         LINE#         410
  C:7505H         LINE#         411
  C:7505H         LINE#         412
  -------         ENDPROC       _SETTEMPYCALADCVAL
  -------         PROC          _SETANGYCALADCVAL
  D:0082H         SYMBOL        val
  D:0007H         SYMBOL        pos
  C:7514H         LINE#         420
  C:751AH         LINE#         421
  C:751AH         LINE#         422
  -------         ENDPROC       _SETANGYCALADCVAL
  -------         PROC          TEMPXCALCPRM
  C:77E0H         LINE#         429
  C:77E0H         LINE#         430
  C:77E0H         LINE#         431
  -------         ENDPROC       TEMPXCALCPRM
  -------         PROC          TEMPYCALCPRM
  C:77E9H         LINE#         436
BL51 BANKED LINKER/LOCATER V6.22                                                      06/13/2018  16:51:36  PAGE 39


  C:77E9H         LINE#         437
  C:77E9H         LINE#         438
  -------         ENDPROC       TEMPYCALCPRM
  -------         PROC          ANGXCALCPRM
  C:77F2H         LINE#         445
  C:77F2H         LINE#         446
  C:77F2H         LINE#         447
  -------         ENDPROC       ANGXCALCPRM
  -------         PROC          ANGYCALCPRM
  C:77FBH         LINE#         453
  C:77FBH         LINE#         454
  C:77FBH         LINE#         455
  -------         ENDPROC       ANGYCALCPRM
  -------         PROC          TEMPCALDATAINIT
  -------         DO            
  D:0022H         SYMBOL        i
  -------         ENDDO         
  C:624DH         LINE#         472
  C:624DH         LINE#         473
  C:624DH         LINE#         475
  C:6252H         LINE#         476
  C:6255H         LINE#         477
  C:6255H         LINE#         478
  C:627FH         LINE#         479
  C:6290H         LINE#         480
  C:62A1H         LINE#         481
  C:62A8H         LINE#         482
  C:62AEH         LINE#         483
  C:62B8H         LINE#         484
  -------         ENDPROC       TEMPCALDATAINIT
  -------         PROC          ANGCALDATAINIT
  -------         DO            
  D:0003H         SYMBOL        i
  -------         ENDDO         
  C:470DH         LINE#         493
  C:470DH         LINE#         494
  C:470DH         LINE#         496
  C:4712H         LINE#         497
  C:4714H         LINE#         498
  C:4714H         LINE#         499
  C:4733H         LINE#         500
  C:4755H         LINE#         502
  C:4770H         LINE#         503
  C:4792H         LINE#         504
  C:479BH         LINE#         506
  C:47A5H         LINE#         507
  C:47AFH         LINE#         508
  C:47B9H         LINE#         509
  C:47C3H         LINE#         510
  C:47CDH         LINE#         511
  C:47D7H         LINE#         513
  C:47E1H         LINE#         514
  C:47EBH         LINE#         515
  C:47F5H         LINE#         516
  C:47FFH         LINE#         517
  C:4809H         LINE#         518
  C:4813H         LINE#         520
BL51 BANKED LINKER/LOCATER V6.22                                                      06/13/2018  16:51:36  PAGE 40


  -------         ENDPROC       ANGCALDATAINIT
  -------         PROC          CALIBINIT
  C:4CECH         LINE#         530
  C:4CECH         LINE#         531
  C:4CECH         LINE#         532
  C:4CF8H         LINE#         533
  C:4D04H         LINE#         534
  C:4D0EH         LINE#         535
  C:4D18H         LINE#         536
  C:4D22H         LINE#         537
  C:4D2CH         LINE#         540
  C:4D38H         LINE#         541
  C:4D44H         LINE#         542
  C:4D4EH         LINE#         543
  C:4D58H         LINE#         544
  C:4D62H         LINE#         545
  C:4D6CH         LINE#         548
  C:4D76H         LINE#         549
  C:4D80H         LINE#         550
  C:4D8AH         LINE#         551
  C:4D94H         LINE#         552
  C:4D9EH         LINE#         555
  C:4DA8H         LINE#         556
  C:4DB2H         LINE#         557
  C:4DBCH         LINE#         558
  C:4DC6H         LINE#         559
  -------         ENDPROC       CALIBINIT
  -------         ENDMOD        CALIBRATION

  -------         MODULE        CMDSUB
  C:0000H         SYMBOL        _ICE_DUMMY_
  C:6026H         PUBLIC        TempSortAndCalcPrm
  D:0012H         PUBLIC        px_axis
  D:0090H         PUBLIC        P1
  D:0014H         SYMBOL        py_axis
  D:00A0H         PUBLIC        P2
  X:0C5FH         SYMBOL        temp_xcalref
  X:0C61H         SYMBOL        temp_ycalref
  C:638BH         PUBLIC        _Temp_CalSamp
  C:7615H         PUBLIC        _Mcut_Set
  C:4C04H         PUBLIC        _Temp_CalTRefSet
  X:0C63H         PUBLIC        SendSpeedNum
  C:7469H         PUBLIC        Temp_CalStop
  C:7567H         PUBLIC        Temp_CalSta
  X:0C64H         PUBLIC        SystemVer
  X:0C74H         PUBLIC        SendActPosi
  X:0C75H         PUBLIC        ACalXId
  X:0C76H         PUBLIC        ACalYId
  C:5DE5H         PUBLIC        _Temp_CalValWr
  C:59D2H         PUBLIC        Adc_XCalStop
  C:5A59H         PUBLIC        Adc_YCalStop
  -------         PROC          TEMPSORTANDCALCPRM
  C:6026H         LINE#         81
  C:6026H         LINE#         82
  C:6026H         LINE#         84
  C:6090H         LINE#         86
  C:6093H         LINE#         87
BL51 BANKED LINKER/LOCATER V6.22                                                      06/13/2018  16:51:36  PAGE 41


  -------         ENDPROC       TEMPSORTANDCALCPRM
  -------         PROC          _TEMP_CALVALWR
  D:0033H         SYMBOL        id
  D:0004H         SYMBOL        temp
  D:0036H         SYMBOL        x
  D:0038H         SYMBOL        y
  C:5DE5H         LINE#         97
  C:5DEBH         LINE#         98
  C:5DEBH         LINE#         99
  C:5DF5H         LINE#         100
  C:5E16H         LINE#         102
  C:5E37H         LINE#         103
  C:5E58H         LINE#         104
  C:5E5AH         LINE#         105
  -------         ENDPROC       _TEMP_CALVALWR
  -------         PROC          _MCUT_SET
  D:0007H         SYMBOL        setMcuT
  D:0004H         SYMBOL        adcT
  C:7615H         LINE#         107
  C:7615H         LINE#         108
  C:7615H         LINE#         109
  C:761AH         LINE#         110
  C:7622H         LINE#         111
  C:7624H         LINE#         112
  -------         ENDPROC       _MCUT_SET
  -------         PROC          TEMP_CALSTA
  C:7567H         LINE#         120
  C:7567H         LINE#         121
  C:7567H         LINE#         122
  C:7570H         LINE#         123
  C:7576H         LINE#         124
  C:7578H         LINE#         125
  -------         ENDPROC       TEMP_CALSTA
  -------         PROC          TEMP_CALSTOP
  C:7469H         LINE#         133
  C:7469H         LINE#         134
  C:7469H         LINE#         135
  C:7474H         LINE#         136
  C:7479H         LINE#         137
  C:747CH         LINE#         138
  C:747EH         LINE#         139
  -------         ENDPROC       TEMP_CALSTOP
  -------         PROC          _TEMP_CALSAMP
  D:0007H         SYMBOL        id
  D:002DH         SYMBOL        temp
  D:002FH         SYMBOL        x
  D:0031H         SYMBOL        y
  C:638BH         LINE#         141
  C:6393H         LINE#         142
  C:6393H         LINE#         143
  C:639BH         LINE#         144
  C:639EH         LINE#         146
  C:63A1H         LINE#         147
  C:63A1H         LINE#         148
  C:63ABH         LINE#         149
  C:63B3H         LINE#         150
  C:63B3H         LINE#         151
BL51 BANKED LINKER/LOCATER V6.22                                                      06/13/2018  16:51:36  PAGE 42


  C:63DDH         LINE#         152
  C:63DFH         LINE#         154
  C:63EEH         LINE#         155
  C:63F0H         LINE#         156
  -------         ENDPROC       _TEMP_CALSAMP
  -------         PROC          _TEMP_CALTREFSET
  D:002CH         SYMBOL        id
  -------         DO            
  D:0007H         SYMBOL        i
  D:002DH         SYMBOL        x
  D:002FH         SYMBOL        y
  -------         ENDDO         
  C:4C04H         LINE#         164
  C:4C06H         LINE#         165
  C:4C06H         LINE#         169
  C:4C22H         LINE#         170
  C:4C43H         LINE#         171
  C:4C64H         LINE#         173
  C:4C7DH         LINE#         174
  C:4C7DH         LINE#         175
  C:4CADH         LINE#         176
  C:4CDDH         LINE#         177
  C:4CE0H         LINE#         178
  C:4CE6H         LINE#         179
  C:4CE9H         LINE#         180
  C:4CEBH         LINE#         181
  -------         ENDPROC       _TEMP_CALTREFSET
  -------         PROC          ADC_XCALSTOP
  -------         DO            
  D:0022H         SYMBOL        n
  -------         ENDDO         
  C:59D2H         LINE#         228
  C:59D2H         LINE#         229
  C:59D2H         LINE#         230
  C:59E7H         LINE#         232
  C:59F2H         LINE#         233
  C:59FDH         LINE#         234
  C:5A02H         LINE#         235
  C:5A53H         LINE#         237
  C:5A56H         LINE#         238
  C:5A58H         LINE#         239
  -------         ENDPROC       ADC_XCALSTOP
  -------         PROC          ADC_YCALSTOP
  -------         DO            
  D:0022H         SYMBOL        n
  -------         ENDDO         
  C:5A59H         LINE#         276
  C:5A59H         LINE#         277
  C:5A59H         LINE#         278
  C:5A6EH         LINE#         280
  C:5A79H         LINE#         281
  C:5A84H         LINE#         282
  C:5A89H         LINE#         283
  C:5ADAH         LINE#         285
  C:5ADDH         LINE#         286
  C:5ADFH         LINE#         287
  -------         ENDPROC       ADC_YCALSTOP
BL51 BANKED LINKER/LOCATER V6.22                                                      06/13/2018  16:51:36  PAGE 43


  -------         ENDMOD        CMDSUB

  -------         MODULE        COMM
  C:0000H         SYMBOL        _ICE_DUMMY_
  D:0090H         PUBLIC        P1
  D:00A0H         PUBLIC        P2
  B:00A8H.7       PUBLIC        EA
  C:002EH         PUBLIC        Comm_TimerProc
  C:77B1H         PUBLIC        Comm_TimerInit
  D:00A7H         PUBLIC        SFRPAGE
  C:5543H         PUBLIC        _Comm_GetChar
  X:06B3H         SYMBOL        CommTimer
  D:00B8H         PUBLIC        IP
  C:5F43H         PUBLIC        Comm_Isr
  C:7946H         PUBLIC        Comm_SendStop
  C:7912H         PUBLIC        Comm_SendSta
  D:00ABH         PUBLIC        SBCON0
  B:0098H.7       PUBLIC        OVR0
  C:5830H         PUBLIC        _Comm_PutChar
  X:06B5H         PUBLIC        CommBuf
  C:71D7H         PUBLIC        Comm_HardwareInit
  X:0855H         PUBLIC        Commsetup
  B:00A8H.4       PUBLIC        ES0
  B:0098H.0       PUBLIC        RI0
  B:0098H.1       PUBLIC        TI0
  B:0020H.0       PUBLIC        CommRxFlag
  C:5688H         PUBLIC        Comm_SoftwareInit
  B:0020H.1       PUBLIC        CommTxFlag
  C:549EH         PUBLIC        _Comm_GetTxChar
  D:0099H         PUBLIC        SBUF0
  C:7264H         PUBLIC        _Comm_PutStr
  D:00ACH         PUBLIC        SBRL0
  D:00A9H         PUBLIC        SMOD0
  D:0098H         PUBLIC        SCON0
  C:5BEAH         PUBLIC        _Comm_PutRxChar
  -------         PROC          COMM_ISR
  -------         DO            
  D:006EH         SYMBOL        temp
  D:006FH         SYMBOL        err
  -------         ENDDO         
  C:5F43H         LINE#         29
  C:5F60H         LINE#         34
  C:5F63H         LINE#         35
  C:5F65H         LINE#         36
  C:5F70H         LINE#         37
  C:5F76H         LINE#         38
  C:5F79H         LINE#         40
  C:5F7BH         LINE#         41
  C:5F7DH         LINE#         43
  C:5F80H         LINE#         44
  C:5F82H         LINE#         45
  C:5F82H         LINE#         46
  C:5F82H         LINE#         48
  C:5F85H         LINE#         49
  C:5F87H         LINE#         50
  C:5F8AH         LINE#         52
  C:5F8DH         LINE#         54
BL51 BANKED LINKER/LOCATER V6.22                                                      06/13/2018  16:51:36  PAGE 44


  C:5F8DH         LINE#         55
  C:5F92H         LINE#         56
  C:5F95H         LINE#         58
  C:5F95H         LINE#         59
  C:5F95H         LINE#         61
  C:5F98H         LINE#         62
  C:5F9AH         LINE#         63
  C:5F9AH         LINE#         64
  -------         ENDPROC       COMM_ISR
  -------         PROC          COMM_HARDWAREINIT
  -------         DO            
  D:0007H         SYMBOL        SfrPage_
  -------         ENDDO         
  C:71D7H         LINE#         66
  C:71D7H         LINE#         67
  C:71D9H         LINE#         70
  C:71DCH         LINE#         71
  C:71DFH         LINE#         75
  C:71E5H         LINE#         76
  C:71E8H         LINE#         90
  C:71EBH         LINE#         91
  C:71EDH         LINE#         93
  C:71F0H         LINE#         94
  C:71F6H         LINE#         95
  C:71F8H         LINE#         96
  C:71FAH         LINE#         97
  -------         ENDPROC       COMM_HARDWAREINIT
  -------         PROC          COMM_SOFTWAREINIT
  -------         DO            
  D:0021H         SYMBOL        p_buf
  -------         ENDDO         
  C:5688H         LINE#         99
  C:5688H         LINE#         100
  C:5688H         LINE#         101
  C:5691H         LINE#         103
  C:569DH         LINE#         104
  C:56B8H         LINE#         105
  C:56D3H         LINE#         106
  C:56E2H         LINE#         107
  C:56FBH         LINE#         108
  C:5716H         LINE#         109
  -------         ENDPROC       COMM_SOFTWAREINIT
  -------         PROC          COMM_SENDSTA
  C:7912H         LINE#         130
  C:7912H         LINE#         131
  C:7912H         LINE#         132
  C:7915H         LINE#         133
  C:7917H         LINE#         134
  -------         ENDPROC       COMM_SENDSTA
  -------         PROC          COMM_SENDSTOP
  C:7946H         LINE#         136
  C:7946H         LINE#         137
  C:7946H         LINE#         138
  C:7949H         LINE#         139
  -------         ENDPROC       COMM_SENDSTOP
  -------         PROC          _COMM_GETTXCHAR
  D:0070H         SYMBOL        err
BL51 BANKED LINKER/LOCATER V6.22                                                      06/13/2018  16:51:36  PAGE 45


  -------         DO            
  D:0073H         SYMBOL        p_buf
  D:0007H         SYMBOL        c
  -------         ENDDO         
  C:549EH         LINE#         148
  C:54A4H         LINE#         149
  C:54B0H         LINE#         152
  C:54B2H         LINE#         153
  C:54C1H         LINE#         154
  C:54D1H         LINE#         155
  C:54DFH         LINE#         156
  C:550BH         LINE#         157
  C:5526H         LINE#         158
  C:5526H         LINE#         159
  C:5530H         LINE#         160
  C:5532H         LINE#         161
  C:5533H         LINE#         162
  C:5533H         LINE#         164
  C:553EH         LINE#         165
  C:5540H         LINE#         166
  C:5542H         LINE#         167
  C:5542H         LINE#         168
  -------         ENDPROC       _COMM_GETTXCHAR
  -------         PROC          _COMM_PUTCHAR
  D:0007H         SYMBOL        c
  -------         DO            
  D:003CH         SYMBOL        p_buf
  -------         ENDDO         
  C:5830H         LINE#         177
  C:5830H         LINE#         178
  C:583CH         LINE#         180
  C:583EH         LINE#         181
  C:584DH         LINE#         182
  C:585DH         LINE#         183
  C:586BH         LINE#         184
  C:5897H         LINE#         185
  C:58B2H         LINE#         186
  C:58B2H         LINE#         187
  C:58B4H         LINE#         188
  C:58B7H         LINE#         189
  C:58B7H         LINE#         191
  C:58B9H         LINE#         192
  C:58BBH         LINE#         193
  C:58BBH         LINE#         194
  -------         ENDPROC       _COMM_PUTCHAR
  -------         PROC          _COMM_PUTRXCHAR
  D:0007H         SYMBOL        c
  -------         DO            
  D:0070H         SYMBOL        p_buf
  -------         ENDDO         
  C:5BEAH         LINE#         207
  C:5BEAH         LINE#         208
  C:5BF6H         LINE#         210
  C:5BF8H         LINE#         211
  C:5C04H         LINE#         212
  C:5C11H         LINE#         213
  C:5C25H         LINE#         214
BL51 BANKED LINKER/LOCATER V6.22                                                      06/13/2018  16:51:36  PAGE 46


  C:5C50H         LINE#         215
  C:5C6BH         LINE#         216
  C:5C6BH         LINE#         217
  C:5C6BH         LINE#         218
  C:5C6DH         LINE#         219
  -------         ENDPROC       _COMM_PUTRXCHAR
  -------         PROC          _COMM_GETCHAR
  D:0021H         SYMBOL        err
  -------         DO            
  D:0024H         SYMBOL        p_buf
  D:0007H         SYMBOL        c
  -------         ENDDO         
  C:5543H         LINE#         227
  C:5549H         LINE#         228
  C:5555H         LINE#         231
  C:5557H         LINE#         232
  C:5563H         LINE#         233
  C:5570H         LINE#         234
  C:5584H         LINE#         235
  C:55AFH         LINE#         236
  C:55CAH         LINE#         237
  C:55CAH         LINE#         238
  C:55D4H         LINE#         239
  C:55D6H         LINE#         240
  C:55D7H         LINE#         241
  C:55D7H         LINE#         243
  C:55E2H         LINE#         244
  C:55E4H         LINE#         245
  C:55E6H         LINE#         246
  C:55E6H         LINE#         247
  -------         ENDPROC       _COMM_GETCHAR
  -------         PROC          _COMM_PUTSTR
  D:0039H         SYMBOL        ptr
  D:0005H         SYMBOL        n
  -------         DO            
  D:0006H         SYMBOL        i
  -------         ENDDO         
  C:7264H         LINE#         250
  C:726AH         LINE#         251
  C:726AH         LINE#         253
  C:7271H         LINE#         254
  C:7281H         LINE#         255
  C:7284H         LINE#         256
  -------         ENDPROC       _COMM_PUTSTR
  -------         PROC          COMM_TIMERINIT
  C:77B1H         LINE#         264
  C:77B1H         LINE#         265
  C:77B1H         LINE#         266
  C:77BAH         LINE#         267
  -------         ENDPROC       COMM_TIMERINIT
  -------         PROC          COMM_TIMERPROC
  C:002EH         LINE#         269
  C:002EH         LINE#         270
  C:002EH         LINE#         271
  C:003DH         LINE#         272
  C:003DH         LINE#         273
  C:0048H         LINE#         274
BL51 BANKED LINKER/LOCATER V6.22                                                      06/13/2018  16:51:36  PAGE 47


  C:004AH         LINE#         275
  C:004AH         LINE#         276
  -------         ENDPROC       COMM_TIMERPROC
  -------         ENDMOD        COMM

  -------         MODULE        DELAY
  C:0000H         SYMBOL        _ICE_DUMMY_
  D:0090H         PUBLIC        P1
  D:00A0H         PUBLIC        P2
  C:77BBH         PUBLIC        delay_ms_
  C:7424H         PUBLIC        _delay_ms
  C:7625H         PUBLIC        delay_100us
  -------         PROC          DELAY_100US
  -------         DO            
  D:0006H         SYMBOL        i
  -------         ENDDO         
  C:7625H         LINE#         25
  C:7625H         LINE#         26
  C:7625H         LINE#         29
  C:7633H         LINE#         30
  -------         ENDPROC       DELAY_100US
  -------         PROC          DELAY_MS_
  -------         DO            
  D:0005H         SYMBOL        i
  -------         ENDDO         
  C:77BBH         LINE#         32
  C:77BBH         LINE#         33
  C:77BBH         LINE#         36
  C:77BDH         LINE#         37
  C:77C0H         LINE#         38
  C:77C4H         LINE#         39
  -------         ENDPROC       DELAY_MS_
  -------         PROC          _DELAY_MS
  D:0002H         SYMBOL        n
  -------         DO            
  D:0082H         SYMBOL        i
  -------         ENDDO         
  C:7424H         LINE#         41
  C:7428H         LINE#         42
  C:7428H         LINE#         45
  C:7434H         LINE#         46
  C:7437H         LINE#         47
  C:743AH         LINE#         48
  -------         ENDPROC       _DELAY_MS
  -------         ENDMOD        DELAY

  -------         MODULE        FILTER
  C:0000H         SYMBOL        _ICE_DUMMY_
  C:4EB0H         PUBLIC        _SlideWinFilter
  C:71FBH         PUBLIC        _ValInRange
  C:6519H         PUBLIC        _Filter_1st
  -------         PROC          _VALINRANGE
  D:0006H         SYMBOL        old_val
  D:0004H         SYMBOL        new_val
  D:0002H         SYMBOL        range
  C:71FBH         LINE#         26
  C:71FBH         LINE#         27
BL51 BANKED LINKER/LOCATER V6.22                                                      06/13/2018  16:51:36  PAGE 48


  C:71FBH         LINE#         28
  C:7219H         LINE#         29
  C:721CH         LINE#         31
  C:721EH         LINE#         32
  -------         ENDPROC       _VALINRANGE
  -------         PROC          _SLIDEWINFILTER
  D:005CH         SYMBOL        pbufpos
  D:005FH         SYMBOL        pbufcnt
  D:0062H         SYMBOL        pbuf
  D:0065H         SYMBOL        val
  D:0067H         SYMBOL        ftcnt
  -------         DO            
  D:0069H         SYMBOL        data_ram
  D:006DH         SYMBOL        i
  -------         ENDDO         
  C:4EB0H         LINE#         41
  C:4EB6H         LINE#         42
  C:4EB6H         LINE#         43
  C:4EBFH         LINE#         45
  C:4ECDH         LINE#         46
  C:4ECDH         LINE#         47
  C:4ED1H         LINE#         48
  C:4ED1H         LINE#         50
  C:4EFDH         LINE#         51
  C:4F08H         LINE#         54
  C:4F19H         LINE#         55
  C:4F19H         LINE#         56
  C:4F1EH         LINE#         57
  C:4F23H         LINE#         58
  C:4F23H         LINE#         60
  C:4F23H         LINE#         61
  C:4F30H         LINE#         62
  C:4F30H         LINE#         63
  C:4F60H         LINE#         64
  C:4F64H         LINE#         65
  C:4F8AH         LINE#         66
  C:4F8AH         LINE#         67
  C:4F8AH         LINE#         68
  -------         ENDPROC       _SLIDEWINFILTER
  -------         PROC          _FILTER_1ST
  D:0027H         SYMBOL        old_val
  D:002BH         SYMBOL        new_val
  D:002DH         SYMBOL        filtercnt
  C:6519H         LINE#         77
  C:6521H         LINE#         78
  C:6521H         LINE#         79
  C:6575H         LINE#         80
  -------         ENDPROC       _FILTER_1ST
  -------         ENDMOD        FILTER

  -------         MODULE        FLASH
  C:0000H         SYMBOL        _ICE_DUMMY_
  D:0090H         PUBLIC        P1
  D:00A0H         PUBLIC        P2
  B:00A8H.7       PUBLIC        EA
  D:008FH         PUBLIC        PSCTL
  C:765FH         SYMBOL        FlashChk
BL51 BANKED LINKER/LOCATER V6.22                                                      06/13/2018  16:51:36  PAGE 49


  D:00A7H         PUBLIC        SFRPAGE
  C:6693H         SYMBOL        _Flash_BufRd
  C:7804H         SYMBOL        Ram_CalDataInit
  C:6FB5H         SYMBOL        Ram_CalDataInit_User
  D:00FFH         PUBLIC        VDM0CN
  X:04B3H         PUBLIC        DispBuf
  C:63F1H         SYMBOL        _Flash_BufWr
  C:70F2H         SYMBOL        _Flash_PageErase
  C:6576H         PUBLIC        Flash_CalDataUpdate
  C:6890H         SYMBOL        _Flash_CalDataUpdate_User
  C:73C6H         PUBLIC        Flash_UserDataUpdate
  C:6F83H         SYMBOL        _FlashUpdate
  C:2800H         SYMBOL        _Ram_Buf2CalData
  C:23CBH         SYMBOL        _Ram_CalData2Buf
  D:00EFH         PUBLIC        RSTSRC
  D:00ACH         PUBLIC        SBRL0
  C:6E4FH         SYMBOL        _Flash_CheckSum
  C:66DAH         SYMBOL        FlashArea_User
  C:6B1AH         PUBLIC        Flash_CompDataInit
  C:4605H         PUBLIC        Flash_CalDataInit
  D:00B7H         PUBLIC        FLKEY
  -------         PROC          FLASH_CALDATAINIT
  -------         DO            
  D:0021H         SYMBOL        SfrPage_
  -------         ENDDO         
  C:4605H         LINE#         40
  C:4605H         LINE#         41
  C:4605H         LINE#         42
  C:4608H         LINE#         43
  C:461BH         LINE#         44
  C:4623H         LINE#         45
  C:4623H         LINE#         46
  C:4626H         LINE#         47
  C:4629H         LINE#         48
  C:462CH         LINE#         50
  C:462CH         LINE#         51
  C:4631H         LINE#         52
  C:4634H         LINE#         53
  C:4644H         LINE#         54
  C:4644H         LINE#         55
  C:4647H         LINE#         56
  C:4649H         LINE#         58
  C:4649H         LINE#         59
  C:465CH         LINE#         60
  C:466CH         LINE#         61
  C:466CH         LINE#         62
  C:466FH         LINE#         63
  C:4674H         LINE#         64
  C:4685H         LINE#         65
  C:4687H         LINE#         67
  C:4687H         LINE#         68
  C:468AH         LINE#         69
  C:468FH         LINE#         70
  C:468FH         LINE#         71
  C:468FH         LINE#         73
  C:468FH         LINE#         74
  C:4692H         LINE#         76
BL51 BANKED LINKER/LOCATER V6.22                                                      06/13/2018  16:51:36  PAGE 50


  C:469AH         LINE#         77
  C:46A2H         LINE#         79
  C:46A8H         LINE#         80
  C:46ABH         LINE#         82
  C:46B1H         LINE#         83
  C:46B4H         LINE#         85
  C:46BAH         LINE#         86
  C:46BDH         LINE#         88
  C:46C0H         LINE#         89
  C:46DBH         LINE#         91
  C:46DEH         LINE#         93
  C:4709H         LINE#         94
  C:470CH         LINE#         95
  -------         ENDPROC       FLASH_CALDATAINIT
  -------         PROC          FLASH_COMPDATAINIT
  -------         DO            
  D:0022H         SYMBOL        SfrPage_
  -------         ENDDO         
  C:6B1AH         LINE#         106
  C:6B1AH         LINE#         107
  C:6B1AH         LINE#         108
  C:6B1DH         LINE#         109
  C:6B30H         LINE#         110
  C:6B38H         LINE#         111
  C:6B38H         LINE#         112
  C:6B3BH         LINE#         113
  C:6B40H         LINE#         114
  C:6B53H         LINE#         115
  C:6B55H         LINE#         117
  C:6B55H         LINE#         118
  C:6B5AH         LINE#         119
  C:6B5AH         LINE#         120
  C:6B5DH         LINE#         121
  -------         ENDPROC       FLASH_COMPDATAINIT
  -------         PROC          FLASH_CALDATAUPDATE
  C:6576H         LINE#         129
  C:6576H         LINE#         130
  C:6576H         LINE#         131
  C:657BH         LINE#         132
  C:658EH         LINE#         133
  C:6593H         LINE#         134
  C:65A6H         LINE#         135
  C:65B9H         LINE#         136
  C:65BEH         LINE#         137
  -------         ENDPROC       FLASH_CALDATAUPDATE
  -------         PROC          FLASH_USERDATAUPDATE
  C:73C6H         LINE#         140
  C:73C6H         LINE#         141
  C:73C6H         LINE#         143
  C:73C9H         LINE#         144
  -------         ENDPROC       FLASH_USERDATAUPDATE
  -------         PROC          _FLASHUPDATE
  D:0042H         SYMBOL        addr
  D:0044H         SYMBOL        buf
  D:0047H         SYMBOL        n
  -------         DO            
  B:0020H.2       SYMBOL        ea_temp
BL51 BANKED LINKER/LOCATER V6.22                                                      06/13/2018  16:51:36  PAGE 51


  -------         ENDDO         
  C:6F83H         LINE#         148
  C:6F8DH         LINE#         149
  C:6F8DH         LINE#         150
  C:6F91H         LINE#         151
  C:6F93H         LINE#         153
  C:6F96H         LINE#         154
  C:6F9DH         LINE#         155
  C:6FB0H         LINE#         157
  C:6FB4H         LINE#         158
  -------         ENDPROC       _FLASHUPDATE
  C:688CH         SYMBOL        L?0103
  -------         PROC          L?0102
  -------         ENDPROC       L?0102
  C:688CH         SYMBOL        L?0103
  -------         PROC          _FLASH_CALDATAUPDATE_USER
  D:0039H         SYMBOL        page
  D:003AH         SYMBOL        addr
  D:003CH         SYMBOL        buf
  D:003FH         SYMBOL        n
  -------         DO            
  D:0041H         SYMBOL        sum
  D:0082H         SYMBOL        pread
  -------         ENDDO         
  C:6890H         LINE#         167
  C:689CH         LINE#         168
  C:689CH         LINE#         172
  C:68A8H         LINE#         174
  C:68ACH         LINE#         175
  C:68B1H         LINE#         177
  C:68B9H         LINE#         178
  C:68CCH         LINE#         179
  -------         ENDPROC       _FLASH_CALDATAUPDATE_USER
  -------         PROC          RAM_CALDATAINIT
  C:7804H         LINE#         187
  C:7804H         LINE#         188
  C:7804H         LINE#         189
  C:7807H         LINE#         190
  C:780AH         LINE#         191
  -------         ENDPROC       RAM_CALDATAINIT
  -------         PROC          _RAM_CALDATA2BUF
  D:0042H         SYMBOL        page
  -------         DO            
  D:0043H         SYMBOL        i
  D:0044H         SYMBOL        j
  D:0046H         SYMBOL        k
  -------         ENDDO         
  C:23CBH         LINE#         195
  C:23CDH         LINE#         196
  C:23CDH         LINE#         199
  C:23D6H         LINE#         200
  C:23D6H         LINE#         201
  C:23D8H         LINE#         202
  C:23D8H         LINE#         204
  C:23EBH         LINE#         205
  C:23FEH         LINE#         206
  C:2413H         LINE#         207
BL51 BANKED LINKER/LOCATER V6.22                                                      06/13/2018  16:51:36  PAGE 52


  C:2428H         LINE#         209
  C:2431H         LINE#         210
  C:2437H         LINE#         211
  C:243AH         LINE#         212
  C:243AH         LINE#         213
  C:245EH         LINE#         214
  C:2465H         LINE#         216
  C:2470H         LINE#         217
  C:2473H         LINE#         218
  C:2473H         LINE#         220
  C:2499H         LINE#         221
  C:24BFH         LINE#         222
  C:24E5H         LINE#         223
  C:24EEH         LINE#         224
  C:24F9H         LINE#         225
  C:250AH         LINE#         226
  C:251BH         LINE#         227
  C:2534H         LINE#         230
  C:2546H         LINE#         231
  C:2558H         LINE#         232
  C:256BH         LINE#         234
  C:257CH         LINE#         235
  C:257FH         LINE#         236
  C:257FH         LINE#         237
  C:25A5H         LINE#         238
  C:25CBH         LINE#         239
  C:25D4H         LINE#         241
  C:25DFH         LINE#         252
  C:25E6H         LINE#         253
  C:25E6H         LINE#         254
  C:25F4H         LINE#         255
  C:25FEH         LINE#         257
  C:25FEH         LINE#         258
  C:25FEH         LINE#         259
  C:2601H         LINE#         260
  C:260AH         LINE#         261
  C:260AH         LINE#         262
  C:2612H         LINE#         263
  C:261AH         LINE#         264
  C:2622H         LINE#         265
  C:262AH         LINE#         266
  C:2639H         LINE#         269
  C:263FH         LINE#         271
  C:2651H         LINE#         272
  C:2663H         LINE#         274
  C:2675H         LINE#         275
  C:2687H         LINE#         277
  C:2699H         LINE#         278
  C:26ABH         LINE#         279
  C:26BDH         LINE#         280
  C:26D5H         LINE#         283
  C:26DBH         LINE#         284
  C:26EEH         LINE#         285
  C:2701H         LINE#         286
  C:2714H         LINE#         287
  C:272EH         LINE#         290
  C:2739H         LINE#         291
BL51 BANKED LINKER/LOCATER V6.22                                                      06/13/2018  16:51:36  PAGE 53


  C:2740H         LINE#         292
  C:2740H         LINE#         293
  C:274EH         LINE#         294
  C:2758H         LINE#         297
  C:2758H         LINE#         298
  C:2758H         LINE#         299
  C:275BH         LINE#         300
  C:2764H         LINE#         301
  C:2764H         LINE#         302
  C:2773H         LINE#         303
  C:2782H         LINE#         304
  C:2791H         LINE#         305
  C:27A0H         LINE#         306
  C:27AFH         LINE#         307
  C:27BEH         LINE#         308
  C:27CDH         LINE#         310
  C:27D3H         LINE#         312
  C:27D3H         LINE#         313
  C:27D3H         LINE#         314
  C:27E1H         LINE#         315
  C:27F1H         LINE#         317
  C:27F7H         LINE#         318
  C:27FFH         LINE#         320
  C:27FFH         LINE#         321
  -------         ENDPROC       _RAM_CALDATA2BUF
  -------         PROC          _RAM_BUF2CALDATA
  D:0023H         SYMBOL        page
  -------         DO            
  D:0024H         SYMBOL        i
  D:0025H         SYMBOL        j
  D:0027H         SYMBOL        k
  -------         ENDDO         
  C:2800H         LINE#         327
  C:2802H         LINE#         328
  C:2802H         LINE#         331
  C:280BH         LINE#         332
  C:280BH         LINE#         333
  C:280DH         LINE#         334
  C:280DH         LINE#         341
  C:2821H         LINE#         342
  C:2835H         LINE#         343
  C:284AH         LINE#         344
  C:285FH         LINE#         346
  C:2868H         LINE#         347
  C:286EH         LINE#         348
  C:2871H         LINE#         349
  C:2871H         LINE#         350
  C:2895H         LINE#         351
  C:289CH         LINE#         354
  C:28A7H         LINE#         355
  C:28AAH         LINE#         356
  C:28AAH         LINE#         357
  C:28D0H         LINE#         358
  C:28F6H         LINE#         359
  C:291CH         LINE#         361
  C:2925H         LINE#         362
  C:2930H         LINE#         363
BL51 BANKED LINKER/LOCATER V6.22                                                      06/13/2018  16:51:36  PAGE 54


  C:2941H         LINE#         364
  C:2952H         LINE#         365
  C:296AH         LINE#         367
  C:297CH         LINE#         368
  C:298EH         LINE#         369
  C:299FH         LINE#         371
  C:29B0H         LINE#         372
  C:29B3H         LINE#         373
  C:29B3H         LINE#         374
  C:29D9H         LINE#         375
  C:29FFH         LINE#         376
  C:2A08H         LINE#         378
  C:2A13H         LINE#         387
  C:2A14H         LINE#         388
  C:2A1DH         LINE#         389
  C:2A1DH         LINE#         390
  C:2A25H         LINE#         391
  C:2A2DH         LINE#         392
  C:2A35H         LINE#         393
  C:2A3DH         LINE#         394
  C:2A4CH         LINE#         397
  C:2A52H         LINE#         399
  C:2A64H         LINE#         400
  C:2A76H         LINE#         402
  C:2A88H         LINE#         403
  C:2A9AH         LINE#         408
  C:2AAEH         LINE#         410
  C:2AB4H         LINE#         412
  C:2AC5H         LINE#         413
  C:2AD6H         LINE#         414
  C:2AE7H         LINE#         415
  C:2AFAH         LINE#         417
  C:2AFCH         LINE#         418
  C:2B02H         LINE#         419
  C:2B02H         LINE#         420
  C:2B11H         LINE#         421
  C:2B20H         LINE#         422
  C:2B2FH         LINE#         423
  C:2B3EH         LINE#         424
  C:2B4DH         LINE#         425
  C:2B5CH         LINE#         426
  C:2B6BH         LINE#         427
  C:2B6BH         LINE#         429
  -------         ENDPROC       _RAM_BUF2CALDATA
  C:6E45H         SYMBOL        L?0101
  -------         PROC          L?0100
  -------         ENDPROC       L?0100
  C:6E45H         SYMBOL        L?0101
  -------         PROC          _FLASH_CHECKSUM
  D:0001H         SYMBOL        addr
  D:0048H         SYMBOL        n
  -------         DO            
  D:004AH         SYMBOL        pread
  D:0004H         SYMBOL        i
  D:0007H         SYMBOL        sum
  -------         ENDDO         
  C:6E4FH         LINE#         433
BL51 BANKED LINKER/LOCATER V6.22                                                      06/13/2018  16:51:36  PAGE 55


  C:6E53H         LINE#         434
  C:6E53H         LINE#         436
  C:6E55H         LINE#         437
  C:6E5BH         LINE#         438
  C:6E66H         LINE#         439
  C:6E66H         LINE#         440
  C:6E74H         LINE#         441
  C:6E7BH         LINE#         442
  C:6E7BH         LINE#         443
  -------         ENDPROC       _FLASH_CHECKSUM
  -------         PROC          _FLASH_PAGEERASE
  D:0006H         SYMBOL        addr
  -------         DO            
  D:0082H         SYMBOL        pwrite
  B:0020H.3       SYMBOL        ea_temp
  -------         ENDDO         
  C:70F2H         LINE#         452
  C:70F2H         LINE#         453
  C:70F2H         LINE#         454
  C:70F6H         LINE#         457
  C:70FAH         LINE#         458
  C:70FCH         LINE#         459
  C:70FFH         LINE#         460
  C:7102H         LINE#         461
  C:7105H         LINE#         462
  C:7108H         LINE#         463
  C:710BH         LINE#         464
  C:710EH         LINE#         465
  C:7111H         LINE#         466
  C:7113H         LINE#         467
  C:7116H         LINE#         468
  C:711AH         LINE#         469
  -------         ENDPROC       _FLASH_PAGEERASE
  -------         PROC          _FLASH_BUFWR
  D:0006H         SYMBOL        addr
  D:004BH         SYMBOL        buf
  D:004EH         SYMBOL        n
  -------         DO            
  D:0050H         SYMBOL        pwrite
  B:0020H.3       SYMBOL        ea_temp
  D:0052H         SYMBOL        i
  -------         ENDDO         
  C:63F1H         LINE#         478
  C:63F7H         LINE#         479
  C:63F7H         LINE#         480
  C:63FBH         LINE#         484
  C:63FFH         LINE#         485
  C:6401H         LINE#         486
  C:6411H         LINE#         487
  C:6414H         LINE#         488
  C:6417H         LINE#         489
  C:641AH         LINE#         490
  C:641DH         LINE#         491
  C:6420H         LINE#         492
  C:6423H         LINE#         493
  C:6426H         LINE#         494
  C:6444H         LINE#         495
BL51 BANKED LINKER/LOCATER V6.22                                                      06/13/2018  16:51:36  PAGE 56


  C:6447H         LINE#         496
  C:6451H         LINE#         497
  C:6455H         LINE#         498
  -------         ENDPROC       _FLASH_BUFWR
  C:6683H         SYMBOL        L?0099
  -------         PROC          L?0098
  -------         ENDPROC       L?0098
  C:6683H         SYMBOL        L?0099
  -------         PROC          _FLASH_BUFRD
  D:0006H         SYMBOL        addr
  D:0025H         SYMBOL        buf
  D:0028H         SYMBOL        n
  -------         DO            
  D:002AH         SYMBOL        pread
  B:0020H.2       SYMBOL        ea_temp
  D:0006H         SYMBOL        i
  -------         ENDDO         
  C:6693H         LINE#         507
  C:6699H         LINE#         508
  C:6699H         LINE#         509
  C:669DH         LINE#         512
  C:66A1H         LINE#         513
  C:66A3H         LINE#         514
  C:66AFH         LINE#         515
  C:66AFH         LINE#         516
  C:66CEH         LINE#         517
  C:66D5H         LINE#         518
  C:66D9H         LINE#         519
  -------         ENDPROC       _FLASH_BUFRD
  -------         PROC          FLASHCHK
  -------         DO            
  D:0007H         SYMBOL        temp
  -------         ENDDO         
  C:765FH         LINE#         528
  C:765FH         LINE#         529
  C:765FH         LINE#         530
  C:7664H         LINE#         531
  C:766AH         LINE#         533
  C:766CH         LINE#         534
  -------         ENDPROC       FLASHCHK
  -------         PROC          FLASHAREA_USER
  C:66DAH         LINE#         543
  C:66DAH         LINE#         544
  C:66DAH         LINE#         545
  C:66EDH         LINE#         546
  C:66FDH         LINE#         547
  C:66FDH         LINE#         548
  C:6700H         LINE#         549
  C:6703H         LINE#         550
  C:6713H         LINE#         551
  C:6715H         LINE#         553
  C:6715H         LINE#         554
  C:671AH         LINE#         555
  C:672FH         LINE#         557
  C:672FH         LINE#         559
  -------         ENDPROC       FLASHAREA_USER
  -------         PROC          RAM_CALDATAINIT_USER
BL51 BANKED LINKER/LOCATER V6.22                                                      06/13/2018  16:51:36  PAGE 57


  C:6FB5H         LINE#         570
  C:6FB5H         LINE#         571
  C:6FB5H         LINE#         573
  C:6FC0H         LINE#         574
  C:6FCBH         LINE#         578
  C:6FD6H         LINE#         579
  C:6FE1H         LINE#         580
  -------         ENDPROC       RAM_CALDATAINIT_USER
  -------         ENDMOD        FLASH

  -------         MODULE        INIT
  C:0000H         SYMBOL        _ICE_DUMMY_
  D:0090H         PUBLIC        P1
  D:00A0H         PUBLIC        P2
  C:682EH         PUBLIC        Init_SystemPara
  D:00A7H         PUBLIC        SFRPAGE
  D:00A4H         PUBLIC        P0MDOUT
  D:00A5H         PUBLIC        P1MDOUT
  D:00A6H         PUBLIC        P2MDOUT
  C:7285H         PUBLIC        Init_All
  X:0C9BH         PUBLIC        ModuleNum
  D:00E1H         PUBLIC        XBR0
  D:00C7H         PUBLIC        XBR2
  D:00FFH         PUBLIC        VDM0CN
  D:00F1H         PUBLIC        P0MDIN
  D:00F3H         PUBLIC        P2MDIN
  D:00D4H         PUBLIC        P0SKIP
  D:00D6H         PUBLIC        P2SKIP
  D:008FH         PUBLIC        CLKSEL
  D:00A1H         PUBLIC        OSCICN
  C:7394H         SYMBOL        Sys_ClkInit
  C:7143H         PUBLIC        Sys_PortInit
  D:00EFH         PUBLIC        RSTSRC
  -------         PROC          INIT_SYSTEMPARA
  C:682EH         LINE#         26
  C:682EH         LINE#         27
  C:682EH         LINE#         28
  C:6834H         LINE#         29
  C:6838H         LINE#         30
  C:6850H         LINE#         32
  C:685AH         LINE#         33
  C:6860H         LINE#         34
  C:6865H         LINE#         35
  C:686AH         LINE#         37
  C:6872H         LINE#         38
  C:6877H         LINE#         40
  C:687DH         LINE#         43
  -------         ENDPROC       INIT_SYSTEMPARA
  -------         PROC          SYS_CLKINIT
  -------         DO            
  D:0007H         SYMBOL        SfrPage_
  -------         ENDDO         
  C:7394H         LINE#         45
  C:7394H         LINE#         46
  C:7396H         LINE#         48
  C:7399H         LINE#         50
  C:739CH         LINE#         54
BL51 BANKED LINKER/LOCATER V6.22                                                      06/13/2018  16:51:36  PAGE 58


  C:739FH         LINE#         55
  C:73A4H         LINE#         56
  C:73A7H         LINE#         57
  C:73AAH         LINE#         59
  C:73ACH         LINE#         60
  -------         ENDPROC       SYS_CLKINIT
  -------         PROC          SYS_PORTINIT
  -------         DO            
  D:0007H         SYMBOL        SfrPage_
  -------         ENDDO         
  C:7143H         LINE#         62
  C:7143H         LINE#         63
  C:7143H         LINE#         64
  C:7145H         LINE#         65
  C:7148H         LINE#         66
  C:714BH         LINE#         67
  C:714EH         LINE#         68
  C:7151H         LINE#         69
  C:7154H         LINE#         70
  C:7157H         LINE#         71
  C:715AH         LINE#         73
  C:715DH         LINE#         74
  C:7160H         LINE#         75
  C:7163H         LINE#         76
  C:7166H         LINE#         77
  C:7168H         LINE#         78
  -------         ENDPROC       SYS_PORTINIT
  -------         PROC          INIT_ALL
  C:7285H         LINE#         80
  C:7285H         LINE#         81
  C:7285H         LINE#         82
  C:7288H         LINE#         83
  C:728BH         LINE#         85
  C:728EH         LINE#         86
  C:7291H         LINE#         88
  C:7294H         LINE#         89
  C:7297H         LINE#         90
  C:729AH         LINE#         91
  C:729DH         LINE#         92
  C:72A0H         LINE#         93
  C:72A3H         LINE#         94
  -------         ENDPROC       INIT_ALL
  -------         ENDMOD        INIT

  -------         MODULE        KEY
  C:0000H         SYMBOL        _ICE_DUMMY_
  D:0090H         PUBLIC        P1
  D:00A0H         PUBLIC        P2
  X:0CA7H         PUBLIC        KeyEnb
  -------         ENDMOD        KEY

  -------         MODULE        MAIN
  C:0000H         SYMBOL        _ICE_DUMMY_
  X:0C27H         PUBLIC        YMin
  C:78C7H         PUBLIC        Main_Temp
  X:0C29H         PUBLIC        XMax
  X:0C2BH         PUBLIC        YMax
BL51 BANKED LINKER/LOCATER V6.22                                                      06/13/2018  16:51:36  PAGE 59


  D:0090H         PUBLIC        P1
  D:00A0H         PUBLIC        P2
  B:00A8H.7       PUBLIC        EA
  B:00A0H.5       PUBLIC        LED_S
  D:00A7H         PUBLIC        SFRPAGE
  B:00A0H.7       PUBLIC        LED_X
  X:0C2DH         PUBLIC        XAtYMin
  B:00A0H.6       PUBLIC        LED_Y
  X:0C2FH         PUBLIC        XAtYMax
  D:00D9H         PUBLIC        PCA0MD
  C:6CE2H         PUBLIC        main
  X:0C31H         PUBLIC        AlarmHighLow
  X:0C33H         PUBLIC        CompVal
  X:0C35H         PUBLIC        CompCalTag
  X:0C36H         PUBLIC        MenuId
  X:0C37H         PUBLIC        SysPowOnTag
  X:0C38H         PUBLIC        TempA
  X:0C3AH         PUBLIC        TxBuf
  X:0C3FH         PUBLIC        CompOffset
  X:0C41H         PUBLIC        XMin
  -------         PROC          MAIN_TEMP
  C:78C7H         LINE#         27
  C:78C7H         LINE#         28
  C:78C7H         LINE#         29
  C:78C9H         LINE#         30
  C:78CBH         LINE#         31
  C:78CDH         LINE#         32
  -------         ENDPROC       MAIN_TEMP
  -------         PROC          MAIN
  C:6CE2H         LINE#         34
  C:6CE2H         LINE#         35
  C:6CE2H         LINE#         37
  C:6CE5H         LINE#         38
  C:6CE8H         LINE#         39
  C:6CEBH         LINE#         40
  C:6CEDH         LINE#         41
  C:6CF0H         LINE#         43
  C:6CF5H         LINE#         44
  C:6CF8H         LINE#         45
  C:6CFEH         LINE#         46
  C:6CFEH         LINE#         47
  C:6CFEH         LINE#         48
  C:6D01H         LINE#         49
  C:6D04H         LINE#         50
  C:6D07H         LINE#         51
  C:6D0EH         LINE#         52
  C:6D0EH         LINE#         53
  C:6D19H         LINE#         54
  C:6D1CH         LINE#         55
  C:6D1CH         LINE#         56
  -------         ENDPROC       MAIN
  -------         ENDMOD        MAIN

  -------         MODULE        MODBUSCRC
  C:0000H         SYMBOL        _ICE_DUMMY_
  D:0090H         PUBLIC        P1
  D:00A0H         PUBLIC        P2
BL51 BANKED LINKER/LOCATER V6.22                                                      06/13/2018  16:51:36  PAGE 60


  C:6EE8H         PUBLIC        _ModbusCrcCnt
  C:2E26H         SYMBOL        CrcTabHi
  C:2F26H         SYMBOL        CrcTabLi
  -------         PROC          _MODBUSCRCCNT
  D:0035H         SYMBOL        ptr
  D:0005H         SYMBOL        len
  -------         DO            
  D:0002H         SYMBOL        index
  D:0007H         SYMBOL        crchi
  D:0004H         SYMBOL        crcli
  -------         ENDDO         
  C:6EE8H         LINE#         114
  C:6EEEH         LINE#         115
  C:6EEEH         LINE#         119
  C:6EF0H         LINE#         120
  C:6EF2H         LINE#         122
  C:6EF8H         LINE#         123
  C:6EF8H         LINE#         124
  C:6F08H         LINE#         125
  C:6F0EH         LINE#         126
  C:6F14H         LINE#         127
  C:6F16H         LINE#         128
  C:6F1CH         LINE#         129
  -------         ENDPROC       _MODBUSCRCCNT
  -------         ENDMOD        MODBUSCRC

  -------         MODULE        MODBUSRTU
  C:0000H         SYMBOL        _ICE_DUMMY_
  D:0090H         PUBLIC        P1
  D:00A0H         PUBLIC        P2
  C:6A90H         SYMBOL        _ModRtu_RlyError
  C:711BH         PUBLIC        _ModRtu_WrAddr
  C:7169H         PUBLIC        _ModRtu_WrBaud
  X:0C90H         PUBLIC        AngRange
  D:00A7H         PUBLIC        SFRPAGE
  C:6F50H         PUBLIC        _ModRtu_SetZero
  C:6730H         PUBLIC        _ChkCode
  C:4B17H         SYMBOL        _ModRtu_RdReg
  C:0C0CH         PUBLIC        _ModRtu_RdVal
  X:0C92H         PUBLIC        customAddr
  X:0C93H         SYMBOL        checkcode
  C:6D1EH         PUBLIC        _ModRtu_RxProc
  C:7785H         PUBLIC        _ModRtu_WrCrc
  C:4814H         SYMBOL        _ModRtu_WrReg
  X:0C95H         SYMBOL        udflashtag
  C:172BH         PUBLIC        _ModRtu_WrVal
  C:2B6CH         PUBLIC        _CustomPro
  X:0C96H         PUBLIC        baudsetnum
  C:7735H         PUBLIC        _ModRtu_8to16
  C:7697H         PUBLIC        _ModRtu_Rd16u
  D:00ACH         PUBLIC        SBRL0
  C:72ACH         PUBLIC        _ModRtu_Wr16u
  C:5721H         SYMBOL        _FloatToInt
  C:6BAFH         PUBLIC        _Sumchk
  C:747FH         PUBLIC        _ModRtu_ChkCrc
  X:0C9AH         PUBLIC        Addr
  C:43E8H         PUBLIC        _Int32s2val
BL51 BANKED LINKER/LOCATER V6.22                                                      06/13/2018  16:51:36  PAGE 61


  C:5717H         SYMBOL        L?0717
  -------         PROC          L?0716
  -------         ENDPROC       L?0716
  C:5717H         SYMBOL        L?0717
  -------         PROC          _FLOATTOINT
  D:003AH         SYMBOL        ang
  D:003EH         SYMBOL        highlow
  -------         DO            
  D:0040H         SYMBOL        temp
  D:0044H         SYMBOL        vol
  -------         ENDDO         
  C:5721H         LINE#         29
  C:5729H         LINE#         30
  C:5729H         LINE#         34
  C:573BH         LINE#         35
  C:5743H         LINE#         37
  C:5753H         LINE#         38
  C:5753H         LINE#         39
  C:5766H         LINE#         40
  C:5773H         LINE#         41
  C:5775H         LINE#         43
  C:5775H         LINE#         44
  C:5788H         LINE#         45
  C:579FH         LINE#         46
  C:579FH         LINE#         47
  C:57A3H         LINE#         48
  -------         ENDPROC       _FLOATTOINT
  -------         PROC          _MODRTU_CHKCRC
  D:0001H         SYMBOL        buf
  D:0005H         SYMBOL        len
  C:747FH         LINE#         56
  C:747FH         LINE#         57
  C:747FH         LINE#         58
  C:7485H         LINE#         59
  C:7485H         LINE#         60
  C:7488H         LINE#         61
  C:7488H         LINE#         62
  C:748FH         LINE#         63
  C:748FH         LINE#         64
  C:7492H         LINE#         65
  C:7492H         LINE#         67
  C:7492H         LINE#         68
  C:7494H         LINE#         69
  C:7494H         LINE#         70
  -------         ENDPROC       _MODRTU_CHKCRC
  -------         PROC          _CHKCODE
  D:0025H         SYMBOL        buf
  D:0005H         SYMBOL        len
  -------         DO            
  D:0007H         SYMBOL        i
  -------         ENDDO         
  C:6730H         LINE#         72
  C:6736H         LINE#         73
  C:6736H         LINE#         79
  C:673DH         LINE#         80
  C:6747H         LINE#         81
  C:6747H         LINE#         82
BL51 BANKED LINKER/LOCATER V6.22                                                      06/13/2018  16:51:36  PAGE 62


  C:675FH         LINE#         83
  C:6762H         LINE#         84
  C:6780H         LINE#         85
  C:6783H         LINE#         87
  C:6785H         LINE#         89
  -------         ENDPROC       _CHKCODE
  -------         PROC          L?0718
  -------         ENDPROC       L?0718
  -------         PROC          _SUMCHK
  D:0025H         SYMBOL        buf
  D:0028H         SYMBOL        len
  -------         DO            
  X:0C81H         SYMBOL        i
  D:0006H         SYMBOL        codedata
  -------         ENDDO         
  C:6BAFH         LINE#         91
  C:6BB7H         LINE#         92
  C:6BB7H         LINE#         94
  C:6BBAH         LINE#         95
  C:6BC9H         LINE#         96
  C:6BC9H         LINE#         97
  C:6BDCH         LINE#         98
  C:6BE4H         LINE#         99
  C:6BE4H         LINE#         101
  -------         ENDPROC       _SUMCHK
  -------         PROC          _MODRTU_WRCRC
  D:0001H         SYMBOL        buf
  D:0004H         SYMBOL        crc
  C:7785H         LINE#         110
  C:7785H         LINE#         111
  C:7785H         LINE#         112
  C:7789H         LINE#         113
  -------         ENDPROC       _MODRTU_WRCRC
  -------         PROC          _MODRTU_8TO16
  D:0001H         SYMBOL        buf
  -------         DO            
  D:0006H         SYMBOL        temp
  -------         ENDDO         
  C:7735H         LINE#         122
  C:7735H         LINE#         123
  C:7735H         LINE#         126
  C:7738H         LINE#         127
  C:7739H         LINE#         128
  C:7740H         LINE#         129
  C:7740H         LINE#         130
  -------         ENDPROC       _MODRTU_8TO16
  -------         PROC          _MODRTU_SETZERO
  D:0001H         SYMBOL        buf
  -------         DO            
  D:0039H         SYMBOL        temp
  -------         ENDDO         
  C:6F50H         LINE#         138
  C:6F50H         LINE#         139
  C:6F50H         LINE#         140
  C:6F57H         LINE#         142
  C:6F5FH         LINE#         143
  C:6F5FH         LINE#         144
BL51 BANKED LINKER/LOCATER V6.22                                                      06/13/2018  16:51:36  PAGE 63


  C:6F65H         LINE#         145
  C:6F68H         LINE#         146
  C:6F6AH         LINE#         147
  C:6F70H         LINE#         148
  C:6F70H         LINE#         149
  C:6F77H         LINE#         150
  C:6F82H         LINE#         151
  C:6F82H         LINE#         152
  -------         ENDPROC       _MODRTU_SETZERO
  -------         PROC          L?0721
  -------         ENDPROC       L?0721
  -------         PROC          _MODRTU_WR16U
  D:0001H         SYMBOL        buf
  -------         DO            
  D:0006H         SYMBOL        temp
  D:0004H         SYMBOL        dat
  -------         ENDDO         
  C:72ACH         LINE#         160
  C:72ACH         LINE#         161
  C:72ACH         LINE#         165
  C:72AFH         LINE#         166
  C:72B0H         LINE#         167
  C:72B7H         LINE#         168
  C:72C6H         LINE#         169
  C:72C6H         LINE#         170
  -------         ENDPROC       _MODRTU_WR16U
  -------         PROC          _MODRTU_WRADDR
  D:0001H         SYMBOL        buf
  -------         DO            
  D:0006H         SYMBOL        temp
  -------         ENDDO         
  C:711BH         LINE#         178
  C:711BH         LINE#         179
  C:711BH         LINE#         182
  C:711EH         LINE#         183
  C:711FH         LINE#         184
  C:7126H         LINE#         185
  C:713BH         LINE#         186
  C:7140H         LINE#         187
  C:7142H         LINE#         188
  -------         ENDPROC       _MODRTU_WRADDR
  -------         PROC          _MODRTU_WRBAUD
  D:0001H         SYMBOL        buf
  -------         DO            
  D:0006H         SYMBOL        temp
  -------         ENDDO         
  C:7169H         LINE#         196
  C:7169H         LINE#         197
  C:7169H         LINE#         200
  C:716CH         LINE#         201
  C:716DH         LINE#         202
  C:7174H         LINE#         203
  C:7186H         LINE#         204
  C:718BH         LINE#         205
  C:718DH         LINE#         206
  -------         ENDPROC       _MODRTU_WRBAUD
  -------         PROC          _MODRTU_WRVAL
BL51 BANKED LINKER/LOCATER V6.22                                                      06/13/2018  16:51:36  PAGE 64


  D:0031H         SYMBOL        addr
  D:0033H         SYMBOL        buf
  D:0036H         SYMBOL        excode
  -------         DO            
  X:0C8BH         SYMBOL        vol32u
  X:0C8FH         SYMBOL        vol8u
  X:0C77H         SYMBOL        volf
  X:0C7BH         SYMBOL        pc_data
  X:0C7DH         SYMBOL        vol16s
  -------         ENDDO         
  C:172BH         LINE#         215
  C:1735H         LINE#         216
  C:1735H         LINE#         223
  C:174DH         LINE#         224
  C:1885H         LINE#         225
  C:1885H         LINE#         226
  C:188BH         LINE#         227
  C:188BH         LINE#         228
  C:188DH         LINE#         229
  C:1893H         LINE#         230
  C:1893H         LINE#         231
  C:1895H         LINE#         233
  C:189EH         LINE#         234
  C:18A1H         LINE#         235
  C:18A3H         LINE#         239
  C:18A3H         LINE#         240
  C:18A9H         LINE#         241
  C:18B2H         LINE#         242
  C:18B2H         LINE#         243
  C:18B8H         LINE#         244
  C:18C1H         LINE#         246
  C:18C1H         LINE#         247
  C:18C1H         LINE#         248
  C:18C1H         LINE#         249
  C:18C1H         LINE#         251
  C:18C1H         LINE#         253
  C:18C1H         LINE#         254
  C:18C1H         LINE#         255
  C:18D1H         LINE#         256
  C:18D9H         LINE#         257
  C:18E3H         LINE#         258
  C:18E3H         LINE#         259
  C:18E6H         LINE#         260
  C:18E6H         LINE#         261
  C:18E6H         LINE#         262
  C:18E9H         LINE#         263
  C:18ECH         LINE#         265
  C:18ECH         LINE#         266
  C:18ECH         LINE#         267
  C:18EFH         LINE#         268
  C:18EFH         LINE#         269
  C:18F2H         LINE#         270
  C:18F2H         LINE#         271
  C:18F2H         LINE#         272
  C:1907H         LINE#         273
  C:190AH         LINE#         274
  C:190AH         LINE#         275
BL51 BANKED LINKER/LOCATER V6.22                                                      06/13/2018  16:51:36  PAGE 65


  C:190AH         LINE#         276
  C:190AH         LINE#         277
  C:190DH         LINE#         278
  C:190DH         LINE#         279
  C:190DH         LINE#         280
  C:1910H         LINE#         281
  C:1916H         LINE#         282
  C:1919H         LINE#         283
  C:1919H         LINE#         284
  C:1919H         LINE#         285
  C:1919H         LINE#         286
  C:191CH         LINE#         287
  C:191CH         LINE#         288
  C:191CH         LINE#         289
  C:1921H         LINE#         290
  C:1924H         LINE#         291
  C:1924H         LINE#         292
  C:1924H         LINE#         293
  C:1924H         LINE#         294
  C:1927H         LINE#         295
  C:1927H         LINE#         296
  C:1927H         LINE#         300
  C:1927H         LINE#         301
  C:1927H         LINE#         302
  C:1927H         LINE#         303
  C:1927H         LINE#         304
  C:192AH         LINE#         305
  C:192AH         LINE#         306
  C:192AH         LINE#         310
  C:192AH         LINE#         311
  C:192AH         LINE#         312
  C:192AH         LINE#         313
  C:192AH         LINE#         314
  C:192DH         LINE#         315
  C:192DH         LINE#         316
  C:192DH         LINE#         317
  C:195FH         LINE#         318
  C:1973H         LINE#         319
  C:1973H         LINE#         320
  C:1976H         LINE#         321
  C:1978H         LINE#         322
  C:198FH         LINE#         323
  C:198FH         LINE#         324
  C:1996H         LINE#         325
  C:1996H         LINE#         326
  C:1999H         LINE#         327
  C:1999H         LINE#         328
  C:1999H         LINE#         329
  C:1999H         LINE#         330
  C:199CH         LINE#         331
  C:199CH         LINE#         332
  C:199CH         LINE#         333
  C:19CEH         LINE#         334
  C:19E2H         LINE#         335
  C:19E2H         LINE#         336
  C:19E2H         LINE#         337
  C:19E5H         LINE#         338
BL51 BANKED LINKER/LOCATER V6.22                                                      06/13/2018  16:51:36  PAGE 66


  C:19FCH         LINE#         339
  C:19FCH         LINE#         340
  C:1A00H         LINE#         341
  C:1A00H         LINE#         342
  C:1A03H         LINE#         343
  C:1A03H         LINE#         344
  C:1A03H         LINE#         345
  C:1A03H         LINE#         346
  C:1A06H         LINE#         347
  C:1A06H         LINE#         348
  C:1A06H         LINE#         349
  C:1A06H         LINE#         350
  C:1A06H         LINE#         351
  C:1A06H         LINE#         352
  C:1A09H         LINE#         353
  C:1A09H         LINE#         354
  C:1A09H         LINE#         355
  C:1A09H         LINE#         356
  C:1A0CH         LINE#         357
  C:1A0CH         LINE#         358
  C:1A0CH         LINE#         359
  C:1A0CH         LINE#         360
  C:1A0CH         LINE#         361
  C:1A0CH         LINE#         363
  C:1A0FH         LINE#         364
  C:1A0FH         LINE#         365
  C:1A0FH         LINE#         366
  C:1A1FH         LINE#         367
  C:1A32H         LINE#         368
  C:1A32H         LINE#         369
  C:1A32H         LINE#         370
  C:1A32H         LINE#         371
  C:1A45H         LINE#         372
  C:1A45H         LINE#         373
  C:1A48H         LINE#         374
  C:1A48H         LINE#         375
  C:1A4BH         LINE#         379
  C:1A4BH         LINE#         380
  C:1A4BH         LINE#         381
  C:1A4BH         LINE#         382
  C:1A4BH         LINE#         383
  C:1A4BH         LINE#         384
  C:1A4BH         LINE#         385
  C:1A4BH         LINE#         386
  C:1A4BH         LINE#         387
  C:1A4BH         LINE#         388
  C:1A6AH         LINE#         389
  C:1A7DH         LINE#         390
  C:1A80H         LINE#         391
  C:1A80H         LINE#         392
  C:1A80H         LINE#         393
  C:1A8DH         LINE#         394
  C:1A9EH         LINE#         395
  C:1AA6H         LINE#         396
  C:1AC6H         LINE#         397
  C:1AC6H         LINE#         398
  C:1AC8H         LINE#         399
BL51 BANKED LINKER/LOCATER V6.22                                                      06/13/2018  16:51:36  PAGE 67


  C:1ACAH         LINE#         400
  C:1ACEH         LINE#         401
  C:1AD2H         LINE#         402
  C:1AD6H         LINE#         403
  C:1ADAH         LINE#         404
  C:1AE2H         LINE#         406
  C:1AEDH         LINE#         407
  C:1AEDH         LINE#         408
  C:1AEDH         LINE#         409
  C:1AEDH         LINE#         410
  C:1AEDH         LINE#         411
  C:1AEDH         LINE#         412
  C:1AF0H         LINE#         414
  C:1AF0H         LINE#         415
  C:1AF0H         LINE#         416
  C:1B22H         LINE#         417
  C:1B2EH         LINE#         418
  C:1B43H         LINE#         419
  C:1B43H         LINE#         420
  C:1B4FH         LINE#         421
  C:1B51H         LINE#         423
  C:1B51H         LINE#         424
  C:1B65H         LINE#         425
  C:1B65H         LINE#         427
  C:1B98H         LINE#         429
  C:1BB2H         LINE#         432
  C:1BBAH         LINE#         433
  C:1BBAH         LINE#         434
  C:1BD6H         LINE#         435
  C:1BE2H         LINE#         436
  C:1BE5H         LINE#         438
  C:1BE5H         LINE#         439
  C:1C02H         LINE#         440
  C:1C0EH         LINE#         442
  C:1C0EH         LINE#         443
  C:1C11H         LINE#         444
  C:1C11H         LINE#         445
  C:1C11H         LINE#         446
  C:1C31H         LINE#         447
  C:1C3DH         LINE#         448
  C:1C3DH         LINE#         449
  C:1C40H         LINE#         450
  C:1C40H         LINE#         451
  C:1C43H         LINE#         452
  C:1C43H         LINE#         453
  C:1C43H         LINE#         454
  C:1C63H         LINE#         455
  C:1C7CH         LINE#         456
  C:1C7CH         LINE#         457
  C:1C82H         LINE#         458
  C:1C85H         LINE#         459
  C:1C87H         LINE#         460
  C:1C92H         LINE#         461
  C:1C9DH         LINE#         462
  C:1CA0H         LINE#         463
  C:1CA6H         LINE#         464
  C:1CA9H         LINE#         465
BL51 BANKED LINKER/LOCATER V6.22                                                      06/13/2018  16:51:36  PAGE 68


  C:1CABH         LINE#         466
  C:1CB6H         LINE#         467
  C:1CC1H         LINE#         468
  C:1CC4H         LINE#         469
  C:1CC4H         LINE#         470
  C:1CC4H         LINE#         471
  C:1CC4H         LINE#         472
  C:1CC4H         LINE#         473
  C:1CC4H         LINE#         474
  C:1CC7H         LINE#         475
  C:1CC7H         LINE#         476
  C:1CC7H         LINE#         477
  C:1CF9H         LINE#         478
  C:1D05H         LINE#         479
  C:1D1BH         LINE#         480
  C:1D1EH         LINE#         481
  C:1D1EH         LINE#         482
  C:1D1EH         LINE#         483
  C:1D1EH         LINE#         484
  C:1D20H         LINE#         485
  C:1D20H         LINE#         486
  C:1D20H         LINE#         487
  C:1D52H         LINE#         488
  C:1D5EH         LINE#         489
  C:1D74H         LINE#         490
  C:1D76H         LINE#         491
  C:1D76H         LINE#         492
  C:1D76H         LINE#         493
  C:1D76H         LINE#         494
  C:1D78H         LINE#         495
  C:1D78H         LINE#         496
  C:1D78H         LINE#         500
  C:1D78H         LINE#         501
  C:1D78H         LINE#         502
  C:1D78H         LINE#         503
  C:1D78H         LINE#         504
  C:1D7AH         LINE#         505
  C:1D7AH         LINE#         506
  C:1D7AH         LINE#         510
  C:1D7AH         LINE#         511
  C:1D7AH         LINE#         512
  C:1D7AH         LINE#         513
  C:1D7AH         LINE#         514
  C:1D7CH         LINE#         515
  C:1D7CH         LINE#         516
  C:1D7CH         LINE#         520
  C:1D7CH         LINE#         521
  C:1D7CH         LINE#         522
  C:1D7CH         LINE#         523
  C:1D8DH         LINE#         524
  C:1D8FH         LINE#         525
  C:1D8FH         LINE#         526
  C:1D8FH         LINE#         530
  C:1D8FH         LINE#         531
  C:1D8FH         LINE#         532
  C:1D8FH         LINE#         533
  C:1DAEH         LINE#         534
BL51 BANKED LINKER/LOCATER V6.22                                                      06/13/2018  16:51:36  PAGE 69


  C:1DB2H         LINE#         535
  C:1DB4H         LINE#         536
  C:1DB4H         LINE#         537
  C:1DB4H         LINE#         538
  C:1DD3H         LINE#         539
  C:1DD6H         LINE#         540
  C:1DD8H         LINE#         542
  C:1DD8H         LINE#         543
  C:1DD8H         LINE#         545
  C:1DD8H         LINE#         547
  C:1DD8H         LINE#         548
  C:1DD8H         LINE#         552
  C:1DD8H         LINE#         553
  C:1DD8H         LINE#         554
  C:1DD8H         LINE#         556
  C:1DD8H         LINE#         558
  C:1DD8H         LINE#         559
  C:1DD8H         LINE#         563
  C:1DD8H         LINE#         565
  C:1DD8H         LINE#         566
  C:1DD8H         LINE#         568
  C:1DD8H         LINE#         570
  C:1DD8H         LINE#         571
  C:1DD8H         LINE#         573
  C:1DD8H         LINE#         574
  C:1DD8H         LINE#         575
  C:1DD8H         LINE#         577
  C:1DD8H         LINE#         580
  C:1DD8H         LINE#         581
  C:1DD8H         LINE#         583
  C:1DD8H         LINE#         585
  C:1DD8H         LINE#         586
  C:1DD8H         LINE#         588
  C:1DD8H         LINE#         589
  C:1DD8H         LINE#         590
  C:1DD8H         LINE#         592
  C:1DD8H         LINE#         594
  C:1DD8H         LINE#         595
  C:1DD8H         LINE#         597
  C:1DD8H         LINE#         599
  C:1DD8H         LINE#         600
  C:1DD8H         LINE#         602
  C:1DD8H         LINE#         603
  C:1DD8H         LINE#         604
  C:1DD8H         LINE#         606
  C:1DD8H         LINE#         609
  C:1DD8H         LINE#         610
  C:1DD8H         LINE#         612
  C:1DD8H         LINE#         614
  C:1DD8H         LINE#         615
  C:1DD8H         LINE#         617
  C:1DD8H         LINE#         618
  C:1DD8H         LINE#         619
  C:1DD8H         LINE#         621
  C:1DD8H         LINE#         624
  C:1DD8H         LINE#         625
  C:1DD8H         LINE#         627
BL51 BANKED LINKER/LOCATER V6.22                                                      06/13/2018  16:51:36  PAGE 70


  C:1DE3H         LINE#         628
  C:1DE6H         LINE#         629
  C:1DE6H         LINE#         630
  C:1DE8H         LINE#         631
  -------         ENDPROC       _MODRTU_WRVAL
  -------         PROC          _MODRTU_RD16U
  D:0001H         SYMBOL        buf
  D:0004H         SYMBOL        dat
  C:7697H         LINE#         639
  C:7697H         LINE#         640
  C:7697H         LINE#         641
  C:769DH         LINE#         642
  -------         ENDPROC       _MODRTU_RD16U
  -------         PROC          _MODRTU_RDVAL
  D:0032H         SYMBOL        addr
  D:0034H         SYMBOL        buf
  D:0037H         SYMBOL        excode
  -------         DO            
  X:0C77H         SYMBOL        pc_data
  X:0C79H         SYMBOL        vol16s
  -------         ENDDO         
  C:0C0CH         LINE#         651
  C:0C16H         LINE#         652
  C:0C16H         LINE#         656
  C:11E6H         LINE#         657
  C:11E6H         LINE#         659
  C:11EBH         LINE#         660
  C:11F0H         LINE#         662
  C:11F5H         LINE#         664
  C:11FAH         LINE#         665
  C:11FFH         LINE#         667
  C:1204H         LINE#         668
  C:1209H         LINE#         670
  C:121BH         LINE#         671
  C:1226H         LINE#         672
  C:1239H         LINE#         674
  C:1239H         LINE#         675
  C:1239H         LINE#         676
  C:123CH         LINE#         677
  C:123FH         LINE#         678
  C:1242H         LINE#         679
  C:1245H         LINE#         680
  C:1248H         LINE#         681
  C:124BH         LINE#         682
  C:124EH         LINE#         683
  C:1251H         LINE#         684
  C:1254H         LINE#         685
  C:1257H         LINE#         686
  C:125AH         LINE#         687
  C:125DH         LINE#         688
  C:1260H         LINE#         689
  C:1263H         LINE#         690
  C:1266H         LINE#         691
  C:1269H         LINE#         692
  C:126CH         LINE#         693
  C:126FH         LINE#         694
  C:1272H         LINE#         695
BL51 BANKED LINKER/LOCATER V6.22                                                      06/13/2018  16:51:36  PAGE 71


  C:1275H         LINE#         696
  C:1278H         LINE#         697
  C:1278H         LINE#         698
  C:1278H         LINE#         699
  C:1278H         LINE#         700
  C:1278H         LINE#         701
  C:1278H         LINE#         702
  C:1278H         LINE#         703
  C:1278H         LINE#         704
  C:1278H         LINE#         705
  C:1278H         LINE#         706
  C:127BH         LINE#         707
  C:127EH         LINE#         708
  C:1281H         LINE#         709
  C:1284H         LINE#         710
  C:1287H         LINE#         711
  C:128AH         LINE#         712
  C:128DH         LINE#         713
  C:1290H         LINE#         714
  C:1293H         LINE#         715
  C:1296H         LINE#         716
  C:1299H         LINE#         717
  C:129FH         LINE#         718
  C:12A2H         LINE#         722
  C:12AEH         LINE#         723
  C:12B4H         LINE#         725
  C:12BAH         LINE#         726
  C:12C0H         LINE#         727
  C:12C0H         LINE#         728
  C:12C0H         LINE#         729
  C:12C0H         LINE#         730
  C:12C0H         LINE#         731
  C:12C0H         LINE#         732
  C:12C0H         LINE#         733
  C:12C0H         LINE#         734
  C:12C0H         LINE#         735
  C:12C0H         LINE#         736
  C:12C0H         LINE#         737
  C:12C0H         LINE#         738
  C:12C0H         LINE#         739
  C:12C0H         LINE#         740
  C:12C0H         LINE#         741
  C:12C0H         LINE#         742
  C:12C0H         LINE#         743
  C:12C0H         LINE#         744
  C:12C0H         LINE#         745
  C:12C0H         LINE#         746
  C:12C0H         LINE#         747
  C:12CBH         LINE#         748
  C:12CBH         LINE#         749
  C:12CBH         LINE#         750
  C:12CBH         LINE#         751
  C:12CBH         LINE#         752
  C:12CBH         LINE#         753
  C:12CBH         LINE#         754
  C:12CBH         LINE#         755
  C:12CBH         LINE#         756
BL51 BANKED LINKER/LOCATER V6.22                                                      06/13/2018  16:51:36  PAGE 72


  C:12CBH         LINE#         757
  C:12CBH         LINE#         758
  C:12CBH         LINE#         759
  C:12CBH         LINE#         760
  C:12CBH         LINE#         761
  C:12CBH         LINE#         762
  C:12CBH         LINE#         763
  C:12CBH         LINE#         764
  C:12CBH         LINE#         765
  C:12CBH         LINE#         766
  C:12CBH         LINE#         767
  C:12CBH         LINE#         768
  C:12D6H         LINE#         769
  C:12D6H         LINE#         770
  C:12D6H         LINE#         771
  C:12D6H         LINE#         772
  C:12D6H         LINE#         773
  C:12D6H         LINE#         774
  C:12D6H         LINE#         775
  C:12D6H         LINE#         776
  C:12D6H         LINE#         777
  C:12D6H         LINE#         778
  C:12D6H         LINE#         779
  C:12D6H         LINE#         780
  C:12D6H         LINE#         781
  C:12D6H         LINE#         782
  C:12D6H         LINE#         783
  C:12D6H         LINE#         784
  C:12D6H         LINE#         785
  C:12D6H         LINE#         786
  C:12D6H         LINE#         787
  C:12D6H         LINE#         788
  C:12D6H         LINE#         789
  C:12E1H         LINE#         790
  C:12E4H         LINE#         791
  C:12E7H         LINE#         792
  C:12EAH         LINE#         793
  C:12EDH         LINE#         794
  C:12F0H         LINE#         795
  C:12F3H         LINE#         796
  C:12F6H         LINE#         797
  C:12F9H         LINE#         798
  C:12FCH         LINE#         799
  C:12FFH         LINE#         800
  C:1302H         LINE#         801
  C:1305H         LINE#         803
  C:1312H         LINE#         804
  C:1318H         LINE#         805
  C:1321H         LINE#         806
  C:1334H         LINE#         807
  C:1334H         LINE#         808
  C:1334H         LINE#         809
  C:1334H         LINE#         810
  C:1334H         LINE#         811
  C:1334H         LINE#         812
  C:1334H         LINE#         813
  C:1334H         LINE#         814
BL51 BANKED LINKER/LOCATER V6.22                                                      06/13/2018  16:51:36  PAGE 73


  C:1334H         LINE#         815
  C:1334H         LINE#         816
  C:1334H         LINE#         817
  C:1334H         LINE#         818
  C:1334H         LINE#         819
  C:1334H         LINE#         820
  C:1334H         LINE#         821
  C:1334H         LINE#         822
  C:1334H         LINE#         823
  C:1334H         LINE#         824
  C:1334H         LINE#         825
  C:1334H         LINE#         826
  C:1334H         LINE#         827
  C:1334H         LINE#         828
  C:1334H         LINE#         829
  C:1334H         LINE#         830
  C:1334H         LINE#         831
  C:133FH         LINE#         832
  C:133FH         LINE#         833
  C:133FH         LINE#         834
  C:133FH         LINE#         835
  C:133FH         LINE#         836
  C:133FH         LINE#         837
  C:133FH         LINE#         838
  C:133FH         LINE#         839
  C:133FH         LINE#         840
  C:133FH         LINE#         841
  C:133FH         LINE#         842
  C:133FH         LINE#         843
  C:133FH         LINE#         844
  C:133FH         LINE#         845
  C:133FH         LINE#         846
  C:133FH         LINE#         847
  C:133FH         LINE#         848
  C:133FH         LINE#         849
  C:133FH         LINE#         850
  C:133FH         LINE#         851
  C:133FH         LINE#         852
  C:133FH         LINE#         853
  C:133FH         LINE#         854
  C:133FH         LINE#         855
  C:133FH         LINE#         856
  C:1356H         LINE#         857
  C:1356H         LINE#         858
  C:1356H         LINE#         859
  C:1356H         LINE#         860
  C:1356H         LINE#         861
  C:1356H         LINE#         862
  C:1356H         LINE#         863
  C:1356H         LINE#         864
  C:1356H         LINE#         865
  C:1356H         LINE#         866
  C:1356H         LINE#         867
  C:1356H         LINE#         868
  C:1356H         LINE#         869
  C:1356H         LINE#         870
  C:1356H         LINE#         871
BL51 BANKED LINKER/LOCATER V6.22                                                      06/13/2018  16:51:36  PAGE 74


  C:1356H         LINE#         872
  C:1356H         LINE#         873
  C:1356H         LINE#         874
  C:1356H         LINE#         875
  C:1356H         LINE#         876
  C:1356H         LINE#         877
  C:1356H         LINE#         878
  C:1356H         LINE#         879
  C:1356H         LINE#         880
  C:1356H         LINE#         881
  C:1377H         LINE#         883
  C:1384H         LINE#         884
  C:138AH         LINE#         885
  C:1393H         LINE#         886
  C:13A6H         LINE#         887
  C:13A6H         LINE#         888
  C:13A6H         LINE#         889
  C:13A6H         LINE#         890
  C:13A6H         LINE#         891
  C:13A6H         LINE#         892
  C:13A6H         LINE#         893
  C:13A6H         LINE#         894
  C:13A6H         LINE#         895
  C:13A6H         LINE#         896
  C:13A6H         LINE#         897
  C:13A6H         LINE#         898
  C:13A6H         LINE#         899
  C:13A6H         LINE#         900
  C:13A6H         LINE#         901
  C:13A6H         LINE#         902
  C:13A6H         LINE#         903
  C:13A6H         LINE#         904
  C:13A6H         LINE#         905
  C:13A6H         LINE#         906
  C:13A6H         LINE#         907
  C:13A6H         LINE#         908
  C:13A6H         LINE#         909
  C:13A6H         LINE#         910
  C:13A6H         LINE#         911
  C:13B1H         LINE#         912
  C:13B1H         LINE#         913
  C:13B1H         LINE#         914
  C:13B1H         LINE#         915
  C:13B1H         LINE#         916
  C:13B1H         LINE#         917
  C:13B1H         LINE#         918
  C:13B1H         LINE#         919
  C:13B1H         LINE#         920
  C:13B1H         LINE#         921
  C:13B1H         LINE#         922
  C:13B1H         LINE#         923
  C:13B1H         LINE#         924
  C:13B1H         LINE#         925
  C:13B1H         LINE#         926
  C:13B1H         LINE#         927
  C:13B1H         LINE#         928
  C:13B1H         LINE#         929
BL51 BANKED LINKER/LOCATER V6.22                                                      06/13/2018  16:51:36  PAGE 75


  C:13B1H         LINE#         930
  C:13B1H         LINE#         931
  C:13B1H         LINE#         932
  C:13B1H         LINE#         933
  C:13B1H         LINE#         934
  C:13B1H         LINE#         935
  C:13B1H         LINE#         936
  C:13C7H         LINE#         937
  C:13C7H         LINE#         938
  C:13C7H         LINE#         939
  C:13C7H         LINE#         940
  C:13C7H         LINE#         941
  C:13C7H         LINE#         942
  C:13C7H         LINE#         943
  C:13C7H         LINE#         944
  C:13C7H         LINE#         945
  C:13C7H         LINE#         946
  C:13C7H         LINE#         947
  C:13C7H         LINE#         948
  C:13C7H         LINE#         949
  C:13C7H         LINE#         950
  C:13C7H         LINE#         951
  C:13C7H         LINE#         952
  C:13C7H         LINE#         953
  C:13C7H         LINE#         954
  C:13C7H         LINE#         955
  C:13C7H         LINE#         956
  C:13C7H         LINE#         957
  C:13C7H         LINE#         958
  C:13C7H         LINE#         959
  C:13C7H         LINE#         960
  C:13C7H         LINE#         961
  C:13E7H         LINE#         963
  C:13F4H         LINE#         964
  C:13F9H         LINE#         965
  C:13FEH         LINE#         966
  C:1403H         LINE#         967
  C:1408H         LINE#         968
  C:140DH         LINE#         969
  C:1412H         LINE#         970
  C:1417H         LINE#         971
  C:142BH         LINE#         972
  C:1435H         LINE#         973
  C:143FH         LINE#         974
  C:1449H         LINE#         975
  C:1453H         LINE#         976
  C:1460H         LINE#         977
  C:1477H         LINE#         978
  C:1484H         LINE#         979
  C:149BH         LINE#         980
  C:14A8H         LINE#         981
  C:14BFH         LINE#         982
  C:14CCH         LINE#         983
  C:14E3H         LINE#         984
  C:14F0H         LINE#         985
  C:1507H         LINE#         986
  C:1514H         LINE#         987
BL51 BANKED LINKER/LOCATER V6.22                                                      06/13/2018  16:51:36  PAGE 76


  C:152BH         LINE#         988
  C:1538H         LINE#         989
  C:154FH         LINE#         990
  C:155CH         LINE#         991
  C:1573H         LINE#         992
  C:1580H         LINE#         993
  C:1597H         LINE#         994
  C:1597H         LINE#         995
  C:1597H         LINE#         996
  C:1597H         LINE#         997
  C:1597H         LINE#         998
  C:1597H         LINE#         999
  C:1597H         LINE#         1000
  C:1597H         LINE#         1001
  C:1597H         LINE#         1002
  C:15A4H         LINE#         1003
  C:15BBH         LINE#         1004
  C:15C8H         LINE#         1005
  C:15DFH         LINE#         1006
  C:15ECH         LINE#         1007
  C:1603H         LINE#         1008
  C:1610H         LINE#         1009
  C:1627H         LINE#         1010
  C:1634H         LINE#         1011
  C:164BH         LINE#         1012
  C:1658H         LINE#         1013
  C:166FH         LINE#         1015
  C:166FH         LINE#         1016
  C:166FH         LINE#         1017
  C:166FH         LINE#         1018
  C:166FH         LINE#         1019
  C:166FH         LINE#         1020
  C:166FH         LINE#         1022
  C:166FH         LINE#         1023
  C:166FH         LINE#         1024
  C:166FH         LINE#         1025
  C:166FH         LINE#         1026
  C:166FH         LINE#         1027
  C:166FH         LINE#         1029
  C:166FH         LINE#         1030
  C:166FH         LINE#         1031
  C:166FH         LINE#         1032
  C:1672H         LINE#         1034
  C:167EH         LINE#         1035
  C:168AH         LINE#         1036
  C:1697H         LINE#         1037
  C:16A2H         LINE#         1038
  C:16A4H         LINE#         1039
  C:16C5H         LINE#         1040
  C:16D2H         LINE#         1041
  C:16DDH         LINE#         1042
  C:16E8H         LINE#         1043
  C:16F5H         LINE#         1044
  C:16FEH         LINE#         1045
  C:1709H         LINE#         1046
  C:1709H         LINE#         1047
  C:1709H         LINE#         1048
BL51 BANKED LINKER/LOCATER V6.22                                                      06/13/2018  16:51:36  PAGE 77


  C:1714H         LINE#         1049
  C:1717H         LINE#         1051
  C:1717H         LINE#         1052
  C:1728H         LINE#         1053
  C:172AH         LINE#         1054
  -------         ENDPROC       _MODRTU_RDVAL
  -------         PROC          _MODRTU_RDREG
  D:0025H         SYMBOL        buf
  -------         DO            
  D:0028H         SYMBOL        addr
  D:002AH         SYMBOL        i
  D:002CH         SYMBOL        j
  D:002EH         SYMBOL        crc
  D:0030H         SYMBOL        err_code
  D:0031H         SYMBOL        excode
  -------         ENDDO         
  C:4B17H         LINE#         1067
  C:4B1DH         LINE#         1068
  C:4B1DH         LINE#         1070
  C:4B22H         LINE#         1071
  C:4B24H         LINE#         1073
  C:4B2CH         LINE#         1074
  C:4B3EH         LINE#         1075
  C:4B50H         LINE#         1076
  C:4B60H         LINE#         1077
  C:4B60H         LINE#         1078
  C:4B8DH         LINE#         1079
  C:4B8DH         LINE#         1080
  C:4B90H         LINE#         1081
  C:4B92H         LINE#         1082
  C:4B92H         LINE#         1083
  C:4B9AH         LINE#         1084
  C:4BA4H         LINE#         1085
  C:4BA9H         LINE#         1086
  C:4BA9H         LINE#         1087
  C:4BB4H         LINE#         1089
  C:4BB4H         LINE#         1090
  C:4BC4H         LINE#         1091
  C:4BD6H         LINE#         1092
  C:4BDFH         LINE#         1093
  C:4BF2H         LINE#         1094
  C:4C00H         LINE#         1095
  C:4C03H         LINE#         1096
  -------         ENDPROC       _MODRTU_RDREG
  -------         PROC          _MODRTU_WRREG
  D:0025H         SYMBOL        buf
  D:0028H         SYMBOL        n
  -------         DO            
  D:0029H         SYMBOL        addr
  D:002BH         SYMBOL        i
  D:002DH         SYMBOL        j
  D:0004H         SYMBOL        crc
  D:002FH         SYMBOL        err_code
  D:0030H         SYMBOL        excode
  -------         ENDDO         
  C:4814H         LINE#         1104
  C:481CH         LINE#         1105
BL51 BANKED LINKER/LOCATER V6.22                                                      06/13/2018  16:51:36  PAGE 78


  C:481CH         LINE#         1108
  C:481FH         LINE#         1110
  C:482DH         LINE#         1111
  C:4868H         LINE#         1112
  C:4876H         LINE#         1113
  C:4886H         LINE#         1114
  C:4886H         LINE#         1115
  C:48B3H         LINE#         1116
  C:48B3H         LINE#         1117
  C:48B6H         LINE#         1118
  C:48B8H         LINE#         1119
  C:48B8H         LINE#         1120
  C:48C0H         LINE#         1121
  C:48CAH         LINE#         1122
  C:48D5H         LINE#         1123
  C:48DAH         LINE#         1124
  C:48DAH         LINE#         1125
  C:48DFH         LINE#         1127
  C:48DFH         LINE#         1128
  C:48EEH         LINE#         1129
  C:48FCH         LINE#         1130
  C:4907H         LINE#         1131
  C:490AH         LINE#         1132
  C:4911H         LINE#         1133
  C:4911H         LINE#         1134
  C:4913H         LINE#         1135
  C:4916H         LINE#         1136
  C:4916H         LINE#         1137
  -------         ENDPROC       _MODRTU_WRREG
  -------         PROC          _MODRTU_RLYERROR
  D:0032H         SYMBOL        buf
  D:0005H         SYMBOL        excode
  -------         DO            
  D:0004H         SYMBOL        crc
  -------         ENDDO         
  C:6A90H         LINE#         1156
  C:6A96H         LINE#         1157
  C:6A96H         LINE#         1159
  C:6AA5H         LINE#         1160
  C:6AB2H         LINE#         1161
  C:6AB9H         LINE#         1162
  C:6AC6H         LINE#         1163
  C:6ACDH         LINE#         1164
  C:6AD2H         LINE#         1165
  -------         ENDPROC       _MODRTU_RLYERROR
  -------         PROC          _MODRTU_RXPROC
  D:0021H         SYMBOL        buf
  D:0024H         SYMBOL        n
  C:6D1EH         LINE#         1174
  C:6D26H         LINE#         1175
  C:6D26H         LINE#         1176
  C:6D2CH         LINE#         1178
  C:6D40H         LINE#         1179
  C:6D40H         LINE#         1180
  C:6D43H         LINE#         1181
  C:6D43H         LINE#         1182
  C:6D4EH         LINE#         1183
BL51 BANKED LINKER/LOCATER V6.22                                                      06/13/2018  16:51:36  PAGE 79


  C:6D4EH         LINE#         1184
  C:6D59H         LINE#         1185
  C:6D59H         LINE#         1186
  C:6D59H         LINE#         1187
  -------         ENDPROC       _MODRTU_RXPROC
  C:43E2H         SYMBOL        L?0720
  -------         PROC          L?0719
  -------         ENDPROC       L?0719
  C:43E2H         SYMBOL        L?0720
  -------         PROC          _INT32S2VAL
  D:0025H         SYMBOL        s
  D:0028H         SYMBOL        val
  C:43E8H         LINE#         1189
  C:43F6H         LINE#         1190
  C:43F6H         LINE#         1191
  C:43FAH         LINE#         1192
  C:43FAH         LINE#         1193
  C:4405H         LINE#         1194
  C:4407H         LINE#         1195
  C:4409H         LINE#         1197
  C:4409H         LINE#         1198
  C:4413H         LINE#         1199
  C:4413H         LINE#         1202
  C:4432H         LINE#         1203
  C:4454H         LINE#         1204
  C:446BH         LINE#         1205
  C:448DH         LINE#         1206
  C:44A3H         LINE#         1207
  C:44C4H         LINE#         1208
  C:44DAH         LINE#         1209
  -------         ENDPROC       _INT32S2VAL
  -------         PROC          _CUSTOMPRO
  D:0021H         SYMBOL        buf
  D:0005H         SYMBOL        n
  -------         DO            
  D:0024H         SYMBOL        SfrPage_
  X:0C77H         SYMBOL        val
  -------         ENDDO         
  C:2B6CH         LINE#         1212
  C:2B72H         LINE#         1213
  C:2B72H         LINE#         1214
  C:2B75H         LINE#         1219
  C:2B7EH         LINE#         1222
  C:2B9FH         LINE#         1223
  C:2B9FH         LINE#         1224
  C:2B9FH         LINE#         1225
  C:2BADH         LINE#         1226
  C:2BB7H         LINE#         1227
  C:2BBFH         LINE#         1229
  C:2BC5H         LINE#         1231
  C:2BDCH         LINE#         1232
  C:2BEDH         LINE#         1233
  C:2BFEH         LINE#         1235
  C:2C04H         LINE#         1236
  C:2C1BH         LINE#         1237
  C:2C2CH         LINE#         1238
  C:2C3DH         LINE#         1240
BL51 BANKED LINKER/LOCATER V6.22                                                      06/13/2018  16:51:36  PAGE 80


  C:2C44H         LINE#         1241
  C:2C4BH         LINE#         1242
  C:2C52H         LINE#         1244
  C:2C58H         LINE#         1245
  C:2C6BH         LINE#         1246
  C:2C7CH         LINE#         1247
  C:2C8AH         LINE#         1249
  C:2CB3H         LINE#         1251
  C:2CB5H         LINE#         1252
  C:2CB5H         LINE#         1253
  C:2CB8H         LINE#         1256
  C:2CB8H         LINE#         1257
  C:2CC6H         LINE#         1258
  C:2CD0H         LINE#         1259
  C:2CD8H         LINE#         1261
  C:2CE3H         LINE#         1262
  C:2CE3H         LINE#         1263
  C:2CF1H         LINE#         1264
  C:2D1AH         LINE#         1265
  C:2D1CH         LINE#         1266
  C:2D1CH         LINE#         1267
  C:2D1FH         LINE#         1268
  C:2D1FH         LINE#         1270
  C:2D1FH         LINE#         1271
  C:2D2FH         LINE#         1272
  C:2D36H         LINE#         1273
  C:2D36H         LINE#         1275
  C:2D46H         LINE#         1276
  C:2D4BH         LINE#         1277
  C:2D4EH         LINE#         1278
  C:2D55H         LINE#         1279
  C:2D58H         LINE#         1280
  C:2D83H         LINE#         1282
  C:2D86H         LINE#         1283
  C:2D86H         LINE#         1284
  C:2D89H         LINE#         1287
  C:2D89H         LINE#         1288
  C:2D97H         LINE#         1289
  C:2DA1H         LINE#         1290
  C:2DA9H         LINE#         1292
  C:2DB4H         LINE#         1293
  C:2DB4H         LINE#         1294
  C:2DC2H         LINE#         1295
  C:2DEBH         LINE#         1296
  C:2DF0H         LINE#         1297
  C:2DF3H         LINE#         1298
  C:2DF3H         LINE#         1299
  C:2DF3H         LINE#         1301
  C:2DF3H         LINE#         1302
  C:2E03H         LINE#         1303
  C:2E0AH         LINE#         1304
  C:2E0AH         LINE#         1306
  C:2E1AH         LINE#         1307
  C:2E1FH         LINE#         1308
  C:2E22H         LINE#         1309
  C:2E25H         LINE#         1310
  C:2E25H         LINE#         1312
BL51 BANKED LINKER/LOCATER V6.22                                                      06/13/2018  16:51:36  PAGE 81


  C:2E25H         LINE#         1313
  C:2E25H         LINE#         1319
  C:2E25H         LINE#         1320
  -------         ENDPROC       _CUSTOMPRO
  -------         ENDMOD        MODBUSRTU

  -------         MODULE        SEND
  C:0000H         SYMBOL        _ICE_DUMMY_
  C:3373H         PUBLIC        SendSpeed
  D:0090H         PUBLIC        P1
  D:00A0H         PUBLIC        P2
  X:0BADH         PUBLIC        Braud_Num
  D:00A7H         PUBLIC        SFRPAGE
  C:3F30H         PUBLIC        Send_TimeProc
  D:000EH         SYMBOL        px_ax
  D:0010H         SYMBOL        py_ax
  C:39C0H         SYMBOL        _Send_CDeal
  C:3DEAH         SYMBOL        _Send_RDeal
  C:1DE9H         SYMBOL        _Send_SDeal
  C:0003H         SYMBOL        _Send_TDeal
  C:6456H         SYMBOL        _Send_UDeal
  C:4917H         SYMBOL        _Send_WDeal
  D:00ACH         PUBLIC        SBRL0
  C:3387H         PUBLIC        Braud
  -------         PROC          SEND_TIMEPROC
  -------         DO            
  X:0AE5H         SYMBOL        rx_buf
  D:0008H         SYMBOL        ptr
  D:000BH         SYMBOL        i
  D:000CH         SYMBOL        err
  D:000DH         SYMBOL        cmd
  -------         ENDDO         
  C:3F30H         LINE#         40
  C:3F30H         LINE#         41
  C:3F30H         LINE#         48
  C:3F36H         LINE#         50
  C:3F38H         LINE#         51
  C:3F41H         LINE#         52
  C:3F44H         LINE#         53
  C:3F44H         LINE#         54
  C:3F5AH         LINE#         55
  C:3F60H         LINE#         56
  C:3F60H         LINE#         57
  C:3F69H         LINE#         59
  C:3F70H         LINE#         60
  C:3F70H         LINE#         62
  C:3F79H         LINE#         63
  C:3F79H         LINE#         64
  C:3F79H         LINE#         65
  C:3F7BH         LINE#         68
  C:3F7BH         LINE#         70
  C:3FA0H         LINE#         71
  C:3FA0H         LINE#         72
  C:3FAFH         LINE#         73
  C:3FAFH         LINE#         74
  C:3FB2H         LINE#         75
  C:3FB2H         LINE#         77
BL51 BANKED LINKER/LOCATER V6.22                                                      06/13/2018  16:51:36  PAGE 82


  C:3FB5H         LINE#         79
  C:3FB5H         LINE#         81
  C:3FD4H         LINE#         82
  C:3FD4H         LINE#         84
  C:3FDDH         LINE#         85
  C:3FDDH         LINE#         86
  C:3FE7H         LINE#         87
  C:3FE8H         LINE#         90
  C:3FE8H         LINE#         91
  C:3FEEH         LINE#         92
  C:4006H         LINE#         93
  C:400EH         LINE#         94
  C:4019H         LINE#         95
  C:4019H         LINE#         96
  C:4021H         LINE#         97
  C:402CH         LINE#         98
  C:402CH         LINE#         99
  C:4037H         LINE#         100
  C:4037H         LINE#         101
  C:4042H         LINE#         102
  C:4042H         LINE#         103
  C:4049H         LINE#         104
  C:4054H         LINE#         105
  C:4054H         LINE#         106
  C:405BH         LINE#         107
  C:4066H         LINE#         108
  C:4066H         LINE#         109
  C:4066H         LINE#         110
  -------         ENDPROC       SEND_TIMEPROC
  -------         PROC          _SEND_RDEAL
  D:0021H         SYMBOL        buf
  D:0024H         SYMBOL        n
  -------         DO            
  D:0025H         SYMBOL        data_8u
  -------         ENDDO         
  C:3DEAH         LINE#         118
  C:3DF2H         LINE#         119
  C:3DF2H         LINE#         121
  C:3E07H         LINE#         122
  C:3E10H         LINE#         123
  C:3E13H         LINE#         124
  C:3E13H         LINE#         125
  C:3E2EH         LINE#         126
  C:3E37H         LINE#         127
  C:3E3AH         LINE#         128
  C:3E3AH         LINE#         129
  C:3E55H         LINE#         130
  C:3E5EH         LINE#         131
  C:3E61H         LINE#         132
  C:3E61H         LINE#         133
  C:3E7CH         LINE#         134
  C:3E85H         LINE#         135
  C:3E88H         LINE#         136
  C:3E88H         LINE#         137
  C:3EA3H         LINE#         138
  C:3EACH         LINE#         139
  C:3EAFH         LINE#         140
BL51 BANKED LINKER/LOCATER V6.22                                                      06/13/2018  16:51:36  PAGE 83


  C:3EAFH         LINE#         146
  C:3ECAH         LINE#         147
  C:3ED0H         LINE#         148
  C:3EE0H         LINE#         149
  C:3EE9H         LINE#         150
  C:3EEEH         LINE#         151
  C:3EEEH         LINE#         152
  C:3F09H         LINE#         153
  C:3F0EH         LINE#         154
  C:3F1EH         LINE#         155
  C:3F27H         LINE#         156
  C:3F2CH         LINE#         157
  C:3F2CH         LINE#         182
  C:3F2FH         LINE#         183
  -------         ENDPROC       _SEND_RDEAL
  -------         PROC          _SEND_CDEAL
  D:0021H         SYMBOL        buf
  D:0024H         SYMBOL        n
  C:39C0H         LINE#         191
  C:39C8H         LINE#         192
  C:39C8H         LINE#         193
  C:39DDH         LINE#         194
  C:39E6H         LINE#         195
  C:39F1H         LINE#         196
  C:39FCH         LINE#         197
  C:3A04H         LINE#         198
  C:3A04H         LINE#         199
  C:3A07H         LINE#         200
  C:3A22H         LINE#         201
  C:3A2BH         LINE#         202
  C:3A36H         LINE#         203
  C:3A39H         LINE#         204
  C:3A44H         LINE#         205
  C:3A4FH         LINE#         206
  C:3A4FH         LINE#         247
  C:3A6AH         LINE#         248
  C:3A73H         LINE#         249
  C:3A79H         LINE#         250
  C:3A81H         LINE#         251
  C:3A81H         LINE#         252
  C:3A84H         LINE#         253
  C:3A84H         LINE#         254
  C:3A87H         LINE#         255
  C:3AA2H         LINE#         256
  C:3AA8H         LINE#         257
  C:3AAEH         LINE#         258
  C:3AB6H         LINE#         259
  C:3AB6H         LINE#         260
  C:3AB8H         LINE#         261
  C:3AB8H         LINE#         262
  C:3ABAH         LINE#         263
  C:3AD5H         LINE#         264
  C:3ADBH         LINE#         265
  C:3AE1H         LINE#         266
  C:3AE9H         LINE#         267
  C:3AE9H         LINE#         268
  C:3AEBH         LINE#         269
BL51 BANKED LINKER/LOCATER V6.22                                                      06/13/2018  16:51:36  PAGE 84


  C:3AEBH         LINE#         270
  C:3AEDH         LINE#         271
  C:3B08H         LINE#         272
  C:3B0DH         LINE#         273
  C:3B13H         LINE#         274
  C:3B1EH         LINE#         275
  C:3B21H         LINE#         276
  C:3B21H         LINE#         277
  C:3B24H         LINE#         278
  C:3B24H         LINE#         279
  -------         ENDPROC       _SEND_CDEAL
  -------         PROC          _SEND_SDEAL
  D:0021H         SYMBOL        buf
  D:0024H         SYMBOL        n
  -------         DO            
  D:0025H         SYMBOL        data_ram
  D:0026H         SYMBOL        data_8u
  D:0027H         SYMBOL        data_32s
  D:0007H         SYMBOL        i
  D:002BH         SYMBOL        SfrPage_
  -------         ENDDO         
  C:1DE9H         LINE#         287
  C:1DF1H         LINE#         288
  C:1DF1H         LINE#         291
  C:1DF4H         LINE#         293
  C:1E09H         LINE#         294
  C:1E12H         LINE#         295
  C:1E1DH         LINE#         296
  C:1E20H         LINE#         297
  C:1E26H         LINE#         298
  C:1E27H         LINE#         299
  C:1E42H         LINE#         300
  C:1E4BH         LINE#         301
  C:1E56H         LINE#         302
  C:1E59H         LINE#         303
  C:1E5EH         LINE#         304
  C:1E75H         LINE#         305
  C:1E75H         LINE#         306
  C:1E78H         LINE#         307
  C:1E78H         LINE#         308
  C:1E79H         LINE#         309
  C:1EA0H         LINE#         310
  C:1EA9H         LINE#         311
  C:1EC2H         LINE#         312
  C:1EC2H         LINE#         313
  C:1EC2H         LINE#         314
  C:1ED6H         LINE#         316
  C:1ED6H         LINE#         317
  C:1EDBH         LINE#         318
  C:1EE0H         LINE#         319
  C:1EE3H         LINE#         320
  C:1EE5H         LINE#         322
  C:1EE5H         LINE#         323
  C:1EE8H         LINE#         324
  C:1EE8H         LINE#         325
  C:1F05H         LINE#         326
  C:1F06H         LINE#         327
BL51 BANKED LINKER/LOCATER V6.22                                                      06/13/2018  16:51:36  PAGE 85


  C:1F1BH         LINE#         328
  C:1F1EH         LINE#         329
  C:1F1EH         LINE#         330
  C:1F1EH         LINE#         331
  C:1F21H         LINE#         332
  C:1F2AH         LINE#         334
  C:1F45H         LINE#         335
  C:1F4EH         LINE#         336
  C:1F5EH         LINE#         337
  C:1F6FH         LINE#         338
  C:1F74H         LINE#         339
  C:1F7CH         LINE#         340
  C:1F7CH         LINE#         341
  C:1F7FH         LINE#         342
  C:1F9AH         LINE#         343
  C:1FA3H         LINE#         344
  C:1FA9H         LINE#         345
  C:1FAFH         LINE#         346
  C:1FB7H         LINE#         347
  C:1FB7H         LINE#         348
  C:1FBAH         LINE#         349
  C:1FD5H         LINE#         350
  C:1FDEH         LINE#         351
  C:1FE4H         LINE#         352
  C:1FEAH         LINE#         353
  C:1FF2H         LINE#         354
  C:1FF2H         LINE#         355
  C:1FF5H         LINE#         356
  C:2010H         LINE#         357
  C:2019H         LINE#         358
  C:2037H         LINE#         359
  C:2042H         LINE#         360
  C:2045H         LINE#         361
  C:2050H         LINE#         362
  C:2050H         LINE#         363
  C:206BH         LINE#         364
  C:2074H         LINE#         365
  C:2092H         LINE#         366
  C:209DH         LINE#         367
  C:20A0H         LINE#         368
  C:20ABH         LINE#         369
  C:20ABH         LINE#         379
  C:20C6H         LINE#         380
  C:20CFH         LINE#         381
  C:20DFH         LINE#         382
  C:20F3H         LINE#         383
  C:20F8H         LINE#         384
  C:2100H         LINE#         385
  C:2100H         LINE#         386
  C:2103H         LINE#         387
  C:211EH         LINE#         388
  C:2127H         LINE#         389
  C:2137H         LINE#         390
  C:214BH         LINE#         391
  C:2150H         LINE#         392
  C:2158H         LINE#         393
  C:2158H         LINE#         394
BL51 BANKED LINKER/LOCATER V6.22                                                      06/13/2018  16:51:36  PAGE 86


  C:215BH         LINE#         395
  C:2176H         LINE#         396
  C:217FH         LINE#         397
  C:219EH         LINE#         398
  C:21A1H         LINE#         400
  C:21A1H         LINE#         401
  C:21A9H         LINE#         402
  C:21A9H         LINE#         403
  C:21A9H         LINE#         404
  C:21ACH         LINE#         461
  C:21C7H         LINE#         462
  C:21D0H         LINE#         463
  C:220EH         LINE#         464
  C:220EH         LINE#         465
  C:2211H         LINE#         466
  C:222CH         LINE#         467
  C:2235H         LINE#         469
  C:2271H         LINE#         470
  C:2271H         LINE#         471
  C:2274H         LINE#         472
  C:228FH         LINE#         473
  C:2298H         LINE#         474
  C:22AFH         LINE#         475
  C:22B7H         LINE#         476
  C:22B7H         LINE#         477
  C:22BAH         LINE#         480
  C:22D5H         LINE#         481
  C:22DEH         LINE#         482
  C:22E9H         LINE#         483
  C:22ECH         LINE#         484
  C:22F3H         LINE#         485
  C:22F6H         LINE#         486
  C:22F6H         LINE#         487
  C:2311H         LINE#         488
  C:2311H         LINE#         489
  C:231AH         LINE#         490
  C:232AH         LINE#         491
  C:2332H         LINE#         492
  C:2338H         LINE#         493
  C:233DH         LINE#         494
  C:2340H         LINE#         495
  C:2347H         LINE#         496
  C:234AH         LINE#         497
  C:2379H         LINE#         498
  C:237CH         LINE#         499
  C:237DH         LINE#         500
  C:2398H         LINE#         501
  C:2398H         LINE#         502
  C:239EH         LINE#         503
  C:23AEH         LINE#         504
  C:23B6H         LINE#         505
  C:23BCH         LINE#         506
  C:23C7H         LINE#         507
  C:23CAH         LINE#         508
  C:23CAH         LINE#         509
  -------         ENDPROC       _SEND_SDEAL
  -------         PROC          _SEND_WDEAL
BL51 BANKED LINKER/LOCATER V6.22                                                      06/13/2018  16:51:36  PAGE 87


  D:0021H         SYMBOL        buf
  D:0024H         SYMBOL        n
  -------         DO            
  D:0025H         SYMBOL        data_x
  D:0027H         SYMBOL        data_y
  D:0029H         SYMBOL        data_t
  -------         ENDDO         
  C:4917H         LINE#         517
  C:491FH         LINE#         518
  C:491FH         LINE#         521
  C:4937H         LINE#         522
  C:4940H         LINE#         523
  C:495EH         LINE#         524
  C:497BH         LINE#         525
  C:4998H         LINE#         526
  C:49BAH         LINE#         527
  C:49C2H         LINE#         528
  C:49C4H         LINE#         530
  C:49C4H         LINE#         531
  C:49C4H         LINE#         532
  C:49C6H         LINE#         533
  C:49E1H         LINE#         534
  C:49E7H         LINE#         535
  C:49EAH         LINE#         537
  C:49EAH         LINE#         538
  C:4A08H         LINE#         539
  C:4A13H         LINE#         540
  C:4A16H         LINE#         541
  C:4A16H         LINE#         542
  -------         ENDPROC       _SEND_WDEAL
  -------         PROC          _SEND_UDEAL
  D:0021H         SYMBOL        buf
  D:0024H         SYMBOL        n
  C:6456H         LINE#         550
  C:645EH         LINE#         551
  C:645EH         LINE#         552
  C:6473H         LINE#         553
  C:6473H         LINE#         555
  C:6479H         LINE#         556
  C:647CH         LINE#         557
  C:6484H         LINE#         558
  C:6484H         LINE#         560
  C:6486H         LINE#         561
  C:64A1H         LINE#         562
  C:64A1H         LINE#         563
  C:64A6H         LINE#         564
  C:64A9H         LINE#         565
  C:64B4H         LINE#         566
  C:64B7H         LINE#         567
  C:64B7H         LINE#         569
  C:64BAH         LINE#         570
  -------         ENDPROC       _SEND_UDEAL
  -------         PROC          _SEND_TDEAL
  D:0001H         SYMBOL        buf
  D:0021H         SYMBOL        n
  C:0003H         LINE#         581
  C:0005H         LINE#         582
BL51 BANKED LINKER/LOCATER V6.22                                                      06/13/2018  16:51:36  PAGE 88


  C:0005H         LINE#         583
  C:001AH         LINE#         584
  C:001FH         LINE#         585
  C:0022H         LINE#         586
  C:0022H         LINE#         587
  -------         ENDPROC       _SEND_TDEAL
  -------         ENDMOD        SEND

  -------         MODULE        SENSOR
  C:0000H         SYMBOL        _ICE_DUMMY_
  D:0090H         PUBLIC        P1
  D:00A0H         PUBLIC        P2
  C:7579H         PUBLIC        _SnXFilter
  C:758BH         PUBLIC        _SnYFilter
  D:00E8H         PUBLIC        ADC0CN
  C:51ECH         SYMBOL        _GetOffset
  C:78CEH         PUBLIC        GetXAng
  C:78D5H         PUBLIC        GetYAng
  C:5C6EH         SYMBOL        _SnFilter
  C:7344H         PUBLIC        SnXDataInit
  C:735FH         PUBLIC        SnYDataInit
  C:7918H         PUBLIC        GetFilterCnt
  C:62B9H         SYMBOL        _Sn_DataInit
  C:791EH         PUBLIC        _SetFilterCnt
  C:763FH         PUBLIC        Get_McuTemp
  C:7831H         PUBLIC        GetXOftVal
  C:783AH         PUBLIC        GetYOftVal
  X:0BAEH         SYMBOL        filtercnt
  X:0BAFH         PUBLIC        accel_x
  C:55E7H         SYMBOL        _GetAngCalcVal
  X:0BCFH         PUBLIC        accel_y
  C:5FB5H         PUBLIC        Get_McuTempInCelsius
  C:5947H         PUBLIC        SnProc
  C:6105H         PUBLIC        SnInit
  C:781FH         PUBLIC        GetXFtVal
  C:7828H         PUBLIC        GetYFtVal
  C:780DH         PUBLIC        AngXCalc
  C:785CH         PUBLIC        _GetXOffset
  C:7816H         PUBLIC        AngYCalc
  C:7864H         PUBLIC        _GetYOffset
  C:53F7H         SYMBOL        _Ang_Calc
  -------         PROC          _SN_DATAINIT
  D:0021H         SYMBOL        p_sn
  D:0024H         SYMBOL        p_tempcal
  D:0027H         SYMBOL        p_angcal
  C:62B9H         LINE#         31
  C:62BFH         LINE#         32
  C:62BFH         LINE#         33
  C:62C5H         LINE#         34
  C:62D4H         LINE#         35
  C:62DEH         LINE#         36
  C:62E7H         LINE#         37
  C:62F1H         LINE#         38
  C:6309H         LINE#         39
  C:6321H         LINE#         40
  -------         ENDPROC       _SN_DATAINIT
  -------         PROC          _SNFILTER
BL51 BANKED LINKER/LOCATER V6.22                                                      06/13/2018  16:51:36  PAGE 89


  D:0021H         SYMBOL        p_sn
  D:0024H         SYMBOL        val
  D:0026H         SYMBOL        ftcnt
  C:5C6EH         LINE#         49
  C:5C78H         LINE#         50
  C:5C78H         LINE#         51
  C:5C91H         LINE#         52
  C:5C91H         LINE#         53
  C:5CAFH         LINE#         55
  C:5CCDH         LINE#         57
  C:5CCFH         LINE#         59
  C:5CDAH         LINE#         60
  -------         ENDPROC       _SNFILTER
  -------         PROC          L?0048
  -------         ENDPROC       L?0048
  -------         PROC          _GETOFFSET
  D:0021H         SYMBOL        p_sn
  D:0024H         SYMBOL        temp
  -------         DO            
  D:0026H         SYMBOL        i
  D:0004H         SYMBOL        offset
  -------         ENDDO         
  C:51ECH         LINE#         70
  C:51F6H         LINE#         71
  C:51F6H         LINE#         75
  C:5211H         LINE#         76
  C:5211H         LINE#         77
  C:5243H         LINE#         78
  C:5243H         LINE#         79
  C:5247H         LINE#         80
  C:5299H         LINE#         82
  C:529CH         LINE#         83
  -------         ENDPROC       _GETOFFSET
  -------         PROC          _GETANGCALCVAL
  D:0028H         SYMBOL        p_sn
  D:002BH         SYMBOL        val
  -------         DO            
  D:002DH         SYMBOL        i
  D:0004H         SYMBOL        tmp
  -------         ENDDO         
  C:55E7H         LINE#         92
  C:55F1H         LINE#         93
  C:55F1H         LINE#         97
  C:560CH         LINE#         98
  C:560CH         LINE#         99
  C:5631H         LINE#         100
  C:5631H         LINE#         101
  C:5635H         LINE#         102
  C:5687H         LINE#         103
  C:5687H         LINE#         104
  -------         ENDPROC       _GETANGCALCVAL
  -------         PROC          _ANG_CALC
  D:0021H         SYMBOL        p_sn
  -------         DO            
  D:0024H         SYMBOL        ang
  -------         ENDDO         
  C:53F7H         LINE#         113
BL51 BANKED LINKER/LOCATER V6.22                                                      06/13/2018  16:51:36  PAGE 90


  C:53FDH         LINE#         114
  C:53FDH         LINE#         116
  C:5411H         LINE#         117
  C:5425H         LINE#         118
  C:5436H         LINE#         119
  C:544CH         LINE#         120
  C:545DH         LINE#         122
  C:545DH         LINE#         123
  C:5470H         LINE#         124
  C:548EH         LINE#         125
  C:549DH         LINE#         126
  C:549DH         LINE#         127
  -------         ENDPROC       _ANG_CALC
  -------         PROC          SNXDATAINIT
  C:7344H         LINE#         133
  C:7344H         LINE#         134
  C:7344H         LINE#         135
  -------         ENDPROC       SNXDATAINIT
  -------         PROC          SNYDATAINIT
  C:735FH         LINE#         137
  C:735FH         LINE#         138
  C:735FH         LINE#         139
  -------         ENDPROC       SNYDATAINIT
  -------         PROC          _SNXFILTER
  D:0006H         SYMBOL        val
  D:0082H         SYMBOL        ftcnt
  C:7579H         LINE#         141
  C:757BH         LINE#         142
  C:757BH         LINE#         143
  -------         ENDPROC       _SNXFILTER
  -------         PROC          _SNYFILTER
  D:0006H         SYMBOL        val
  D:0082H         SYMBOL        ftcnt
  C:758BH         LINE#         145
  C:758DH         LINE#         146
  C:758DH         LINE#         147
  -------         ENDPROC       _SNYFILTER
  -------         PROC          _GETXOFFSET
  D:0004H         SYMBOL        temp
  C:785CH         LINE#         149
  C:785CH         LINE#         150
  C:785CH         LINE#         151
  C:7863H         LINE#         152
  -------         ENDPROC       _GETXOFFSET
  -------         PROC          _GETYOFFSET
  D:0004H         SYMBOL        temp
  C:7864H         LINE#         153
  C:7864H         LINE#         154
  C:7864H         LINE#         155
  C:786BH         LINE#         156
  -------         ENDPROC       _GETYOFFSET
  -------         PROC          ANGXCALC
  C:780DH         LINE#         157
  C:780DH         LINE#         158
  C:780DH         LINE#         159
  -------         ENDPROC       ANGXCALC
  -------         PROC          ANGYCALC
BL51 BANKED LINKER/LOCATER V6.22                                                      06/13/2018  16:51:36  PAGE 91


  C:7816H         LINE#         161
  C:7816H         LINE#         162
  C:7816H         LINE#         163
  -------         ENDPROC       ANGYCALC
  -------         PROC          SNINIT
  C:6105H         LINE#         172
  C:6105H         LINE#         173
  C:6105H         LINE#         174
  C:6108H         LINE#         175
  C:610DH         LINE#         176
  C:6119H         LINE#         177
  C:6123H         LINE#         178
  C:612DH         LINE#         179
  C:6137H         LINE#         180
  C:6140H         LINE#         182
  C:614CH         LINE#         183
  C:6156H         LINE#         184
  C:6160H         LINE#         185
  C:616AH         LINE#         186
  -------         ENDPROC       SNINIT
  -------         PROC          SNPROC
  C:5947H         LINE#         196
  C:5947H         LINE#         197
  C:5947H         LINE#         198
  C:5947H         LINE#         199
  C:594FH         LINE#         201
  C:5953H         LINE#         203
  C:595CH         LINE#         204
  C:595CH         LINE#         205
  C:595CH         LINE#         206
  C:5967H         LINE#         207
  C:596EH         LINE#         208
  C:598EH         LINE#         210
  C:5991H         LINE#         211
  C:5993H         LINE#         213
  C:5993H         LINE#         214
  C:599EH         LINE#         215
  C:59A5H         LINE#         216
  C:59C5H         LINE#         218
  C:59CEH         LINE#         219
  C:59CEH         LINE#         220
  C:59CEH         LINE#         221
  C:59CEH         LINE#         222
  C:59D1H         LINE#         223
  C:59D1H         LINE#         224
  -------         ENDPROC       SNPROC
  -------         PROC          GETFILTERCNT
  C:7918H         LINE#         233
  C:7918H         LINE#         234
  C:7918H         LINE#         235
  C:791DH         LINE#         236
  -------         ENDPROC       GETFILTERCNT
  -------         PROC          _SETFILTERCNT
  D:0007H         SYMBOL        cnt
  C:791EH         LINE#         244
  C:791EH         LINE#         245
  C:791EH         LINE#         246
BL51 BANKED LINKER/LOCATER V6.22                                                      06/13/2018  16:51:36  PAGE 92


  C:7923H         LINE#         247
  -------         ENDPROC       _SETFILTERCNT
  -------         PROC          L?0047
  -------         ENDPROC       L?0047
  -------         PROC          GET_MCUTEMP
  C:763FH         LINE#         256
  C:763FH         LINE#         257
  C:763FH         LINE#         261
  C:7642H         LINE#         262
  -------         ENDPROC       GET_MCUTEMP
  -------         PROC          GETXFTVAL
  C:781FH         LINE#         271
  C:781FH         LINE#         272
  C:781FH         LINE#         273
  C:7827H         LINE#         274
  -------         ENDPROC       GETXFTVAL
  -------         PROC          GETYFTVAL
  C:7828H         LINE#         283
  C:7828H         LINE#         284
  C:7828H         LINE#         285
  C:7830H         LINE#         286
  -------         ENDPROC       GETYFTVAL
  -------         PROC          GETXOFTVAL
  C:7831H         LINE#         295
  C:7831H         LINE#         296
  C:7831H         LINE#         297
  C:7839H         LINE#         298
  -------         ENDPROC       GETXOFTVAL
  -------         PROC          GETYOFTVAL
  C:783AH         LINE#         307
  C:783AH         LINE#         308
  C:783AH         LINE#         309
  C:7842H         LINE#         310
  -------         ENDPROC       GETYOFTVAL
  -------         PROC          GETXANG
  C:78CEH         LINE#         319
  C:78CEH         LINE#         320
  C:78CEH         LINE#         321
  C:78D4H         LINE#         322
  -------         ENDPROC       GETXANG
  -------         PROC          GETYANG
  C:78D5H         LINE#         331
  C:78D5H         LINE#         332
  C:78D5H         LINE#         333
  C:78DBH         LINE#         334
  -------         ENDPROC       GETYANG
  -------         PROC          GET_MCUTEMPINCELSIUS
  C:5FB5H         LINE#         336
  C:5FB5H         LINE#         337
  C:5FB5H         LINE#         344
  C:6025H         LINE#         345
  -------         ENDPROC       GET_MCUTEMPINCELSIUS
  -------         ENDMOD        SENSOR

  -------         MODULE        SUB
  C:0000H         SYMBOL        _ICE_DUMMY_
  C:3C88H         PUBLIC        _Sub_Int32s2Str
BL51 BANKED LINKER/LOCATER V6.22                                                      06/13/2018  16:51:36  PAGE 93


  C:3548H         PUBLIC        _Sub_Str2Int32s
  D:0090H         PUBLIC        P1
  C:7242H         PUBLIC        _Sub_Int16s2Str
  C:65D1H         PUBLIC        _Sub_Str2Int16s
  D:00A0H         PUBLIC        P2
  C:529DH         PUBLIC        _Sub_Int16u2Str
  C:5127H         PUBLIC        _Sub_Str2Int16u
  C:7495H         PUBLIC        _Comm_PutInt8u
  C:7790H         PUBLIC        Sub_SysRst
  C:76A4H         PUBLIC        Comm_PutNewLineSta
  D:00A7H         PUBLIC        SFRPAGE
  C:73ADH         PUBLIC        Sub_SendSysNum
  C:6FE4H         PUBLIC        _Sub_SendMcuT
  C:662BH         PUBLIC        Sub_SendTCalTest
  C:6AD5H         PUBLIC        _Sub_SendAdcTXY
  C:7553H         PUBLIC        _Comm_PutInt32s
  C:70B0H         PUBLIC        _Comm_PutInt16s
  C:6E7CH         PUBLIC        Sub_SendAngXYP
  C:73DEH         PUBLIC        _Comm_PutInt16u
  C:5063H         PUBLIC        _Sub_SendTempCal
  C:767BH         PUBLIC        Sub_SendErr
  C:72C7H         PUBLIC        _Sub_Str2Int8s
  C:766DH         PUBLIC        Sub_SendOk
  C:72E8H         PUBLIC        _Sub_Int8u2Str
  C:6D5AH         PUBLIC        _Sub_Str2Int8u
  C:6322H         PUBLIC        _Sub_BufBubble32s
  C:61E0H         PUBLIC        _Sub_BufBubble16s
  C:5E5BH         PUBLIC        _Sub_BufBubble16u
  C:6173H         PUBLIC        Sub_SendPrmtAll
  C:6965H         PUBLIC        _Sub_16SBufSwitch
  C:718EH         PUBLIC        Sub_SendAngXY
  D:00EFH         PUBLIC        RSTSRC
  C:7689H         PUBLIC        Sub_SendSoftVer
  C:5ED0H         PUBLIC        _Sub_SendMcuTempCal
  C:6786H         PUBLIC        _Sub_SBufSwitch
  C:69B1H         PUBLIC        _Sub_UBufSwitch
  -------         PROC          _COMM_PUTINT32S
  D:0004H         SYMBOL        val
  C:7553H         LINE#         26
  C:7553H         LINE#         27
  C:7553H         LINE#         28
  C:755CH         LINE#         29
  -------         ENDPROC       _COMM_PUTINT32S
  C:709EH         SYMBOL        L?0093
  -------         PROC          L?0092
  -------         ENDPROC       L?0092
  C:709EH         SYMBOL        L?0093
  -------         PROC          _COMM_PUTINT16S
  D:0004H         SYMBOL        val
  C:70B0H         LINE#         39
  C:70B4H         LINE#         40
  C:70B4H         LINE#         41
  C:70BDH         LINE#         42
  -------         ENDPROC       _COMM_PUTINT16S
  -------         PROC          _COMM_PUTINT16U
  D:0004H         SYMBOL        val
  C:73DEH         LINE#         51
BL51 BANKED LINKER/LOCATER V6.22                                                      06/13/2018  16:51:36  PAGE 94


  C:73E2H         LINE#         52
  C:73E2H         LINE#         53
  C:73EBH         LINE#         54
  -------         ENDPROC       _COMM_PUTINT16U
  -------         PROC          _COMM_PUTINT8U
  D:0005H         SYMBOL        val
  C:7495H         LINE#         63
  C:7497H         LINE#         64
  C:7497H         LINE#         65
  C:74A0H         LINE#         66
  -------         ENDPROC       _COMM_PUTINT8U
  -------         PROC          COMM_PUTNEWLINESTA
  C:76A4H         LINE#         76
  C:76A4H         LINE#         77
  C:76A4H         LINE#         78
  C:76A9H         LINE#         79
  C:76AEH         LINE#         80
  -------         ENDPROC       COMM_PUTNEWLINESTA
  -------         PROC          SUB_SENDOK
  -------         DO            
  D:0001H         SYMBOL        str
  -------         ENDDO         
  C:766DH         LINE#         89
  C:766DH         LINE#         90
  C:766DH         LINE#         91
  C:7673H         LINE#         92
  C:7678H         LINE#         93
  -------         ENDPROC       SUB_SENDOK
  -------         PROC          SUB_SENDERR
  -------         DO            
  D:0001H         SYMBOL        str
  -------         ENDDO         
  C:767BH         LINE#         97
  C:767BH         LINE#         98
  C:7681H         LINE#         101
  C:7686H         LINE#         102
  -------         ENDPROC       SUB_SENDERR
  -------         PROC          SUB_SENDANGXY
  C:718EH         LINE#         106
  C:718EH         LINE#         107
  C:718EH         LINE#         108
  C:7199H         LINE#         109
  C:719FH         LINE#         110
  C:71AAH         LINE#         111
  C:71B0H         LINE#         112
  -------         ENDPROC       SUB_SENDANGXY
  -------         PROC          SUB_SENDANGXYP
  C:6E7CH         LINE#         115
  C:6E7CH         LINE#         116
  C:6E7CH         LINE#         117
  C:6E87H         LINE#         118
  C:6E8DH         LINE#         120
  C:6E98H         LINE#         121
  C:6E9EH         LINE#         123
  C:6EA9H         LINE#         124
  C:6EAFH         LINE#         125
  -------         ENDPROC       SUB_SENDANGXYP
BL51 BANKED LINKER/LOCATER V6.22                                                      06/13/2018  16:51:36  PAGE 95


  -------         PROC          _SUB_SENDADCTXY
  D:0033H         SYMBOL        temp
  D:0035H         SYMBOL        x
  D:0037H         SYMBOL        y
  C:6AD5H         LINE#         129
  C:6AE1H         LINE#         130
  C:6AE1H         LINE#         131
  C:6AF3H         LINE#         132
  C:6B05H         LINE#         133
  C:6B17H         LINE#         134
  -------         ENDPROC       _SUB_SENDADCTXY
  -------         PROC          _SUB_SENDMCUT
  D:0030H         SYMBOL        temp
  D:0032H         SYMBOL        tadc
  C:6FE4H         LINE#         136
  C:6FECH         LINE#         137
  C:6FECH         LINE#         138
  C:6FFEH         LINE#         139
  C:7010H         LINE#         140
  -------         ENDPROC       _SUB_SENDMCUT
  -------         PROC          SUB_SENDPRMTALL
  C:6173H         LINE#         144
  C:6173H         LINE#         145
  C:6173H         LINE#         146
  C:6184H         LINE#         147
  C:6195H         LINE#         149
  C:61A0H         LINE#         150
  C:61ABH         LINE#         152
  C:61BCH         LINE#         154
  C:61C7H         LINE#         155
  C:61D2H         LINE#         157
  C:61DDH         LINE#         159
  -------         ENDPROC       SUB_SENDPRMTALL
  -------         PROC          _SUB_SENDTEMPCAL
  D:0026H         SYMBOL        i
  C:5063H         LINE#         183
  C:5065H         LINE#         184
  C:5065H         LINE#         185
  C:5075H         LINE#         186
  C:5082H         LINE#         188
  C:5095H         LINE#         189
  C:50A8H         LINE#         191
  C:50C3H         LINE#         192
  C:50E6H         LINE#         193
  C:5101H         LINE#         194
  C:5124H         LINE#         196
  -------         ENDPROC       _SUB_SENDTEMPCAL
  -------         PROC          _SUB_SENDMCUTEMPCAL
  D:0026H         SYMBOL        i
  C:5ED0H         LINE#         199
  C:5ED2H         LINE#         200
  C:5ED2H         LINE#         201
  C:5EE2H         LINE#         202
  C:5EEFH         LINE#         204
  C:5F02H         LINE#         207
  C:5F1DH         LINE#         208
  C:5F40H         LINE#         211
BL51 BANKED LINKER/LOCATER V6.22                                                      06/13/2018  16:51:36  PAGE 96


  -------         ENDPROC       _SUB_SENDMCUTEMPCAL
  -------         PROC          SUB_SENDSOFTVER
  C:7689H         LINE#         232
  C:7689H         LINE#         233
  C:7689H         LINE#         234
  C:7694H         LINE#         235
  -------         ENDPROC       SUB_SENDSOFTVER
  -------         PROC          SUB_SENDSYSNUM
  C:73ADH         LINE#         239
  C:73ADH         LINE#         240
  C:73ADH         LINE#         241
  C:73B8H         LINE#         242
  C:73C3H         LINE#         243
  -------         ENDPROC       SUB_SENDSYSNUM
  -------         PROC          SUB_SENDTCALTEST
  -------         DO            
  D:0022H         SYMBOL        TempX
  D:0024H         SYMBOL        TempY
  -------         ENDDO         
  C:662BH         LINE#         247
  C:662BH         LINE#         248
  C:662BH         LINE#         252
  C:663FH         LINE#         253
  C:6653H         LINE#         255
  C:6663H         LINE#         256
  C:666FH         LINE#         257
  C:6676H         LINE#         258
  C:6679H         LINE#         261
  -------         ENDPROC       SUB_SENDTCALTEST
  -------         PROC          _SUB_STR2INT32S
  D:002CH         SYMBOL        val
  D:002FH         SYMBOL        str
  -------         DO            
  D:0032H         SYMBOL        temp
  -------         ENDDO         
  C:3548H         LINE#         270
  C:354EH         LINE#         271
  C:354EH         LINE#         274
  C:3569H         LINE#         275
  C:357EH         LINE#         276
  C:358BH         LINE#         277
  C:35A0H         LINE#         278
  C:35B5H         LINE#         279
  C:35CAH         LINE#         280
  C:36A2H         LINE#         281
  C:36AEH         LINE#         282
  C:36AEH         LINE#         283
  C:36B0H         LINE#         284
  C:36B0H         LINE#         285
  C:36BCH         LINE#         286
  C:36D0H         LINE#         287
  C:36D3H         LINE#         288
  C:36D3H         LINE#         289
  C:36D5H         LINE#         290
  -------         ENDPROC       _SUB_STR2INT32S
  -------         PROC          _SUB_STR2INT16S
  D:002BH         SYMBOL        val
BL51 BANKED LINKER/LOCATER V6.22                                                      06/13/2018  16:51:36  PAGE 97


  D:002EH         SYMBOL        str
  -------         DO            
  D:0031H         SYMBOL        temp
  -------         ENDDO         
  C:65D1H         LINE#         292
  C:65D7H         LINE#         293
  C:65D7H         LINE#         294
  C:65F4H         LINE#         296
  C:6601H         LINE#         297
  C:660CH         LINE#         298
  C:660EH         LINE#         299
  C:660EH         LINE#         300
  C:6612H         LINE#         301
  C:6625H         LINE#         302
  C:6628H         LINE#         303
  C:6628H         LINE#         304
  C:662AH         LINE#         305
  -------         ENDPROC       _SUB_STR2INT16S
  -------         PROC          _SUB_STR2INT16U
  D:0033H         SYMBOL        val
  D:0036H         SYMBOL        str
  -------         DO            
  D:0007H         SYMBOL        i
  -------         ENDDO         
  C:5127H         LINE#         307
  C:512DH         LINE#         308
  C:512DH         LINE#         311
  C:512FH         LINE#         312
  C:5149H         LINE#         313
  C:514CH         LINE#         314
  C:5150H         LINE#         315
  C:51E3H         LINE#         316
  C:51E5H         LINE#         317
  -------         ENDPROC       _SUB_STR2INT16U
  -------         PROC          _SUB_STR2INT8U
  D:0001H         SYMBOL        str
  -------         DO            
  D:0007H         SYMBOL        val
  -------         ENDDO         
  C:6D5AH         LINE#         319
  C:6D5AH         LINE#         320
  C:6D5AH         LINE#         322
  C:6D6CH         LINE#         323
  C:6D81H         LINE#         324
  C:6D95H         LINE#         325
  C:6D95H         LINE#         326
  -------         ENDPROC       _SUB_STR2INT8U
  -------         PROC          _SUB_STR2INT8S
  D:002CH         SYMBOL        str
  -------         DO            
  D:0007H         SYMBOL        temp
  -------         ENDDO         
  C:72C7H         LINE#         327
  C:72CDH         LINE#         328
  C:72CDH         LINE#         330
  C:72D7H         LINE#         332
  C:72E3H         LINE#         333
BL51 BANKED LINKER/LOCATER V6.22                                                      06/13/2018  16:51:36  PAGE 98


  C:72E3H         LINE#         334
  C:72E7H         LINE#         335
  C:72E7H         LINE#         336
  C:72E7H         LINE#         337
  -------         ENDPROC       _SUB_STR2INT8S
  -------         PROC          _SUB_INT32S2STR
  D:002CH         SYMBOL        s
  D:002FH         SYMBOL        val
  C:3C88H         LINE#         339
  C:3C96H         LINE#         340
  C:3C96H         LINE#         341
  C:3C9AH         LINE#         342
  C:3C9AH         LINE#         343
  C:3CA5H         LINE#         344
  C:3CA7H         LINE#         345
  C:3CA9H         LINE#         347
  C:3CA9H         LINE#         348
  C:3CB4H         LINE#         349
  C:3CB4H         LINE#         350
  C:3CE5H         LINE#         352
  C:3D06H         LINE#         353
  C:3D28H         LINE#         354
  C:3D41H         LINE#         355
  C:3D63H         LINE#         356
  C:3D71H         LINE#         357
  C:3D91H         LINE#         358
  C:3DB2H         LINE#         359
  C:3DCAH         LINE#         360
  -------         ENDPROC       _SUB_INT32S2STR
  -------         PROC          _SUB_INT16S2STR
  D:0001H         SYMBOL        s
  D:0004H         SYMBOL        val
  C:7242H         LINE#         363
  C:7242H         LINE#         364
  C:7242H         LINE#         365
  C:724AH         LINE#         366
  C:7251H         LINE#         367
  C:7253H         LINE#         368
  C:7255H         LINE#         370
  C:725AH         LINE#         371
  C:725AH         LINE#         372
  -------         ENDPROC       _SUB_INT16S2STR
  -------         PROC          _SUB_INT16U2STR
  D:0039H         SYMBOL        s
  D:003CH         SYMBOL        val
  C:529DH         LINE#         375
  C:52A7H         LINE#         376
  C:52A7H         LINE#         377
  C:52B8H         LINE#         378
  C:52C7H         LINE#         379
  C:52E1H         LINE#         380
  C:52F0H         LINE#         381
  C:530AH         LINE#         382
  C:5319H         LINE#         383
  C:5333H         LINE#         384
  -------         ENDPROC       _SUB_INT16U2STR
  -------         PROC          _SUB_INT8U2STR
BL51 BANKED LINKER/LOCATER V6.22                                                      06/13/2018  16:51:36  PAGE 99


  D:0001H         SYMBOL        s
  D:0005H         SYMBOL        val
  C:72E8H         LINE#         387
  C:72E8H         LINE#         388
  C:72E8H         LINE#         389
  C:72EFH         LINE#         390
  C:72F9H         LINE#         391
  -------         ENDPROC       _SUB_INT8U2STR
  -------         PROC          _SUB_SBUFSWITCH
  D:002CH         SYMBOL        buf
  D:002FH         SYMBOL        i
  D:0030H         SYMBOL        j
  -------         DO            
  D:0031H         SYMBOL        temp
  -------         ENDDO         
  C:6786H         LINE#         401
  C:678EH         LINE#         402
  C:678EH         LINE#         405
  C:67A4H         LINE#         406
  C:67C0H         LINE#         407
  -------         ENDPROC       _SUB_SBUFSWITCH
  -------         PROC          _SUB_16SBUFSWITCH
  D:003DH         SYMBOL        buf
  D:0005H         SYMBOL        i
  D:0041H         SYMBOL        j
  -------         DO            
  D:0042H         SYMBOL        temp
  -------         ENDDO         
  C:6965H         LINE#         411
  C:696BH         LINE#         412
  C:696BH         LINE#         415
  C:697DH         LINE#         416
  C:699EH         LINE#         417
  -------         ENDPROC       _SUB_16SBUFSWITCH
  -------         PROC          _SUB_UBUFSWITCH
  D:003DH         SYMBOL        buf
  D:0005H         SYMBOL        i
  D:0041H         SYMBOL        j
  -------         DO            
  D:0042H         SYMBOL        temp
  -------         ENDDO         
  C:69B1H         LINE#         421
  C:69B7H         LINE#         422
  C:69B7H         LINE#         425
  C:69C9H         LINE#         426
  C:69EAH         LINE#         427
  -------         ENDPROC       _SUB_UBUFSWITCH
  -------         PROC          _SUB_BUFBUBBLE32S
  D:0023H         SYMBOL        id
  D:0026H         SYMBOL        x
  D:0029H         SYMBOL        n
  -------         DO            
  D:002AH         SYMBOL        i
  D:002BH         SYMBOL        j
  -------         ENDDO         
  C:6322H         LINE#         430
  C:6328H         LINE#         431
BL51 BANKED LINKER/LOCATER V6.22                                                      06/13/2018  16:51:36  PAGE 100


  C:6328H         LINE#         434
  C:6332H         LINE#         435
  C:633EH         LINE#         436
  C:6366H         LINE#         437
  C:6374H         LINE#         438
  C:6382H         LINE#         439
  C:6382H         LINE#         440
  C:6386H         LINE#         441
  C:638AH         LINE#         442
  -------         ENDPROC       _SUB_BUFBUBBLE32S
  -------         PROC          _SUB_BUFBUBBLE16S
  D:0025H         SYMBOL        id
  D:0028H         SYMBOL        x
  D:002BH         SYMBOL        n
  -------         DO            
  D:002CH         SYMBOL        i
  D:002DH         SYMBOL        j
  -------         ENDDO         
  C:61E0H         LINE#         444
  C:61E6H         LINE#         445
  C:61E6H         LINE#         448
  C:61F0H         LINE#         449
  C:61FCH         LINE#         450
  C:622EH         LINE#         451
  C:6236H         LINE#         452
  C:6244H         LINE#         453
  C:6244H         LINE#         454
  C:6248H         LINE#         455
  C:624CH         LINE#         456
  -------         ENDPROC       _SUB_BUFBUBBLE16S
  -------         PROC          _SUB_BUFBUBBLE16U
  D:0031H         SYMBOL        id
  D:0034H         SYMBOL        x
  D:0037H         SYMBOL        y
  D:003AH         SYMBOL        n
  -------         DO            
  D:003BH         SYMBOL        i
  D:003CH         SYMBOL        j
  -------         ENDDO         
  C:5E5BH         LINE#         461
  C:5E61H         LINE#         462
  C:5E61H         LINE#         465
  C:5E6BH         LINE#         466
  C:5E77H         LINE#         467
  C:5EA3H         LINE#         468
  C:5EABH         LINE#         469
  C:5EB9H         LINE#         470
  C:5EC7H         LINE#         471
  C:5EC7H         LINE#         472
  C:5ECBH         LINE#         473
  C:5ECFH         LINE#         474
  -------         ENDPROC       _SUB_BUFBUBBLE16U
  -------         PROC          SUB_SYSRST
  -------         DO            
  D:0007H         SYMBOL        SfrPage_
  -------         ENDDO         
  C:7790H         LINE#         477
BL51 BANKED LINKER/LOCATER V6.22                                                      06/13/2018  16:51:36  PAGE 101


  C:7790H         LINE#         478
  C:7792H         LINE#         481
  C:7795H         LINE#         482
  C:7798H         LINE#         483
  C:779AH         LINE#         484
  -------         ENDPROC       SUB_SYSRST
  -------         ENDMOD        SUB

  -------         MODULE        TIMER
  C:0000H         SYMBOL        _ICE_DUMMY_
  D:0090H         PUBLIC        P1
  D:001BH         SYMBOL        MainTime4En
  D:00A0H         PUBLIC        P2
  C:6CA5H         PUBLIC        Timer2_ISR
  D:00A7H         PUBLIC        SFRPAGE
  C:6EB2H         PUBLIC        Timer2_TaskInIsr
  B:00C8H.7       PUBLIC        TF2H
  D:00CCH         PUBLIC        TMR2
  C:6E0DH         PUBLIC        Timer2_Init
  D:00C8H         PUBLIC        TMR2CN
  D:00CAH         PUBLIC        TMR2RL
  B:00A8H.5       PUBLIC        ET2
  B:00C8H.2       PUBLIC        TR2
  C:759DH         PUBLIC        Timer2_TaskInMain
  D:008EH         PUBLIC        CKCON
  X:0CA5H         PUBLIC        MainTime4Cnt
  -------         PROC          TIMER2_INIT
  -------         DO            
  D:0007H         SYMBOL        SfrPage_
  -------         ENDDO         
  C:6E0DH         LINE#         26
  C:6E0DH         LINE#         27
  C:6E0DH         LINE#         28
  C:6E0FH         LINE#         29
  C:6E12H         LINE#         30
  C:6E14H         LINE#         31
  C:6E17H         LINE#         32
  C:6E1DH         LINE#         33
  C:6E23H         LINE#         34
  C:6E25H         LINE#         35
  C:6E27H         LINE#         36
  C:6E29H         LINE#         37
  C:6E44H         LINE#         38
  -------         ENDPROC       TIMER2_INIT
  -------         PROC          TIMER2_ISR
  C:6CA5H         LINE#         46
  C:6CC2H         LINE#         48
  C:6CC4H         LINE#         49
  C:6CC7H         LINE#         50
  -------         ENDPROC       TIMER2_ISR
  -------         PROC          TIMER2_TASKINISR
  C:6EB2H         LINE#         68
  C:6EB2H         LINE#         69
  C:6EB2H         LINE#         70
  C:6EB5H         LINE#         71
  C:6EBFH         LINE#         72
  C:6EC9H         LINE#         73
BL51 BANKED LINKER/LOCATER V6.22                                                      06/13/2018  16:51:36  PAGE 102


  C:6EC9H         LINE#         74
  C:6EE4H         LINE#         75
  C:6EE7H         LINE#         77
  C:6EE7H         LINE#         78
  -------         ENDPROC       TIMER2_TASKINISR
  -------         PROC          TIMER2_TASKINMAIN
  C:759DH         LINE#         86
  C:759DH         LINE#         87
  C:759DH         LINE#         88
  C:75A2H         LINE#         89
  C:75A5H         LINE#         90
  C:75ABH         LINE#         91
  C:75AEH         LINE#         93
  C:75AEH         LINE#         94
  -------         ENDPROC       TIMER2_TASKINMAIN
  -------         ENDMOD        TIMER

  -------         MODULE        CALMCUT
  C:0000H         SYMBOL        _ICE_DUMMY_
  D:0090H         PUBLIC        P1
  D:00A0H         PUBLIC        P2
  C:792AH         PUBLIC        McuT_CalStop
  C:794EH         PUBLIC        McuT_CalSta
  C:7326H         PUBLIC        _Mcut_CalSamp
  C:6C67H         SYMBOL        McuTCalcPrm
  C:3B25H         SYMBOL        _Mcut_CalcPrm
  X:09F4H         PUBLIC        McuTcal
  C:6C27H         PUBLIC        CalibMtInit
  C:743BH         SYMBOL        _McuT_RdAdcVal
  C:794AH         SYMBOL        _McuT_SetCalCnt
  X:0AD1H         SYMBOL        mtemp_buf
  C:4DD0H         PUBLIC        MTCalDataInit
  C:75F3H         SYMBOL        _McuT_RdTempVal
  C:7452H         SYMBOL        _McuT_WrAdcVal
  C:7924H         PUBLIC        GetMcuTCalCnt
  C:6A47H         PUBLIC        _McuT_CalValWr
  D:0019H         SYMBOL        PMCUTCAL
  C:774DH         PUBLIC        _GetMcuTCalAdcVal
  C:779BH         PUBLIC        _SetMcuTCalCnt
  C:7604H         SYMBOL        _McuT_WrTempVal
  C:5B65H         PUBLIC        _GetMt
  C:753EH         PUBLIC        _SetMcuTCalAdcVal
  C:7741H         PUBLIC        _GetMcuTCalTempVal
  C:7529H         PUBLIC        _SetMcuTCalTempVal
  -------         PROC          _MCUT_SETCALCNT
  D:0001H         SYMBOL        p_cal
  D:0005H         SYMBOL        num
  C:794AH         LINE#         15
  C:794AH         LINE#         16
  C:794AH         LINE#         17
  -------         ENDPROC       _MCUT_SETCALCNT
  -------         PROC          _MCUT_RDTEMPVAL
  D:0001H         SYMBOL        p_cal
  D:0005H         SYMBOL        posid
  C:75F3H         LINE#         28
  C:75F3H         LINE#         29
  C:75F3H         LINE#         30
BL51 BANKED LINKER/LOCATER V6.22                                                      06/13/2018  16:51:36  PAGE 103


  C:7603H         LINE#         31
  -------         ENDPROC       _MCUT_RDTEMPVAL
  -------         PROC          _MCUT_RDADCVAL
  D:0001H         SYMBOL        p_cal
  D:0005H         SYMBOL        posid
  C:743BH         LINE#         39
  C:743BH         LINE#         40
  C:743BH         LINE#         41
  C:7451H         LINE#         42
  -------         ENDPROC       _MCUT_RDADCVAL
  -------         PROC          _MCUT_WRTEMPVAL
  D:0001H         SYMBOL        p_cal
  D:0004H         SYMBOL        val
  D:002EH         SYMBOL        posid
  C:7604H         LINE#         51
  C:7604H         LINE#         52
  C:7604H         LINE#         53
  -------         ENDPROC       _MCUT_WRTEMPVAL
  -------         PROC          _MCUT_WRADCVAL
  D:0001H         SYMBOL        p_cal
  D:0004H         SYMBOL        val
  D:002EH         SYMBOL        posid
  C:7452H         LINE#         63
  C:7452H         LINE#         64
  C:7452H         LINE#         65
  -------         ENDPROC       _MCUT_WRADCVAL
  -------         PROC          _MCUT_CALCPRM
  D:0025H         SYMBOL        p_cal
  -------         DO            
  D:0028H         SYMBOL        i
  D:0029H         SYMBOL        aa
  -------         ENDDO         
  C:3B25H         LINE#         75
  C:3B2BH         LINE#         76
  C:3B2BH         LINE#         79
  C:3B42H         LINE#         80
  C:3B42H         LINE#         81
  C:3B73H         LINE#         82
  C:3C08H         LINE#         83
  C:3C82H         LINE#         84
  C:3C87H         LINE#         85
  -------         ENDPROC       _MCUT_CALCPRM
  -------         PROC          _SETMCUTCALCNT
  D:0005H         SYMBOL        cnt
  C:779BH         LINE#         94
  C:779DH         LINE#         95
  C:779DH         LINE#         96
  -------         ENDPROC       _SETMCUTCALCNT
  -------         PROC          GETMCUTCALCNT
  C:7924H         LINE#         106
  C:7924H         LINE#         107
  C:7924H         LINE#         108
  C:7929H         LINE#         109
  -------         ENDPROC       GETMCUTCALCNT
  -------         PROC          _GETMCUTCALTEMPVAL
  D:0005H         SYMBOL        pos
  C:7741H         LINE#         118
BL51 BANKED LINKER/LOCATER V6.22                                                      06/13/2018  16:51:36  PAGE 104


  C:7743H         LINE#         119
  C:7743H         LINE#         120
  C:774CH         LINE#         121
  -------         ENDPROC       _GETMCUTCALTEMPVAL
  -------         PROC          _GETMCUTCALADCVAL
  D:0005H         SYMBOL        pos
  C:774DH         LINE#         130
  C:774FH         LINE#         131
  C:774FH         LINE#         132
  C:7758H         LINE#         133
  -------         ENDPROC       _GETMCUTCALADCVAL
  -------         PROC          _SETMCUTCALTEMPVAL
  D:0082H         SYMBOL        val
  D:0007H         SYMBOL        pos
  C:7529H         LINE#         141
  C:752FH         LINE#         142
  C:752FH         LINE#         143
  -------         ENDPROC       _SETMCUTCALTEMPVAL
  -------         PROC          _SETMCUTCALADCVAL
  D:0082H         SYMBOL        val
  D:0007H         SYMBOL        pos
  C:753EH         LINE#         152
  C:7544H         LINE#         153
  C:7544H         LINE#         154
  -------         ENDPROC       _SETMCUTCALADCVAL
  -------         PROC          CALIBMTINIT
  C:6C27H         LINE#         159
  C:6C27H         LINE#         160
  C:6C27H         LINE#         161
  C:6C33H         LINE#         162
  C:6C3FH         LINE#         163
  C:6C49H         LINE#         164
  C:6C53H         LINE#         165
  C:6C5DH         LINE#         166
  -------         ENDPROC       CALIBMTINIT
  -------         PROC          MTCALDATAINIT
  -------         DO            
  D:0022H         SYMBOL        i
  -------         ENDDO         
  C:4DD0H         LINE#         178
  C:4DD0H         LINE#         179
  C:4DD0H         LINE#         181
  C:4DD5H         LINE#         182
  C:4DD8H         LINE#         183
  C:4DD8H         LINE#         184
  C:4E02H         LINE#         185
  C:4E06H         LINE#         186
  C:4E06H         LINE#         187
  C:4E19H         LINE#         188
  C:4E19H         LINE#         189
  C:4E42H         LINE#         190
  C:4E49H         LINE#         203
  C:4E57H         LINE#         204
  C:4E68H         LINE#         205
  C:4E73H         LINE#         206
  C:4E7EH         LINE#         207
  C:4E88H         LINE#         209
BL51 BANKED LINKER/LOCATER V6.22                                                      06/13/2018  16:51:36  PAGE 105


  C:4E92H         LINE#         210
  C:4E9AH         LINE#         211
  C:4EA1H         LINE#         212
  C:4EA8H         LINE#         213
  C:4EAFH         LINE#         215
  -------         ENDPROC       MTCALDATAINIT
  -------         PROC          _GETMT
  D:0016H         SYMBOL        tadc
  -------         DO            
  D:0018H         SYMBOL        i
  D:0004H         SYMBOL        offset
  -------         ENDDO         
  C:5B65H         LINE#         226
  C:5B69H         LINE#         227
  C:5B69H         LINE#         231
  C:5B7CH         LINE#         232
  C:5B7CH         LINE#         233
  C:5BA1H         LINE#         234
  C:5BA1H         LINE#         235
  C:5BA5H         LINE#         236
  C:5BE9H         LINE#         238
  C:5BE9H         LINE#         239
  -------         ENDPROC       _GETMT
  -------         PROC          MCUTCALCPRM
  C:6C67H         LINE#         250
  C:6C67H         LINE#         251
  C:6C67H         LINE#         253
  C:6C9CH         LINE#         255
  -------         ENDPROC       MCUTCALCPRM
  -------         PROC          _MCUT_CALVALWR
  D:0030H         SYMBOL        id
  D:0004H         SYMBOL        temp
  D:0031H         SYMBOL        tadc
  C:6A47H         LINE#         266
  C:6A4DH         LINE#         267
  C:6A4DH         LINE#         268
  C:6A57H         LINE#         269
  C:6A72H         LINE#         270
  C:6A8DH         LINE#         272
  C:6A8FH         LINE#         273
  -------         ENDPROC       _MCUT_CALVALWR
  -------         PROC          MCUT_CALSTA
  C:794EH         LINE#         281
  C:794EH         LINE#         282
  C:794EH         LINE#         285
  C:7950H         LINE#         286
  -------         ENDPROC       MCUT_CALSTA
  -------         PROC          MCUT_CALSTOP
  C:792AH         LINE#         294
  C:792AH         LINE#         295
  C:792AH         LINE#         298
  C:792DH         LINE#         299
  C:792FH         LINE#         300
  -------         ENDPROC       MCUT_CALSTOP
  -------         PROC          _MCUT_CALSAMP
  D:0007H         SYMBOL        id
  D:002CH         SYMBOL        temp
BL51 BANKED LINKER/LOCATER V6.22                                                      06/13/2018  16:51:36  PAGE 106


  D:002EH         SYMBOL        tadc
  C:7326H         LINE#         302
  C:732EH         LINE#         303
  C:732EH         LINE#         306
  C:7334H         LINE#         307
  C:7336H         LINE#         308
  C:7341H         LINE#         309
  C:7343H         LINE#         310
  -------         ENDPROC       _MCUT_CALSAMP
  -------         ENDMOD        CALMCUT

  -------         MODULE        COMPASS
  C:0000H         SYMBOL        _ICE_DUMMY_
  D:0090H         PUBLIC        P1
  D:00A0H         PUBLIC        P2
  B:0090H.5       PUBLIC        RESET
  X:0C43H         PUBLIC        OneOverCosPhi
  X:0C47H         SYMBOL        XAdcCalBuf
  X:0C4DH         SYMBOL        YAdcCalBuf
  C:6D96H         PUBLIC        Comp_CalDataInit
  C:7013H         PUBLIC        Comp_CalInit
  C:70CFH         PUBLIC        _Comp_GetAdc
  C:42BBH         PUBLIC        _Comp_AdcCorrectS
  B:0090H.3       PUBLIC        SS
  B:0090H.0       PUBLIC        SCLK
  C:44FAH         PUBLIC        Comp_CalSampProc
  B:0090H.4       PUBLIC        DRDY
  C:7951H         PUBLIC        Comp_SpiEnd
  B:0090H.2       PUBLIC        MOSI
  B:0090H.1       PUBLIC        MISO
  C:7843H         PUBLIC        Comp_HardwareInit
  C:721FH         PUBLIC        _Comp_SpiByteSend
  X:0C53H         PUBLIC        XOffset
  X:0C55H         PUBLIC        YOffset
  C:3026H         PUBLIC        Comp_AngCntProc
  C:77A6H         PUBLIC        Comp_SpiSta
  X:0C57H         PUBLIC        SinPhi
  C:33AFH         PUBLIC        Comp_CalPrmtCnt
  C:6BE5H         PUBLIC        Comp_SpiByteGet
  X:0C5BH         PUBLIC        XGain
  X:0C5DH         PUBLIC        YGain
  C:7930H         PUBLIC        Comp_SpiBusyTest
  C:4A17H         PUBLIC        _Comp_MidFilter
  -------         PROC          COMP_HARDWAREINIT
  C:7843H         LINE#         45
  C:7843H         LINE#         46
  C:7843H         LINE#         47
  C:7845H         LINE#         48
  C:7847H         LINE#         49
  C:7849H         LINE#         50
  C:784BH         LINE#         51
  -------         ENDPROC       COMP_HARDWAREINIT
  -------         PROC          COMP_SPISTA
  C:77A6H         LINE#         62
  C:77A6H         LINE#         63
  C:77A6H         LINE#         64
  C:77A8H         LINE#         65
BL51 BANKED LINKER/LOCATER V6.22                                                      06/13/2018  16:51:36  PAGE 107


  C:77AAH         LINE#         66
  C:77ACH         LINE#         67
  C:77AEH         LINE#         68
  C:77B0H         LINE#         69
  -------         ENDPROC       COMP_SPISTA
  -------         PROC          COMP_SPIBUSYTEST
  C:7930H         LINE#         80
  C:7930H         LINE#         81
  C:7930H         LINE#         82
  C:7935H         LINE#         83
  -------         ENDPROC       COMP_SPIBUSYTEST
  -------         PROC          _COMP_SPIBYTESEND
  D:0007H         SYMBOL        val
  -------         DO            
  X:0C80H         SYMBOL        i
  -------         ENDDO         
  C:721FH         LINE#         94
  C:721FH         LINE#         95
  C:721FH         LINE#         98
  C:722BH         LINE#         99
  C:722BH         LINE#         100
  C:722EH         LINE#         101
  C:7232H         LINE#         103
  C:7234H         LINE#         104
  C:7236H         LINE#         105
  C:7238H         LINE#         106
  C:7241H         LINE#         107
  -------         ENDPROC       _COMP_SPIBYTESEND
  -------         PROC          COMP_SPIBYTEGET
  -------         DO            
  X:0C80H         SYMBOL        val
  X:0C82H         SYMBOL        i
  -------         ENDDO         
  C:6BE5H         LINE#         118
  C:6BE5H         LINE#         119
  C:6BE5H         LINE#         120
  C:6BECH         LINE#         123
  C:6BEEH         LINE#         124
  C:6C00H         LINE#         125
  C:6C00H         LINE#         126
  C:6C02H         LINE#         127
  C:6C05H         LINE#         128
  C:6C05H         LINE#         129
  C:6C0FH         LINE#         130
  C:6C0FH         LINE#         131
  C:6C11H         LINE#         132
  C:6C1EH         LINE#         134
  C:6C26H         LINE#         135
  -------         ENDPROC       COMP_SPIBYTEGET
  -------         PROC          COMP_SPIEND
  C:7951H         LINE#         146
  C:7951H         LINE#         147
  C:7951H         LINE#         148
  C:7953H         LINE#         149
  -------         ENDPROC       COMP_SPIEND
  -------         PROC          L?0054
  -------         ENDPROC       L?0054
BL51 BANKED LINKER/LOCATER V6.22                                                      06/13/2018  16:51:36  PAGE 108


  -------         PROC          _COMP_GETADC
  D:0007H         SYMBOL        cmd
  -------         DO            
  X:0C7EH         SYMBOL        val
  -------         ENDDO         
  C:70CFH         LINE#         160
  C:70CFH         LINE#         161
  C:70CFH         LINE#         164
  C:70D2H         LINE#         165
  C:70D5H         LINE#         166
  C:70DBH         LINE#         167
  C:70E6H         LINE#         168
  C:70E9H         LINE#         170
  C:70F1H         LINE#         171
  -------         ENDPROC       _COMP_GETADC
  -------         PROC          _COMP_MIDFILTER
  D:0001H         SYMBOL        buf
  -------         DO            
  X:0C7CH         SYMBOL        min
  X:0C7EH         SYMBOL        max
  X:0C80H         SYMBOL        sum
  -------         ENDDO         
  C:4A17H         LINE#         182
  C:4A17H         LINE#         183
  C:4A17H         LINE#         184
  C:4A24H         LINE#         185
  C:4A33H         LINE#         186
  C:4A39H         LINE#         188
  C:4A57H         LINE#         189
  C:4A7AH         LINE#         190
  C:4A8BH         LINE#         192
  C:4AB6H         LINE#         193
  C:4AE1H         LINE#         194
  C:4AF2H         LINE#         196
  C:4B16H         LINE#         197
  -------         ENDPROC       _COMP_MIDFILTER
  -------         PROC          _COMP_ADCCORRECTS
  D:0021H         SYMBOL        x_ptr
  D:0024H         SYMBOL        y_ptr
  -------         DO            
  X:0C7EH         SYMBOL        x
  X:0C82H         SYMBOL        y
  -------         ENDDO         
  C:42BBH         LINE#         208
  C:42C1H         LINE#         209
  C:42C1H         LINE#         212
  C:4305H         LINE#         213
  C:434FH         LINE#         214
  C:4385H         LINE#         215
  C:439AH         LINE#         216
  C:43BEH         LINE#         217
  -------         ENDPROC       _COMP_ADCCORRECTS
  -------         PROC          COMP_ANGCNTPROC
  -------         DO            
  X:0C77H         SYMBOL        adc_x
  X:0C79H         SYMBOL        adc_y
  X:0C7BH         SYMBOL        tag
BL51 BANKED LINKER/LOCATER V6.22                                                      06/13/2018  16:51:36  PAGE 109


  X:0C7CH         SYMBOL        ang
  -------         ENDDO         
  C:3026H         LINE#         231
  C:3026H         LINE#         232
  C:3026H         LINE#         238
  C:302EH         LINE#         239
  C:3039H         LINE#         240
  C:304BH         LINE#         241
  C:305CH         LINE#         242
  C:306DH         LINE#         243
  C:309DH         LINE#         244
  C:30D9H         LINE#         245
  C:310CH         LINE#         246
  C:3112H         LINE#         247
  C:3168H         LINE#         248
  C:3178H         LINE#         249
  C:3178H         LINE#         250
  C:3189H         LINE#         251
  C:3199H         LINE#         252
  C:31AFH         LINE#         253
  C:31BEH         LINE#         254
  C:31BEH         LINE#         256
  C:31F0H         LINE#         258
  -------         ENDPROC       COMP_ANGCNTPROC
  -------         PROC          COMP_CALINIT
  C:7013H         LINE#         269
  C:7013H         LINE#         270
  C:7013H         LINE#         271
  C:7019H         LINE#         273
  C:7023H         LINE#         274
  C:702DH         LINE#         275
  C:7037H         LINE#         276
  C:7041H         LINE#         277
  -------         ENDPROC       COMP_CALINIT
  -------         PROC          COMP_CALSAMPPROC
  -------         DO            
  X:0C77H         SYMBOL        adc_x
  X:0C79H         SYMBOL        adc_y
  X:0C7BH         SYMBOL        i
  -------         ENDDO         
  C:44FAH         LINE#         288
  C:44FAH         LINE#         289
  C:44FAH         LINE#         294
  C:44FFH         LINE#         295
  C:44FFH         LINE#         296
  C:4513H         LINE#         297
  C:452AH         LINE#         298
  C:4536H         LINE#         299
  C:4547H         LINE#         300
  C:4556H         LINE#         301
  C:457AH         LINE#         302
  C:459EH         LINE#         303
  C:45D1H         LINE#         304
  C:4604H         LINE#         306
  -------         ENDPROC       COMP_CALSAMPPROC
  -------         PROC          COMP_CALPRMTCNT
  -------         DO            
BL51 BANKED LINKER/LOCATER V6.22                                                      06/13/2018  16:51:36  PAGE 110


  X:0C7FH         SYMBOL        Phi0
  X:0C83H         SYMBOL        Phi1
  X:0C87H         SYMBOL        Phi
  -------         ENDDO         
  C:33AFH         LINE#         317
  C:33AFH         LINE#         318
  C:33AFH         LINE#         323
  C:33B4H         LINE#         325
  C:33D8H         LINE#         326
  C:33FCH         LINE#         327
  C:3418H         LINE#         328
  C:3434H         LINE#         329
  C:3497H         LINE#         330
  C:34FAH         LINE#         331
  C:3518H         LINE#         332
  C:3527H         LINE#         333
  -------         ENDPROC       COMP_CALPRMTCNT
  -------         PROC          COMP_CALDATAINIT
  C:6D96H         LINE#         346
  C:6D96H         LINE#         347
  C:6D96H         LINE#         348
  C:6DA0H         LINE#         349
  C:6DAAH         LINE#         350
  C:6DB4H         LINE#         351
  C:6DBEH         LINE#         352
  C:6DC5H         LINE#         353
  C:6DCBH         LINE#         354
  C:6DD1H         LINE#         355
  -------         ENDPROC       COMP_CALDATAINIT
  -------         ENDMOD        COMPASS

  -------         MODULE        ?C?FPADD
  C:0055H         PUBLIC        ?C?FPADD
  C:0051H         PUBLIC        ?C?FPSUB
  -------         ENDMOD        ?C?FPADD

  -------         MODULE        ?C?FPMUL
  C:0146H         PUBLIC        ?C?FPMUL
  -------         ENDMOD        ?C?FPMUL

  -------         MODULE        ?C?FPDIV
  C:024FH         PUBLIC        ?C?FPDIV
  -------         ENDMOD        ?C?FPDIV

  -------         MODULE        ?C?FPCMP
  C:02EEH         PUBLIC        ?C?FPCMP
  C:02ECH         PUBLIC        ?C?FPCMP3
  -------         ENDMOD        ?C?FPCMP

  -------         MODULE        ?C?FCAST
  C:0363H         PUBLIC        ?C?FCASTC
  C:035EH         PUBLIC        ?C?FCASTI
  C:0359H         PUBLIC        ?C?FCASTL
  -------         ENDMOD        ?C?FCAST

  -------         MODULE        ?C?CASTF
  C:0397H         PUBLIC        ?C?CASTF
BL51 BANKED LINKER/LOCATER V6.22                                                      06/13/2018  16:51:36  PAGE 111


  -------         ENDMOD        ?C?CASTF

  -------         MODULE        SQRT
  C:5351H         PUBLIC        _SQRT
  -------         ENDMOD        SQRT

  -------         MODULE        SIN
  C:389AH         PUBLIC        _COS
  C:38B0H         PUBLIC        _SIN
  C:38E2H         PUBLIC        _TAN
  -------         ENDMOD        SIN

  -------         MODULE        ATAN
  C:41B3H         PUBLIC        _ATAN
  -------         ENDMOD        ATAN

  -------         MODULE        ASIN
  C:6DD2H         PUBLIC        _ASIN
  -------         ENDMOD        ASIN

  -------         MODULE        ?C?CLDPTR
  C:0465H         PUBLIC        ?C?CLDPTR
  -------         ENDMOD        ?C?CLDPTR

  -------         MODULE        ?C?CLDOPTR
  C:047EH         PUBLIC        ?C?CLDOPTR
  -------         ENDMOD        ?C?CLDOPTR

  -------         MODULE        ?C?CILDPTR
  C:04ABH         PUBLIC        ?C?CILDPTR
  -------         ENDMOD        ?C?CILDPTR

  -------         MODULE        ?C?CILDOPTR
  C:04CDH         PUBLIC        ?C?CILDOPTR
  -------         ENDMOD        ?C?CILDOPTR

  -------         MODULE        ?C?CSTPTR
  C:0500H         PUBLIC        ?C?CSTPTR
  -------         ENDMOD        ?C?CSTPTR

  -------         MODULE        ?C?CSTOPTR
  C:0512H         PUBLIC        ?C?CSTOPTR
  -------         ENDMOD        ?C?CSTOPTR

  -------         MODULE        ?C?IMUL
  C:0534H         PUBLIC        ?C?IMUL
  -------         ENDMOD        ?C?IMUL

  -------         MODULE        ?C?UIDIV
  C:0546H         PUBLIC        ?C?UIDIV
  -------         ENDMOD        ?C?UIDIV

  -------         MODULE        ?C?SIDIV
  C:059BH         PUBLIC        ?C?SIDIV
  -------         ENDMOD        ?C?SIDIV

  -------         MODULE        ?C?IILDX
BL51 BANKED LINKER/LOCATER V6.22                                                      06/13/2018  16:51:36  PAGE 112


  C:05D1H         PUBLIC        ?C?IILDX
  -------         ENDMOD        ?C?IILDX

  -------         MODULE        ?C?ILDPTR
  C:05E7H         PUBLIC        ?C?ILDPTR
  -------         ENDMOD        ?C?ILDPTR

  -------         MODULE        ?C?ILDOPTR
  C:0612H         PUBLIC        ?C?ILDOPTR
  -------         ENDMOD        ?C?ILDOPTR

  -------         MODULE        ?C?IILDPTR
  C:064AH         PUBLIC        ?C?IILDPTR
  -------         ENDMOD        ?C?IILDPTR

  -------         MODULE        ?C?IILDOPTR
  C:0682H         PUBLIC        ?C?IILDOPTR
  -------         ENDMOD        ?C?IILDOPTR

  -------         MODULE        ?C?ISTPTR
  C:06CFH         PUBLIC        ?C?ISTPTR
  -------         ENDMOD        ?C?ISTPTR

  -------         MODULE        ?C?ISTOPTR
  C:06EEH         PUBLIC        ?C?ISTOPTR
  -------         ENDMOD        ?C?ISTOPTR

  -------         MODULE        ?C?LADD
  C:071BH         PUBLIC        ?C?LADD
  -------         ENDMOD        ?C?LADD

  -------         MODULE        ?C?LMUL
  C:0728H         PUBLIC        ?C?LMUL
  -------         ENDMOD        ?C?LMUL

  -------         MODULE        ?C?ULDIV
  C:07B3H         PUBLIC        ?C?ULDIV
  -------         ENDMOD        ?C?ULDIV

  -------         MODULE        ?C?SLDIV
  C:6B5EH         PUBLIC        ?C?SLDIV
  -------         ENDMOD        ?C?SLDIV

  -------         MODULE        ?C?LNEG
  C:0845H         PUBLIC        ?C?LNEG
  -------         ENDMOD        ?C?LNEG

  -------         MODULE        ?C?SLCMP
  C:0853H         PUBLIC        ?C?SLCMP
  -------         ENDMOD        ?C?SLCMP

  -------         MODULE        ?C?ULCMP
  C:0869H         PUBLIC        ?C?ULCMP
  -------         ENDMOD        ?C?ULCMP

  -------         MODULE        ?C?ULSHR
  C:087AH         PUBLIC        ?C?ULSHR
BL51 BANKED LINKER/LOCATER V6.22                                                      06/13/2018  16:51:36  PAGE 113


  -------         ENDMOD        ?C?ULSHR

  -------         MODULE        ?C?LSHL
  C:088DH         PUBLIC        ?C?LSHL
  -------         ENDMOD        ?C?LSHL

  -------         MODULE        ?C?LLDPTR
  C:08A0H         PUBLIC        ?C?LLDPTR
  -------         ENDMOD        ?C?LLDPTR

  -------         MODULE        ?C?LLDOPTR
  C:08C0H         PUBLIC        ?C?LLDOPTR
  -------         ENDMOD        ?C?LLDOPTR

  -------         MODULE        ?C?LSTPTR
  C:08F0H         PUBLIC        ?C?LSTPTR
  -------         ENDMOD        ?C?LSTPTR

  -------         MODULE        ?C?LSTOPTR
  C:090AH         PUBLIC        ?C?LSTOPTR
  -------         ENDMOD        ?C?LSTOPTR

  -------         MODULE        ?C?LLDXDATA
  C:092EH         PUBLIC        ?C?LLDXDATA
  -------         ENDMOD        ?C?LLDXDATA

  -------         MODULE        ?C?LLDCODE
  C:093AH         PUBLIC        ?C?LLDCODE
  -------         ENDMOD        ?C?LLDCODE

  -------         MODULE        ?C?LLDXDATA0
  C:094AH         PUBLIC        ?C?LLDXDATA0
  -------         ENDMOD        ?C?LLDXDATA0

  -------         MODULE        ?C?LLDCODE0
  C:0956H         PUBLIC        ?C?LLDCODE0
  -------         ENDMOD        ?C?LLDCODE0

  -------         MODULE        ?C?LLDOPTR0
  C:0966H         PUBLIC        ?C?LLDOPTR0
  -------         ENDMOD        ?C?LLDOPTR0

  -------         MODULE        ?C?LSTXDATA
  C:0996H         PUBLIC        ?C?LSTXDATA
  -------         ENDMOD        ?C?LSTXDATA

  -------         MODULE        ?C?LSTKXDATA
  C:09A2H         PUBLIC        ?C?LSTKXDATA
  -------         ENDMOD        ?C?LSTKXDATA

  -------         MODULE        ?C?LSTKOPTR
  C:09D3H         PUBLIC        ?C?LSTKOPTR
  -------         ENDMOD        ?C?LSTKOPTR

  -------         MODULE        ?C?OFFXADD
  C:09F7H         PUBLIC        ?C?OFFXADD
  -------         ENDMOD        ?C?OFFXADD
BL51 BANKED LINKER/LOCATER V6.22                                                      06/13/2018  16:51:36  PAGE 114



  -------         MODULE        ?C?PLDIIDATA
  C:0A03H         PUBLIC        ?C?PLDIIDATA
  -------         ENDMOD        ?C?PLDIIDATA

  -------         MODULE        ?C?PLDXDATA
  C:0A13H         PUBLIC        ?C?PLDXDATA
  -------         ENDMOD        ?C?PLDXDATA

  -------         MODULE        ?C?PSTXDATA
  C:0A1CH         PUBLIC        ?C?PSTXDATA
  -------         ENDMOD        ?C?PSTXDATA

  -------         MODULE        ?C?PLDOPTR
  C:0A25H         PUBLIC        ?C?PLDOPTR
  -------         ENDMOD        ?C?PLDOPTR

  -------         MODULE        ?C?PLDIOPTR
  C:0A55H         PUBLIC        ?C?PLDIOPTR
  -------         ENDMOD        ?C?PLDIOPTR

  -------         MODULE        ?C?PSTOPTR
  C:0A87H         PUBLIC        ?C?PSTOPTR
  -------         ENDMOD        ?C?PSTOPTR

  -------         MODULE        ?C?CCASE
  C:0AE0H         PUBLIC        ?C?CCASE
  -------         ENDMOD        ?C?CCASE

  -------         MODULE        ?C?ICASE
  C:0B06H         PUBLIC        ?C?ICASE
  -------         ENDMOD        ?C?ICASE

  -------         MODULE        ?C?ICALL
  C:0B33H         PUBLIC        ?C?ICALL
  C:0B37H         PUBLIC        ?C?ICALL2
  -------         ENDMOD        ?C?ICALL

  -------         MODULE        STRNCMP
  D:002CH         PUBLIC        ?_strncmp?BYTE
  C:6096H         PUBLIC        _strncmp
  -------         ENDMOD        STRNCMP

  -------         MODULE        STRNCPY
  D:002BH         PUBLIC        ?_strncpy?BYTE
  C:67DCH         PUBLIC        _strncpy
  -------         ENDMOD        STRNCPY

  -------         MODULE        ?C?LLDIDATA
  C:0B39H         PUBLIC        ?C?LLDIDATA
  -------         ENDMOD        ?C?LLDIDATA

  -------         MODULE        ?C?LLDPDATA
  C:0B45H         PUBLIC        ?C?LLDPDATA
  -------         ENDMOD        ?C?LLDPDATA

  -------         MODULE        ?C?LLDIDATA0
BL51 BANKED LINKER/LOCATER V6.22                                                      06/13/2018  16:51:36  PAGE 115


  C:0B51H         PUBLIC        ?C?LLDIDATA0
  -------         ENDMOD        ?C?LLDIDATA0

  -------         MODULE        ?C?LLDPDATA0
  C:0B5EH         PUBLIC        ?C?LLDPDATA0
  -------         ENDMOD        ?C?LLDPDATA0

  -------         MODULE        ?C?LSTIDATA
  C:0B6BH         PUBLIC        ?C?LSTIDATA
  -------         ENDMOD        ?C?LSTIDATA

  -------         MODULE        ?C?LSTPDATA
  C:0B77H         PUBLIC        ?C?LSTPDATA
  -------         ENDMOD        ?C?LSTPDATA

  -------         MODULE        ?C?LSTKIDATA
  C:0B83H         PUBLIC        ?C?LSTKIDATA
  -------         ENDMOD        ?C?LSTKIDATA

  -------         MODULE        ?C?LSTKPDATA
  C:0B9CH         PUBLIC        ?C?LSTKPDATA
  -------         ENDMOD        ?C?LSTKPDATA

  -------         MODULE        ?C?PLDIDATA
  C:0BB5H         PUBLIC        ?C?PLDIDATA
  -------         ENDMOD        ?C?PLDIDATA

  -------         MODULE        ?C?PSTIDATA
  C:0BBEH         PUBLIC        ?C?PSTIDATA
  -------         ENDMOD        ?C?PSTIDATA

  -------         MODULE        ?C?PLDIXDATA
  C:0BC7H         PUBLIC        ?C?PLDIXDATA
  -------         ENDMOD        ?C?PLDIXDATA

  -------         MODULE        ?C?PLDPDATA
  C:0BDEH         PUBLIC        ?C?PLDPDATA
  -------         ENDMOD        ?C?PLDPDATA

  -------         MODULE        ?C?PLDIPDATA
  C:0BE7H         PUBLIC        ?C?PLDIPDATA
  -------         ENDMOD        ?C?PLDIPDATA

  -------         MODULE        ?C?PSTPDATA
  C:0BF7H         PUBLIC        ?C?PSTPDATA
  -------         ENDMOD        ?C?PSTPDATA

  -------         MODULE        ?C?PLDCODE
  C:0C00H         PUBLIC        ?C?PLDCODE
  -------         ENDMOD        ?C?PLDCODE

*** WARNING L16: UNCALLED SEGMENT, IGNORED FOR OVERLAY PROCESS
    SEGMENT: ?PR?_GETMT?CALMCUT

Program Size: data=117.4 xdata=3240 code=31059
LINK/LOCATE RUN COMPLETE.  1 WARNING(S),  0 ERROR(S)
