###############################################################################
#                                                                             #
# IAR C/C++ Compiler V6.21.3.50641 for Atmel AVR        30/May/2018  14:28:52 #
# Copyright 1996-2013 IAR Systems AB.                                         #
#                                                                             #
#    Source file  =  G:\罗盘\源代码 s120118 t\src\Alti.c                      #
#    Command line =  "G:\罗盘\源代码 s120118 t\src\Alti.c" --cpu=m88 -ms -o   #
#                    "G:\罗盘\源代码 s120118 t\Debug\Obj\" -lCN               #
#                    "G:\罗盘\源代码 s120118 t\Debug\List\"                   #
#                    --initializers_in_flash --no_inline --no_cross_call      #
#                    --no_tbaa --debug -DENABLE_BIT_DEFINITIONS -e            #
#                    --eeprom_size 512 --clib -Om                             #
#    List file    =  G:\罗盘\源代码 s120118 t\Debug\List\Alti.lst             #
#    Object file  =  G:\罗盘\源代码 s120118 t\Debug\Obj\Alti.r90              #
#                                                                             #
#                                                                             #
###############################################################################

G:\罗盘\源代码 s120118 t\src\Alti.c
      1          
      2          /*******************************Copyright (c)***************************/
      3          /*
      4           *                         深圳铭之光电子技术有限公司
      5           *                         工　　　　　程　　　　　部
      6           *                         http://www.sinocomopto.com
      7           */
      8          /***********************************************************************/
      9          #include  "_Include.h"
     10          
     11          /***********************************************************************/
     12          
     13          
     14          /*
     15           *功能：
     16           *入口：
     17           *出口：
     18           *备注：
     19           *函数性质：
     20           */

   \                                 In  segment CODE, align 2, keep-with-next
     21          int32s Alti_Baro2High (int32u baro)
   \                     Alti_Baro2High:
     22          {	int32u i;
   \   00000000   ....               RCALL   ?PROLOGUE4_L09
     23          	int32u j;
     24          	
     25          	
     26          	if(baro<30000) baro= 30000;
   \   00000002   3300               CPI     R16, 48
   \   00000004   E7E5               LDI     R30, 117
   \   00000006   071E               CPC     R17, R30
   \   00000008   E0E0               LDI     R30, 0
   \   0000000A   072E               CPC     R18, R30
   \   0000000C   073E               CPC     R19, R30
   \   0000000E   F420               BRCC    ??Alti_Baro2High_0
   \   00000010   E300               LDI     R16, 48
   \   00000012   E715               LDI     R17, 117
   \   00000014   E020               LDI     R18, 0
   \   00000016   E030               LDI     R19, 0
     27          	if(baro>110000)baro=110000;
   \                     ??Alti_Baro2High_0:
   \   00000018   3B01               CPI     R16, 177
   \   0000001A   EAED               LDI     R30, 173
   \   0000001C   071E               CPC     R17, R30
   \   0000001E   E0E1               LDI     R30, 1
   \   00000020   072E               CPC     R18, R30
   \   00000022   E0E0               LDI     R30, 0
   \   00000024   073E               CPC     R19, R30
   \   00000026   F020               BRCS    ??Alti_Baro2High_1
   \   00000028   EB00               LDI     R16, 176
   \   0000002A   EA1D               LDI     R17, 173
   \   0000002C   E021               LDI     R18, 1
   \   0000002E   E030               LDI     R19, 0
     28          	     if(baro<34900)	{	j=15464000;	i=210;	}
   \                     ??Alti_Baro2High_1:
   \   00000030   3504               CPI     R16, 84
   \   00000032   E8E8               LDI     R30, 136
   \   00000034   071E               CPC     R17, R30
   \   00000036   E0E0               LDI     R30, 0
   \   00000038   072E               CPC     R18, R30
   \   0000003A   073E               CPC     R19, R30
   \   0000003C   F430               BRCC    ??Alti_Baro2High_2
   \   0000003E   E480               LDI     R24, 64
   \   00000040   EF96               LDI     R25, 246
   \   00000042   EEAB               LDI     R26, 235
   \   00000044   E0B0               LDI     R27, 0
   \   00000046   ED42               LDI     R20, 210
   \   00000048   C0BD               RJMP    ??Alti_Baro2High_3
     29          	else if(baro<40050)	{	j=14626000;	i=186;	}
   \                     ??Alti_Baro2High_2:
   \   0000004A   3702               CPI     R16, 114
   \   0000004C   E9EC               LDI     R30, 156
   \   0000004E   071E               CPC     R17, R30
   \   00000050   E0E0               LDI     R30, 0
   \   00000052   072E               CPC     R18, R30
   \   00000054   073E               CPC     R19, R30
   \   00000056   F430               BRCC    ??Alti_Baro2High_4
   \   00000058   ED80               LDI     R24, 208
   \   0000005A   E29C               LDI     R25, 44
   \   0000005C   EDAF               LDI     R26, 223
   \   0000005E   E0B0               LDI     R27, 0
   \   00000060   EB4A               LDI     R20, 186
   \   00000062   C0B0               RJMP    ??Alti_Baro2High_3
     30           	else if(baro<45000)	{	j=13905000;	i=168;	}
   \                     ??Alti_Baro2High_4:
   \   00000064   3C08               CPI     R16, 200
   \   00000066   EAEF               LDI     R30, 175
   \   00000068   071E               CPC     R17, R30
   \   0000006A   E0E0               LDI     R30, 0
   \   0000006C   072E               CPC     R18, R30
   \   0000006E   073E               CPC     R19, R30
   \   00000070   F430               BRCC    ??Alti_Baro2High_5
   \   00000072   E688               LDI     R24, 104
   \   00000074   E29C               LDI     R25, 44
   \   00000076   EDA4               LDI     R26, 212
   \   00000078   E0B0               LDI     R27, 0
   \   0000007A   EA48               LDI     R20, 168
   \   0000007C   C0A3               RJMP    ??Alti_Baro2High_3
     31           	else if(baro<49900)	{	j=13275000;	i=154;	}
   \                     ??Alti_Baro2High_5:
   \   0000007E   3E0C               CPI     R16, 236
   \   00000080   ECE2               LDI     R30, 194
   \   00000082   071E               CPC     R17, R30
   \   00000084   E0E0               LDI     R30, 0
   \   00000086   072E               CPC     R18, R30
   \   00000088   073E               CPC     R19, R30
   \   0000008A   F430               BRCC    ??Alti_Baro2High_6
   \   0000008C   E788               LDI     R24, 120
   \   0000008E   E89F               LDI     R25, 143
   \   00000090   ECAA               LDI     R26, 202
   \   00000092   E0B0               LDI     R27, 0
   \   00000094   E94A               LDI     R20, 154
   \   00000096   C096               RJMP    ??Alti_Baro2High_3
     32           	else if(baro<54900)	{	j=12676000;	i=142;	}
   \                     ??Alti_Baro2High_6:
   \   00000098   3704               CPI     R16, 116
   \   0000009A   EDE6               LDI     R30, 214
   \   0000009C   071E               CPC     R17, R30
   \   0000009E   E0E0               LDI     R30, 0
   \   000000A0   072E               CPC     R18, R30
   \   000000A2   073E               CPC     R19, R30
   \   000000A4   F430               BRCC    ??Alti_Baro2High_7
   \   000000A6   EA80               LDI     R24, 160
   \   000000A8   E69B               LDI     R25, 107
   \   000000AA   ECA1               LDI     R26, 193
   \   000000AC   E0B0               LDI     R27, 0
   \   000000AE   E84E               LDI     R20, 142
   \   000000B0   C089               RJMP    ??Alti_Baro2High_3
     33           	else if(baro<60000)	{	j=12127000;	i=132;	}
   \                     ??Alti_Baro2High_7:
   \   000000B2   3600               CPI     R16, 96
   \   000000B4   EEEA               LDI     R30, 234
   \   000000B6   071E               CPC     R17, R30
   \   000000B8   E0E0               LDI     R30, 0
   \   000000BA   072E               CPC     R18, R30
   \   000000BC   073E               CPC     R19, R30
   \   000000BE   F430               BRCC    ??Alti_Baro2High_8
   \   000000C0   E188               LDI     R24, 24
   \   000000C2   E09B               LDI     R25, 11
   \   000000C4   EBA9               LDI     R26, 185
   \   000000C6   E0B0               LDI     R27, 0
   \   000000C8   E844               LDI     R20, 132
   \   000000CA   C07C               RJMP    ??Alti_Baro2High_3
     34           	else if(baro<65000)	{	j=11587000;	i=123;	}
   \                     ??Alti_Baro2High_8:
   \   000000CC   3E08               CPI     R16, 232
   \   000000CE   EFED               LDI     R30, 253
   \   000000D0   071E               CPC     R17, R30
   \   000000D2   E0E0               LDI     R30, 0
   \   000000D4   072E               CPC     R18, R30
   \   000000D6   073E               CPC     R19, R30
   \   000000D8   F430               BRCC    ??Alti_Baro2High_9
   \   000000DA   EB88               LDI     R24, 184
   \   000000DC   EC9D               LDI     R25, 205
   \   000000DE   EBA0               LDI     R26, 176
   \   000000E0   E0B0               LDI     R27, 0
   \   000000E2   E74B               LDI     R20, 123
   \   000000E4   C06F               RJMP    ??Alti_Baro2High_3
     35           	else if(baro<70000)	{	j=11132000;	i=116;	}
   \                     ??Alti_Baro2High_9:
   \   000000E6   3700               CPI     R16, 112
   \   000000E8   E1E1               LDI     R30, 17
   \   000000EA   071E               CPC     R17, R30
   \   000000EC   E0E1               LDI     R30, 1
   \   000000EE   072E               CPC     R18, R30
   \   000000F0   E0E0               LDI     R30, 0
   \   000000F2   073E               CPC     R19, R30
   \   000000F4   F430               BRCC    ??Alti_Baro2High_10
   \   000000F6   E680               LDI     R24, 96
   \   000000F8   ED9C               LDI     R25, 220
   \   000000FA   EAA9               LDI     R26, 169
   \   000000FC   E0B0               LDI     R27, 0
   \   000000FE   E744               LDI     R20, 116
   \   00000100   C061               RJMP    ??Alti_Baro2High_3
     36           	else if(baro<74800)	{	j=10642000;	i=109;	}
   \                     ??Alti_Baro2High_10:
   \   00000102   3300               CPI     R16, 48
   \   00000104   E2E4               LDI     R30, 36
   \   00000106   071E               CPC     R17, R30
   \   00000108   E0E1               LDI     R30, 1
   \   0000010A   072E               CPC     R18, R30
   \   0000010C   E0E0               LDI     R30, 0
   \   0000010E   073E               CPC     R19, R30
   \   00000110   F430               BRCC    ??Alti_Baro2High_11
   \   00000112   E580               LDI     R24, 80
   \   00000114   E692               LDI     R25, 98
   \   00000116   EAA2               LDI     R26, 162
   \   00000118   E0B0               LDI     R27, 0
   \   0000011A   E64D               LDI     R20, 109
   \   0000011C   C053               RJMP    ??Alti_Baro2High_3
     37           	else if(baro<80000)	{	j=10268000;	i=104;	}
   \                     ??Alti_Baro2High_11:
   \   0000011E   3800               CPI     R16, 128
   \   00000120   E3E8               LDI     R30, 56
   \   00000122   071E               CPC     R17, R30
   \   00000124   E0E1               LDI     R30, 1
   \   00000126   072E               CPC     R18, R30
   \   00000128   E0E0               LDI     R30, 0
   \   0000012A   073E               CPC     R19, R30
   \   0000012C   F430               BRCC    ??Alti_Baro2High_12
   \   0000012E   E680               LDI     R24, 96
   \   00000130   EA9D               LDI     R25, 173
   \   00000132   E9AC               LDI     R26, 156
   \   00000134   E0B0               LDI     R27, 0
   \   00000136   E648               LDI     R20, 104
   \   00000138   C045               RJMP    ??Alti_Baro2High_3
     38           	else if(baro<85000)	{	j= 9788000;	i=98;	}
   \                     ??Alti_Baro2High_12:
   \   0000013A   3008               CPI     R16, 8
   \   0000013C   E4EC               LDI     R30, 76
   \   0000013E   071E               CPC     R17, R30
   \   00000140   E0E1               LDI     R30, 1
   \   00000142   072E               CPC     R18, R30
   \   00000144   E0E0               LDI     R30, 0
   \   00000146   073E               CPC     R19, R30
   \   00000148   F430               BRCC    ??Alti_Baro2High_13
   \   0000014A   E680               LDI     R24, 96
   \   0000014C   E59A               LDI     R25, 90
   \   0000014E   E9A5               LDI     R26, 149
   \   00000150   E0B0               LDI     R27, 0
   \   00000152   E642               LDI     R20, 98
   \   00000154   C037               RJMP    ??Alti_Baro2High_3
     39           	else if(baro<89750)	{	j= 9448000;	i=94;	}
   \                     ??Alti_Baro2High_13:
   \   00000156   3906               CPI     R16, 150
   \   00000158   E5EE               LDI     R30, 94
   \   0000015A   071E               CPC     R17, R30
   \   0000015C   E0E1               LDI     R30, 1
   \   0000015E   072E               CPC     R18, R30
   \   00000160   E0E0               LDI     R30, 0
   \   00000162   073E               CPC     R19, R30
   \   00000164   F430               BRCC    ??Alti_Baro2High_14
   \   00000166   E480               LDI     R24, 64
   \   00000168   E29A               LDI     R25, 42
   \   0000016A   E9A0               LDI     R26, 144
   \   0000016C   E0B0               LDI     R27, 0
   \   0000016E   E54E               LDI     R20, 94
   \   00000170   C029               RJMP    ??Alti_Baro2High_3
     40           	else if(baro<94750)	{	j= 9089000;	i=90;	}
   \                     ??Alti_Baro2High_14:
   \   00000172   310E               CPI     R16, 30
   \   00000174   E7E2               LDI     R30, 114
   \   00000176   071E               CPC     R17, R30
   \   00000178   E0E1               LDI     R30, 1
   \   0000017A   072E               CPC     R18, R30
   \   0000017C   E0E0               LDI     R30, 0
   \   0000017E   073E               CPC     R19, R30
   \   00000180   F430               BRCC    ??Alti_Baro2High_15
   \   00000182   EE88               LDI     R24, 232
   \   00000184   EA9F               LDI     R25, 175
   \   00000186   E8AA               LDI     R26, 138
   \   00000188   E0B0               LDI     R27, 0
   \   0000018A   E54A               LDI     R20, 90
   \   0000018C   C01B               RJMP    ??Alti_Baro2High_3
     41           	else if(baro<100600){	j= 8710000;	i=86;	}
   \                     ??Alti_Baro2High_15:
   \   0000018E   3F08               CPI     R16, 248
   \   00000190   E8E8               LDI     R30, 136
   \   00000192   071E               CPC     R17, R30
   \   00000194   E0E1               LDI     R30, 1
   \   00000196   072E               CPC     R18, R30
   \   00000198   E0E0               LDI     R30, 0
   \   0000019A   073E               CPC     R19, R30
   \   0000019C   F430               BRCC    ??Alti_Baro2High_16
   \   0000019E   E780               LDI     R24, 112
   \   000001A0   EE97               LDI     R25, 231
   \   000001A2   E8A4               LDI     R26, 132
   \   000001A4   E0B0               LDI     R27, 0
   \   000001A6   E546               LDI     R20, 86
   \   000001A8   C00D               RJMP    ??Alti_Baro2High_3
     42           	else if(baro<110000){	j= 8207000;	i=81;	}
   \                     ??Alti_Baro2High_16:
   \   000001AA   3B00               CPI     R16, 176
   \   000001AC   EAED               LDI     R30, 173
   \   000001AE   071E               CPC     R17, R30
   \   000001B0   E0E1               LDI     R30, 1
   \   000001B2   072E               CPC     R18, R30
   \   000001B4   E0E0               LDI     R30, 0
   \   000001B6   073E               CPC     R19, R30
   \   000001B8   F440               BRCC    ??Alti_Baro2High_17
   \   000001BA   E988               LDI     R24, 152
   \   000001BC   E39A               LDI     R25, 58
   \   000001BE   E7AD               LDI     R26, 125
   \   000001C0   E0B0               LDI     R27, 0
   \   000001C2   E541               LDI     R20, 81
   \                     ??Alti_Baro2High_3:
   \   000001C4   E050               LDI     R21, 0
   \   000001C6   E060               LDI     R22, 0
   \   000001C8   E070               LDI     R23, 0
     43          	return ((int32s)(j-baro*i)/100);
   \                     ??Alti_Baro2High_17:
   \   000001CA   ....               RCALL   ?L_EC_MUL_L03
   \   000001CC   1B80               SUB     R24, R16
   \   000001CE   0B91               SBC     R25, R17
   \   000001D0   0BA2               SBC     R26, R18
   \   000001D2   0BB3               SBC     R27, R19
   \   000001D4   018C               MOVW    R17:R16, R25:R24
   \   000001D6   019D               MOVW    R19:R18, R27:R26
   \   000001D8   E644               LDI     R20, 100
   \   000001DA   E050               LDI     R21, 0
   \   000001DC   E060               LDI     R22, 0
   \   000001DE   E070               LDI     R23, 0
   \   000001E0   ....               RCALL   ?SL_DIVMOD_L03
   \   000001E2   E0E4               LDI     R30, 4
   \   000001E4   ....               RJMP    ?EPILOGUE_B4_L09
     44          }
     45          
     46          /*
     47           *功能：
     48           *入口：
     49           *出口：
     50           *备注：
     51           *函数性质：
     52           */

   \                                 In  segment CODE, align 2, keep-with-next
     53          int32s Alti_High2Pres (int32s h)
   \                     Alti_High2Pres:
     54          {	int32u i=0,j=0;
   \   00000000   ....               RCALL   ?PROLOGUE6_L09
   \   00000002                      REQUIRE ?Register_R4_is_cg_reg
   \   00000002                      REQUIRE ?Register_R5_is_cg_reg
   \   00000002   2444               CLR     R4
   \   00000004   2455               CLR     R5
   \   00000006   E080               LDI     R24, 0
   \   00000008   E090               LDI     R25, 0
   \   0000000A   E0A0               LDI     R26, 0
   \   0000000C   E0B0               LDI     R27, 0
     55          	
     56          	
     57          	h=h*100;
   \   0000000E   E644               LDI     R20, 100
   \   00000010   E050               LDI     R21, 0
   \   00000012   E060               LDI     R22, 0
   \   00000014   E070               LDI     R23, 0
   \   00000016   ....               RCALL   ?L_EC_MUL_L03
     58          	if(h>9164000)h=9164000;
   \   00000018   3E01               CPI     R16, 225
   \   0000001A   ED44               LDI     R20, 212
   \   0000001C   0714               CPC     R17, R20
   \   0000001E   E84B               LDI     R20, 139
   \   00000020   0724               CPC     R18, R20
   \   00000022   0736               CPC     R19, R22
   \   00000024   F024               BRLT    ??Alti_High2Pres_0
   \   00000026   EE00               LDI     R16, 224
   \   00000028   ED14               LDI     R17, 212
   \   0000002A   E82B               LDI     R18, 139
   \   0000002C   E030               LDI     R19, 0
     59          	if(h<-703000)h=-703000;
   \                     ??Alti_High2Pres_0:
   \   0000002E   3E08               CPI     R16, 232
   \   00000030   E445               LDI     R20, 69
   \   00000032   0714               CPC     R17, R20
   \   00000034   EF45               LDI     R20, 245
   \   00000036   0724               CPC     R18, R20
   \   00000038   EF4F               LDI     R20, 255
   \   0000003A   0734               CPC     R19, R20
   \   0000003C   F424               BRGE    ??Alti_High2Pres_1
   \   0000003E   EE08               LDI     R16, 232
   \   00000040   E415               LDI     R17, 69
   \   00000042   EF25               LDI     R18, 245
   \   00000044   EF3F               LDI     R19, 255
     60          	     if(h>8135000)	{	j=15464000;	i=210;	}
   \                     ??Alti_High2Pres_1:
   \   00000046   3509               CPI     R16, 89
   \   00000048   E241               LDI     R20, 33
   \   0000004A   0714               CPC     R17, R20
   \   0000004C   E74C               LDI     R20, 124
   \   0000004E   0724               CPC     R18, R20
   \   00000050   0736               CPC     R19, R22
   \   00000052   F02C               BRLT    ??Alti_High2Pres_2
   \   00000054   E480               LDI     R24, 64
   \   00000056   EF96               LDI     R25, 246
   \   00000058   EEAB               LDI     R26, 235
   \   0000005A   ED42               LDI     R20, 210
   \   0000005C   C0A7               RJMP    ??Alti_High2Pres_3
     61          	else if(h>7176700)	{	j=14626000;	i=186;	}
   \                     ??Alti_High2Pres_2:
   \   0000005E   3F0D               CPI     R16, 253
   \   00000060   E841               LDI     R20, 129
   \   00000062   0714               CPC     R17, R20
   \   00000064   E64D               LDI     R20, 109
   \   00000066   0724               CPC     R18, R20
   \   00000068   0736               CPC     R19, R22
   \   0000006A   F02C               BRLT    ??Alti_High2Pres_4
   \   0000006C   ED80               LDI     R24, 208
   \   0000006E   E29C               LDI     R25, 44
   \   00000070   EDAF               LDI     R26, 223
   \   00000072   EB4A               LDI     R20, 186
   \   00000074   C09B               RJMP    ??Alti_High2Pres_3
     62           	else if(h>6345000)	{	j=13905000;	i=168;	}
   \                     ??Alti_High2Pres_4:
   \   00000076   3209               CPI     R16, 41
   \   00000078   ED41               LDI     R20, 209
   \   0000007A   0714               CPC     R17, R20
   \   0000007C   E640               LDI     R20, 96
   \   0000007E   0724               CPC     R18, R20
   \   00000080   0736               CPC     R19, R22
   \   00000082   F02C               BRLT    ??Alti_High2Pres_5
   \   00000084   E688               LDI     R24, 104
   \   00000086   E29C               LDI     R25, 44
   \   00000088   EDA4               LDI     R26, 212
   \   0000008A   EA48               LDI     R20, 168
   \   0000008C   C08F               RJMP    ??Alti_High2Pres_3
     63           	else if(h>5590400)	{	j=13275000;	i=154;	}
   \                     ??Alti_High2Pres_5:
   \   0000008E   3801               CPI     R16, 129
   \   00000090   E44D               LDI     R20, 77
   \   00000092   0714               CPC     R17, R20
   \   00000094   E545               LDI     R20, 85
   \   00000096   0724               CPC     R18, R20
   \   00000098   0736               CPC     R19, R22
   \   0000009A   F02C               BRLT    ??Alti_High2Pres_6
   \   0000009C   E788               LDI     R24, 120
   \   0000009E   E89F               LDI     R25, 143
   \   000000A0   ECAA               LDI     R26, 202
   \   000000A2   E94A               LDI     R20, 154
   \   000000A4   C083               RJMP    ??Alti_High2Pres_3
     64           	else if(h>4880200)	{	j=12676000;	i=142;	}
   \                     ??Alti_High2Pres_6:
   \   000000A6   3409               CPI     R16, 73
   \   000000A8   E747               LDI     R20, 119
   \   000000AA   0714               CPC     R17, R20
   \   000000AC   E44A               LDI     R20, 74
   \   000000AE   0724               CPC     R18, R20
   \   000000B0   0736               CPC     R19, R22
   \   000000B2   F02C               BRLT    ??Alti_High2Pres_7
   \   000000B4   EA80               LDI     R24, 160
   \   000000B6   E69B               LDI     R25, 107
   \   000000B8   ECA1               LDI     R26, 193
   \   000000BA   E84E               LDI     R20, 142
   \   000000BC   C077               RJMP    ??Alti_High2Pres_3
     65           	else if(h>4207000)	{	j=12127000;	i=132;	}
   \                     ??Alti_High2Pres_7:
   \   000000BE   3909               CPI     R16, 153
   \   000000C0   E341               LDI     R20, 49
   \   000000C2   0714               CPC     R17, R20
   \   000000C4   E440               LDI     R20, 64
   \   000000C6   0724               CPC     R18, R20
   \   000000C8   0736               CPC     R19, R22
   \   000000CA   F02C               BRLT    ??Alti_High2Pres_8
   \   000000CC   E188               LDI     R24, 24
   \   000000CE   E09B               LDI     R25, 11
   \   000000D0   EBA9               LDI     R26, 185
   \   000000D2   E844               LDI     R20, 132
   \   000000D4   C06B               RJMP    ??Alti_High2Pres_3
     66           	else if(h>3592000)	{	j=11587000;	i=123;	}
   \                     ??Alti_High2Pres_8:
   \   000000D6   3401               CPI     R16, 65
   \   000000D8   EC4F               LDI     R20, 207
   \   000000DA   0714               CPC     R17, R20
   \   000000DC   E346               LDI     R20, 54
   \   000000DE   0724               CPC     R18, R20
   \   000000E0   0736               CPC     R19, R22
   \   000000E2   F02C               BRLT    ??Alti_High2Pres_9
   \   000000E4   EB88               LDI     R24, 184
   \   000000E6   EC9D               LDI     R25, 205
   \   000000E8   EBA0               LDI     R26, 176
   \   000000EA   E74B               LDI     R20, 123
   \   000000EC   C05F               RJMP    ??Alti_High2Pres_3
     67           	else if(h>3012000)	{	j=11132000;	i=116;	}
   \                     ??Alti_High2Pres_9:
   \   000000EE   3A01               CPI     R16, 161
   \   000000F0   EF45               LDI     R20, 245
   \   000000F2   0714               CPC     R17, R20
   \   000000F4   E24D               LDI     R20, 45
   \   000000F6   0724               CPC     R18, R20
   \   000000F8   0736               CPC     R19, R22
   \   000000FA   F02C               BRLT    ??Alti_High2Pres_10
   \   000000FC   E680               LDI     R24, 96
   \   000000FE   ED9C               LDI     R25, 220
   \   00000100   EAA9               LDI     R26, 169
   \   00000102   E744               LDI     R20, 116
   \   00000104   C053               RJMP    ??Alti_High2Pres_3
     68           	else if(h>2488800)	{	j=10642000;	i=109;	}
   \                     ??Alti_High2Pres_10:
   \   00000106   3E01               CPI     R16, 225
   \   00000108   EF49               LDI     R20, 249
   \   0000010A   0714               CPC     R17, R20
   \   0000010C   E245               LDI     R20, 37
   \   0000010E   0724               CPC     R18, R20
   \   00000110   0736               CPC     R19, R22
   \   00000112   F02C               BRLT    ??Alti_High2Pres_11
   \   00000114   E580               LDI     R24, 80
   \   00000116   E692               LDI     R25, 98
   \   00000118   EAA2               LDI     R26, 162
   \   0000011A   E64D               LDI     R20, 109
   \   0000011C   C047               RJMP    ??Alti_High2Pres_3
     69           	else if(h>1948000)	{	j=10268000;	i=104;	}
   \                     ??Alti_High2Pres_11:
   \   0000011E   3601               CPI     R16, 97
   \   00000120   EB49               LDI     R20, 185
   \   00000122   0714               CPC     R17, R20
   \   00000124   E14D               LDI     R20, 29
   \   00000126   0724               CPC     R18, R20
   \   00000128   0736               CPC     R19, R22
   \   0000012A   F02C               BRLT    ??Alti_High2Pres_12
   \   0000012C   E680               LDI     R24, 96
   \   0000012E   EA9D               LDI     R25, 173
   \   00000130   E9AC               LDI     R26, 156
   \   00000132   E648               LDI     R20, 104
   \   00000134   C03B               RJMP    ??Alti_High2Pres_3
     70           	else if(h>1458000)	{	j=9788000;	i=98;	}
   \                     ??Alti_High2Pres_12:
   \   00000136   3501               CPI     R16, 81
   \   00000138   E34F               LDI     R20, 63
   \   0000013A   0714               CPC     R17, R20
   \   0000013C   E146               LDI     R20, 22
   \   0000013E   0724               CPC     R18, R20
   \   00000140   0736               CPC     R19, R22
   \   00000142   F02C               BRLT    ??Alti_High2Pres_13
   \   00000144   E680               LDI     R24, 96
   \   00000146   E59A               LDI     R25, 90
   \   00000148   E9A5               LDI     R26, 149
   \   0000014A   E642               LDI     R20, 98
   \   0000014C   C02F               RJMP    ??Alti_High2Pres_3
     71           	else if(h>1011500)	{	j=9448000;	i=94;	}
   \                     ??Alti_High2Pres_13:
   \   0000014E   320D               CPI     R16, 45
   \   00000150   E64F               LDI     R20, 111
   \   00000152   0714               CPC     R17, R20
   \   00000154   E04F               LDI     R20, 15
   \   00000156   0724               CPC     R18, R20
   \   00000158   0736               CPC     R19, R22
   \   0000015A   F02C               BRLT    ??Alti_High2Pres_14
   \   0000015C   E480               LDI     R24, 64
   \   0000015E   E29A               LDI     R25, 42
   \   00000160   E9A0               LDI     R26, 144
   \   00000162   E54E               LDI     R20, 94
   \   00000164   C023               RJMP    ??Alti_High2Pres_3
     72           	else if(h>561500 )	{	j=9089000;	i=90;	}
   \                     ??Alti_High2Pres_14:
   \   00000166   350D               CPI     R16, 93
   \   00000168   E941               LDI     R20, 145
   \   0000016A   0714               CPC     R17, R20
   \   0000016C   E048               LDI     R20, 8
   \   0000016E   0724               CPC     R18, R20
   \   00000170   0736               CPC     R19, R22
   \   00000172   F02C               BRLT    ??Alti_High2Pres_15
   \   00000174   EE88               LDI     R24, 232
   \   00000176   EA9F               LDI     R25, 175
   \   00000178   E8AA               LDI     R26, 138
   \   0000017A   E54A               LDI     R20, 90
   \   0000017C   C017               RJMP    ??Alti_High2Pres_3
     73           	else if(h>58400  )	{	j=8710000;	i=86;	}
   \                     ??Alti_High2Pres_15:
   \   0000017E   3201               CPI     R16, 33
   \   00000180   EE44               LDI     R20, 228
   \   00000182   0714               CPC     R17, R20
   \   00000184   0726               CPC     R18, R22
   \   00000186   0736               CPC     R19, R22
   \   00000188   F02C               BRLT    ??Alti_High2Pres_16
   \   0000018A   E780               LDI     R24, 112
   \   0000018C   EE97               LDI     R25, 231
   \   0000018E   E8A4               LDI     R26, 132
   \   00000190   E546               LDI     R20, 86
   \   00000192   C00C               RJMP    ??Alti_High2Pres_3
     74           	else if(h>=-703000)	{	j=8207000;	i=81;	}
   \                     ??Alti_High2Pres_16:
   \   00000194   3E08               CPI     R16, 232
   \   00000196   E445               LDI     R20, 69
   \   00000198   0714               CPC     R17, R20
   \   0000019A   EF45               LDI     R20, 245
   \   0000019C   0724               CPC     R18, R20
   \   0000019E   EF4F               LDI     R20, 255
   \   000001A0   0734               CPC     R19, R20
   \   000001A2   F02C               BRLT    ??Alti_High2Pres_17
   \   000001A4   E988               LDI     R24, 152
   \   000001A6   E39A               LDI     R25, 58
   \   000001A8   E7AD               LDI     R26, 125
   \   000001AA   E541               LDI     R20, 81
   \                     ??Alti_High2Pres_3:
   \   000001AC   2E44               MOV     R4, R20
     75          	return(j-h)/i;
   \                     ??Alti_High2Pres_17:
   \   000001AE   1B80               SUB     R24, R16
   \   000001B0   0B91               SBC     R25, R17
   \   000001B2   0BA2               SBC     R26, R18
   \   000001B4   0BB3               SBC     R27, R19
   \   000001B6   018C               MOVW    R17:R16, R25:R24
   \   000001B8   019D               MOVW    R19:R18, R27:R26
   \   000001BA   01A2               MOVW    R21:R20, R5:R4
   \   000001BC   ....               RCALL   ?UL_DIVMOD_L03
   \   000001BE   E0E6               LDI     R30, 6
   \   000001C0   ....               RJMP    ?EPILOGUE_B6_L09
     76          }

   Maximum stack usage in bytes:

   CSTACK RSTACK Function
   ------ ------ --------
      4      4   Alti_Baro2High
      8      4   Alti_High2Pres


   Segment part sizes:

   Bytes  Function/Label
   -----  --------------
     486  Alti_Baro2High
     450  Alti_High2Pres

 
 936 bytes in segment CODE
 
 936 bytes of CODE memory

Errors: none
Warnings: none
